Component: ARM Compiler 5.06 update 6 (build 750) Tool: armlink [4d35ed]

==============================================================================

Section Cross References

    startup_stm32f429xx.o(RESET) refers to startup_stm32f429xx.o(STACK) for __initial_sp
    startup_stm32f429xx.o(RESET) refers to startup_stm32f429xx.o(.text) for Reset_Handler
    startup_stm32f429xx.o(RESET) refers to stm32f4xx_it.o(i.NMI_Handler) for NMI_Handler
    startup_stm32f429xx.o(RESET) refers to stm32f4xx_it.o(i.HardFault_Handler) for HardFault_Handler
    startup_stm32f429xx.o(RESET) refers to stm32f4xx_it.o(i.MemManage_Handler) for MemManage_Handler
    startup_stm32f429xx.o(RESET) refers to stm32f4xx_it.o(i.BusFault_Handler) for BusFault_Handler
    startup_stm32f429xx.o(RESET) refers to stm32f4xx_it.o(i.UsageFault_Handler) for UsageFault_Handler
    startup_stm32f429xx.o(RESET) refers to stm32f4xx_it.o(i.SVC_Handler) for SVC_Handler
    startup_stm32f429xx.o(RESET) refers to stm32f4xx_it.o(i.DebugMon_Handler) for DebugMon_Handler
    startup_stm32f429xx.o(RESET) refers to stm32f4xx_it.o(i.PendSV_Handler) for PendSV_Handler
    startup_stm32f429xx.o(RESET) refers to stm32f4xx_it.o(i.SysTick_Handler) for SysTick_Handler
    startup_stm32f429xx.o(RESET) refers to stm32f4xx_it.o(i.DMA1_Stream5_IRQHandler) for DMA1_Stream5_IRQHandler
    startup_stm32f429xx.o(RESET) refers to dbg_uart.o(i.USART1_IRQHandler) for USART1_IRQHandler
    startup_stm32f429xx.o(RESET) refers to uart.o(i.USART3_IRQHandler) for USART3_IRQHandler
    startup_stm32f429xx.o(RESET) refers to stm32f4xx_it.o(i.DMA2_Stream0_IRQHandler) for DMA2_Stream0_IRQHandler
    startup_stm32f429xx.o(RESET) refers to stm32f4xx_it.o(i.DMA2_Stream4_IRQHandler) for DMA2_Stream4_IRQHandler
    startup_stm32f429xx.o(.text) refers to system_stm32f4xx.o(i.SystemInit) for SystemInit
    startup_stm32f429xx.o(.text) refers to entry.o(.ARM.Collect$$$$00000000) for __main
    st-bus_sai_in_out.o(i.DV_port_input_Init) refers to hdlc_rx_low_level.o(i.BitRingInit) for BitRingInit
    st-bus_sai_in_out.o(i.DV_port_input_Init) refers to st-bus_sai_in_out.o(i.SAI_DMA_Init) for SAI_DMA_Init
    st-bus_sai_in_out.o(i.HAL_SAI_ErrorCallback) refers to stm32f4xx_hal_sai.o(i.HAL_SAI_GetError) for HAL_SAI_GetError
    st-bus_sai_in_out.o(i.HAL_SAI_ErrorCallback) refers to printfa.o(i.__0sprintf) for __2sprintf
    st-bus_sai_in_out.o(i.HAL_SAI_ErrorCallback) refers to puts.o(i.puts) for puts
    st-bus_sai_in_out.o(i.HAL_SAI_ErrorCallback) refers to st-bus_sai_in_out.o(i.SAI_DMA_Init) for SAI_DMA_Init
    st-bus_sai_in_out.o(i.HAL_SAI_ErrorCallback) refers to st-bus_sai_in_out.o(.bss) for .bss
    st-bus_sai_in_out.o(i.HAL_SAI_RxCpltCallback) refers to stm32f4xx_hal_gpio.o(i.HAL_GPIO_WritePin) for HAL_GPIO_WritePin
    st-bus_sai_in_out.o(i.HAL_SAI_RxCpltCallback) refers to strcpy.o(.text) for strcpy
    st-bus_sai_in_out.o(i.HAL_SAI_RxCpltCallback) refers to dbg_uart.o(i.HexToChar) for HexToChar
    st-bus_sai_in_out.o(i.HAL_SAI_RxCpltCallback) refers to puts.o(i.puts) for puts
    st-bus_sai_in_out.o(i.HAL_SAI_RxCpltCallback) refers to hdlc_rx_low_level.o(i.BitRingProcessBit) for BitRingProcessBit
    st-bus_sai_in_out.o(i.HAL_SAI_RxCpltCallback) refers to g711.o(i.AudioSamleToDAC) for AudioSamleToDAC
    st-bus_sai_in_out.o(i.HAL_SAI_RxCpltCallback) refers to hdlc_tx_low_level.o(i.HdlcBitStreamGetBit) for HdlcBitStreamGetBit
    st-bus_sai_in_out.o(i.HAL_SAI_RxCpltCallback) refers to g711.o(i.AudioSamleFromADC) for AudioSamleFromADC
    st-bus_sai_in_out.o(i.HAL_SAI_RxCpltCallback) refers to st-bus_sai_in_out.o(.bss) for .bss
    st-bus_sai_in_out.o(i.HAL_SAI_RxCpltCallback) refers to st-bus_sai_in_out.o(.data) for .data
    st-bus_sai_in_out.o(i.HAL_SAI_RxCpltCallback) refers to main_logic.o(.data) for flag_sound_en
    st-bus_sai_in_out.o(i.HAL_SAI_RxCpltCallback) refers to hdlc_tx_low_level.o(.data) for flag_HDLC_bitstream_ready
    st-bus_sai_in_out.o(i.SAI_DMA_Init) refers to stm32f4xx_hal_sai.o(i.HAL_SAI_Receive_DMA) for HAL_SAI_Receive_DMA
    st-bus_sai_in_out.o(i.SAI_DMA_Init) refers to stm32f4xx_hal_sai.o(i.HAL_SAI_Transmit_DMA) for HAL_SAI_Transmit_DMA
    st-bus_sai_in_out.o(i.SAI_DMA_Init) refers to puts.o(i.puts) for puts
    st-bus_sai_in_out.o(i.SAI_DMA_Init) refers to st-bus_sai_in_out.o(.bss) for .bss
    st-bus_sai_in_out.o(i.SAI_DMA_Init) refers to main.o(.bss) for hsai_BlockB1
    st-bus_sai_in_out.o(i.SAI_reset) refers to stm32f4xx_hal_sai.o(i.HAL_SAI_Abort) for HAL_SAI_Abort
    st-bus_sai_in_out.o(i.SAI_reset) refers to st-bus_sai_in_out.o(i.SAI_DMA_Init) for SAI_DMA_Init
    st-bus_sai_in_out.o(i.SAI_reset) refers to main.o(.bss) for hsai_BlockB1
    hdlc_rx_low_level.o(i.BitRingInit) refers to memseta.o(.text) for __aeabi_memclr
    hdlc_rx_low_level.o(i.BitRingInit) refers to puts.o(i.puts) for puts
    hdlc_rx_low_level.o(i.BitRingInit) refers to hdlc_rx_low_level.o(.bss) for .bss
    hdlc_rx_low_level.o(i.BitRingInit) refers to hdlc_rx_low_level.o(.data) for .data
    hdlc_rx_low_level.o(i.BitRingProcessBit) refers to hdlc_rx_low_level.o(i.Inc) for Inc
    hdlc_rx_low_level.o(i.BitRingProcessBit) refers to hdlc_rx_low_level.o(i.readFromPosition) for readFromPosition
    hdlc_rx_low_level.o(i.BitRingProcessBit) refers to memcmp.o(.text) for memcmp
    hdlc_rx_low_level.o(i.BitRingProcessBit) refers to hdlc_rx_low_level.o(.data) for .data
    hdlc_rx_low_level.o(i.BitRingProcessBit) refers to hdlc_rx_low_level.o(.bss) for .bss
    hdlc_rx_low_level.o(i.BitRingProcessBit) refers to hdlc_rx_low_level.o(.constdata) for .constdata
    hdlc_rx_low_level.o(i.processHdlcFrame) refers to memmovea.o(.text) for __aeabi_memmove
    hdlc_rx_low_level.o(i.processHdlcFrame) refers to crc-16_ccitt.o(i.Crc16) for Crc16
    hdlc_rx_low_level.o(i.processHdlcFrame) refers to puts.o(i.puts) for puts
    hdlc_rx_low_level.o(i.processHdlcFrame) refers to dbg_uart.o(i.dbgUartPutsArray) for dbgUartPutsArray
    hdlc_rx_low_level.o(i.processHdlcFrame) refers to hdlc_rx_low_level.o(.data) for .data
    hdlc_rx_low_level.o(i.processHdlcFrame) refers to hdlc_rx_low_level.o(.bss) for .bss
    hdlc_rx_low_level.o(i.readFromPosition) refers to hdlc_rx_low_level.o(i.Inc) for Inc
    hdlc_rx_low_level.o(i.readFromPosition) refers to hdlc_rx_low_level.o(.bss) for .bss
    hdlc_tx.o(i.HDLC_ProcessTx) refers to hdlc_tx.o(i.startHdlcTransmition) for startHdlcTransmition
    hdlc_tx.o(i.HDLC_ProcessTx) refers to hdlc_tx_low_level.o(.data) for flag_start_hdlc_transmission
    hdlc_tx.o(i.isHdlcFifoEmpty) refers to hdlc_tx.o(.bss) for .bss
    hdlc_tx.o(i.resetHdlcTxFifo) refers to hdlc_tx.o(.bss) for .bss
    hdlc_tx.o(i.startHdlcTransmition) refers to puts.o(i.puts) for puts
    hdlc_tx.o(i.startHdlcTransmition) refers to dbg_uart.o(i.dbgUartPutchar) for dbgUartPutchar
    hdlc_tx.o(i.startHdlcTransmition) refers to hdlc_tx_low_level.o(i.createHdlcBitStream) for createHdlcBitStream
    hdlc_tx.o(i.startHdlcTransmition) refers to hdlc_tx.o(.bss) for .bss
    hdlc_tx.o(i.startHdlcTransmition) refers to hdlc_tx.o(.data) for .data
    hdlc_tx.o(i.writeHdlcTxFifo) refers to hdlc_tx.o(.bss) for .bss
    hdlc_tx_low_level.o(i.HdlcBitStreamGetBit) refers to hdlc_tx.o(i.isHdlcFifoEmpty) for isHdlcFifoEmpty
    hdlc_tx_low_level.o(i.HdlcBitStreamGetBit) refers to hdlc_tx_low_level.o(.bss) for .bss
    hdlc_tx_low_level.o(i.HdlcBitStreamGetBit) refers to hdlc_tx_low_level.o(.data) for .data
    hdlc_tx_low_level.o(i.HdlcBitStreamGetBit) refers to hdlc_tx.o(.data) for flag_HDLC_transmitter_busy
    hdlc_tx_low_level.o(i.addByteToBitStream) refers to hdlc_tx_low_level.o(.bss) for .bss
    hdlc_tx_low_level.o(i.addByteToBitStream) refers to hdlc_tx_low_level.o(.data) for .data
    hdlc_tx_low_level.o(i.addFlagToBitStream) refers to hdlc_tx_low_level.o(.bss) for .bss
    hdlc_tx_low_level.o(i.addFlagToBitStream) refers to hdlc_tx_low_level.o(.data) for .data
    hdlc_tx_low_level.o(i.createHdlcBitStream) refers to hdlc_tx_low_level.o(i.addFlagToBitStream) for addFlagToBitStream
    hdlc_tx_low_level.o(i.createHdlcBitStream) refers to hdlc_tx_low_level.o(i.addByteToBitStream) for addByteToBitStream
    hdlc_tx_low_level.o(i.createHdlcBitStream) refers to crc-16_ccitt.o(i.Crc16) for Crc16
    hdlc_tx_low_level.o(i.createHdlcBitStream) refers to crc-16_ccitt.o(i.reflect) for reflect
    hdlc_tx_low_level.o(i.createHdlcBitStream) refers to hdlc_tx_low_level.o(.data) for .data
    crc-16_ccitt.o(i.Crc16) refers to crc-16_ccitt.o(i.reflect) for reflect
    dbg_uart.o(i.HexToChar) refers to memmovea.o(.text) for __aeabi_memcpy4
    dbg_uart.o(i.USART1_IRQHandler) refers to dbg_uart.o(.bss) for .bss
    dbg_uart.o(i.dbgUartGetFreeSpace) refers to dbg_uart.o(.bss) for .bss
    dbg_uart.o(i.dbgUartPauseTx) refers to dbg_uart.o(.data) for .data
    dbg_uart.o(i.dbgUartPutchar) refers to dbg_uart.o(.bss) for .bss
    dbg_uart.o(i.dbgUartPutchar) refers to dbg_uart.o(.data) for .data
    dbg_uart.o(i.dbgUartPuts) refers to dbg_uart.o(i.dbgUartPutchar) for dbgUartPutchar
    dbg_uart.o(i.dbgUartPutsArray) refers to dbg_uart.o(i.dbgUartPutchar) for dbgUartPutchar
    dbg_uart.o(i.dbgUartPutsBitArray) refers to dbg_uart.o(i.dbgUartPuts) for dbgUartPuts
    dbg_uart.o(i.dbgUartPutsBitArray) refers to dbg_uart.o(.conststring) for .conststring
    dbg_uart.o(i.dbgUartPutsUntil) refers to dbg_uart.o(i.dbgUartPutchar) for dbgUartPutchar
    dbg_uart.o(i.dbgUartResumeTx) refers to dbg_uart.o(.data) for .data
    dbg_uart.o(i.fputc) refers to dbg_uart.o(i.dbgUartPutchar) for dbgUartPutchar
    main_logic.o(i.checkDelay) refers to stm32f4xx_hal.o(i.HAL_GetTick) for HAL_GetTick
    main_logic.o(i.checkDelay) refers to main_logic.o(.data) for .data
    main_logic.o(i.checkTimeout) refers to stm32f4xx_hal.o(i.HAL_GetTick) for HAL_GetTick
    main_logic.o(i.checkTimeout) refers to main_logic.o(.data) for .data
    main_logic.o(i.doMainLogic) refers to main_logic.o(i.processNonRegistrativeTelegrams) for processNonRegistrativeTelegrams
    main_logic.o(i.doMainLogic) refers to main_logic.o(i.doRegistration) for doRegistration
    main_logic.o(i.doMainLogic) refers to tastature.o(i.doTastature) for doTastature
    main_logic.o(i.doMainLogic) refers to main_logic.o(i.processKeys) for processKeys
    main_logic.o(i.doMainLogic) refers to main_logic.o(i.signalGeneration) for signalGeneration
    main_logic.o(i.doMainLogic) refers to volume_control.o(i.doVolumeControl) for doVolumeControl
    main_logic.o(i.doRegistration) refers to _scanf_int.o(.text) for _scanf_int
    main_logic.o(i.doRegistration) refers to _scanf_str.o(.text) for _scanf_string
    main_logic.o(i.doRegistration) refers to puts.o(i.puts) for puts
    main_logic.o(i.doRegistration) refers to tastature.o(i.tastSetIndication) for tastSetIndication
    main_logic.o(i.doRegistration) refers to main_logic.o(i.checkTimeout) for checkTimeout
    main_logic.o(i.doRegistration) refers to main_logic.o(i.setTimeout) for setTimeout
    main_logic.o(i.doRegistration) refers to main_logic.o(i.regReset) for regReset
    main_logic.o(i.doRegistration) refers to printfa.o(i.__0printf) for __2printf
    main_logic.o(i.doRegistration) refers to tastature.o(i.tastCmdLeds) for tastCmdLeds
    main_logic.o(i.doRegistration) refers to main_logic.o(i.checkDelay) for checkDelay
    main_logic.o(i.doRegistration) refers to main_logic.o(i.sendTelegramKeepAlive) for sendTelegramKeepAlive
    main_logic.o(i.doRegistration) refers to main_logic.o(i.setDelay) for setDelay
    main_logic.o(i.doRegistration) refers to main_logic.o(i.sendTelegram) for sendTelegram
    main_logic.o(i.doRegistration) refers to strncmp.o(.text) for strncmp
    main_logic.o(i.doRegistration) refers to __0sscanf.o(.text) for __0sscanf
    main_logic.o(i.doRegistration) refers to powf.o(i.__hardfp_powf) for __hardfp_powf
    main_logic.o(i.doRegistration) refers to f2d.o(.text) for __aeabi_f2d
    main_logic.o(i.doRegistration) refers to codec_tlv320aic3100.o(i.unmuteLoudspeaker) for unmuteLoudspeaker
    main_logic.o(i.doRegistration) refers to main_logic.o(.data) for .data
    main_logic.o(i.doRegistration) refers to st-bus_sai_in_out.o(.data) for sync_bit
    main_logic.o(i.doRegistration) refers to hdlc_rx_low_level.o(.bss) for telegram_string
    main_logic.o(i.doRegistration) refers to hdlc_rx_low_level.o(.data) for flag_telegram_received
    main_logic.o(i.doRegistration) refers to main_logic.o(.bss) for .bss
    main_logic.o(i.initMainLogic) refers to volume_control.o(i.volumeControlInit) for volumeControlInit
    main_logic.o(i.initMainLogic) refers to st-bus_sai_in_out.o(.data) for C_channel_out
    main_logic.o(i.processKeys) refers to puts.o(i.puts) for puts
    main_logic.o(i.processKeys) refers to main_logic.o(i.sendTelegram) for sendTelegram
    main_logic.o(i.processKeys) refers to stm32f4xx_hal.o(i.HAL_GetTick) for HAL_GetTick
    main_logic.o(i.processKeys) refers to main_logic.o(.data) for .data
    main_logic.o(i.processKeys) refers to main_logic.o(.bss) for .bss
    main_logic.o(i.processKeys) refers to tastature.o(.bss) for key_event_str
    main_logic.o(i.processKeys) refers to hdlc_rx_low_level.o(.data) for flag_telegram_received
    main_logic.o(i.processKeys) refers to hdlc_rx_low_level.o(.bss) for telegram_string
    main_logic.o(i.processNonRegistrativeTelegrams) refers to puts.o(i.puts) for puts
    main_logic.o(i.processNonRegistrativeTelegrams) refers to main_logic.o(i.setTimeout) for setTimeout
    main_logic.o(i.processNonRegistrativeTelegrams) refers to tastature.o(i.tastLedTestOn) for tastLedTestOn
    main_logic.o(i.processNonRegistrativeTelegrams) refers to tastature.o(i.tastLedTestOff) for tastLedTestOff
    main_logic.o(i.processNonRegistrativeTelegrams) refers to strncpy.o(.text) for strncpy
    main_logic.o(i.processNonRegistrativeTelegrams) refers to tastature.o(i.tastSetIndication) for tastSetIndication
    main_logic.o(i.processNonRegistrativeTelegrams) refers to tastature.o(i.tastCmdLeds) for tastCmdLeds
    main_logic.o(i.processNonRegistrativeTelegrams) refers to printfa.o(i.__0printf) for __2printf
    main_logic.o(i.processNonRegistrativeTelegrams) refers to printfa.o(i.__0sprintf) for __2sprintf
    main_logic.o(i.processNonRegistrativeTelegrams) refers to stm32f4xx_hal_gpio.o(i.HAL_GPIO_WritePin) for HAL_GPIO_WritePin
    main_logic.o(i.processNonRegistrativeTelegrams) refers to codec_tlv320aic3100.o(i.unmuteLoudspeaker) for unmuteLoudspeaker
    main_logic.o(i.processNonRegistrativeTelegrams) refers to codec_tlv320aic3100.o(i.unmuteHlt) for unmuteHlt
    main_logic.o(i.processNonRegistrativeTelegrams) refers to codec_tlv320aic3100.o(i.muteLoudspeaker) for muteLoudspeaker
    main_logic.o(i.processNonRegistrativeTelegrams) refers to codec_tlv320aic3100.o(i.muteHlt) for muteHlt
    main_logic.o(i.processNonRegistrativeTelegrams) refers to codec_tlv320aic3100.o(i.selectHandsetMic) for selectHandsetMic
    main_logic.o(i.processNonRegistrativeTelegrams) refers to codec_tlv320aic3100.o(i.selectLoudspeakMic) for selectLoudspeakMic
    main_logic.o(i.processNonRegistrativeTelegrams) refers to main_logic.o(i.sendTelegram) for sendTelegram
    main_logic.o(i.processNonRegistrativeTelegrams) refers to main_logic.o(i.sendTelegramKeepAlive) for sendTelegramKeepAlive
    main_logic.o(i.processNonRegistrativeTelegrams) refers to hdlc_rx_low_level.o(.data) for flag_telegram_received
    main_logic.o(i.processNonRegistrativeTelegrams) refers to hdlc_rx_low_level.o(.bss) for telegram_string
    main_logic.o(i.processNonRegistrativeTelegrams) refers to main_logic.o(.data) for .data
    main_logic.o(i.processNonRegistrativeTelegrams) refers to main_logic.o(.bss) for .bss
    main_logic.o(i.processNonRegistrativeTelegrams) refers to g711.o(.data) for DAC_mode
    main_logic.o(i.processNonRegistrativeTelegrams) refers to tastature.o(.data) for led_test_enabled
    main_logic.o(i.regReset) refers to main_logic.o(.data) for .data
    main_logic.o(i.regReset) refers to tastature.o(.data) for led_test_enabled
    main_logic.o(i.regReset) refers to g711.o(.data) for att
    main_logic.o(i.sendTelegram) refers to puts.o(i.puts) for puts
    main_logic.o(i.sendTelegram) refers to hdlc_tx.o(i.isHdlcFifoEmpty) for isHdlcFifoEmpty
    main_logic.o(i.sendTelegram) refers to hdlc_tx.o(i.writeHdlcTxFifo) for writeHdlcTxFifo
    main_logic.o(i.sendTelegram) refers to hdlc_tx.o(i.startHdlcTransmition) for startHdlcTransmition
    main_logic.o(i.sendTelegram) refers to main_logic.o(.data) for .data
    main_logic.o(i.sendTelegram) refers to hdlc_tx.o(.data) for flag_HDLC_transmitter_busy
    main_logic.o(i.sendTelegramKeepAlive) refers to printfa.o(i.__0sprintf) for __2sprintf
    main_logic.o(i.sendTelegramKeepAlive) refers to main_logic.o(i.sendTelegram) for sendTelegram
    main_logic.o(i.sendTelegramKeepAlive) refers to main_logic.o(.data) for .data
    main_logic.o(i.setDelay) refers to stm32f4xx_hal.o(i.HAL_GetTick) for HAL_GetTick
    main_logic.o(i.setDelay) refers to main_logic.o(.data) for .data
    main_logic.o(i.setTimeout) refers to stm32f4xx_hal.o(i.HAL_GetTick) for HAL_GetTick
    main_logic.o(i.setTimeout) refers to main_logic.o(.data) for .data
    main_logic.o(i.signalGeneration) refers to stm32f4xx_hal.o(i.HAL_GetTick) for HAL_GetTick
    main_logic.o(i.signalGeneration) refers to codec_tlv320aic3100.o(i.muteHlt) for muteHlt
    main_logic.o(i.signalGeneration) refers to main_logic.o(.data) for .data
    main_logic.o(i.signalGeneration) refers to g711.o(.data) for DAC_mode
    main_logic.o(i.stopDelay) refers to main_logic.o(.data) for .data
    main_logic.o(i.stopTimeout) refers to main_logic.o(.data) for .data
    uart.o(i.USART3_IRQHandler) refers to stm32f4xx_hal_gpio.o(i.HAL_GPIO_WritePin) for HAL_GPIO_WritePin
    uart.o(i.USART3_IRQHandler) refers to uart.o(.bss) for .bss
    uart.o(i.USART3_IRQHandler) refers to uart.o(.data) for .data
    uart.o(i.blink) refers to uart.o(.data) for .data
    uart.o(i.doRxBlink) refers to uart.o(.data) for .data
    uart.o(i.uartBytesReceived) refers to uart.o(.bss) for .bss
    uart.o(i.uartGetchar) refers to uart.o(.bss) for .bss
    uart.o(i.uartInit) refers to stm32f4xx_hal_gpio.o(i.HAL_GPIO_WritePin) for HAL_GPIO_WritePin
    uart.o(i.uartInit) refers to uart.o(i.uartReceiveStart) for uartReceiveStart
    uart.o(i.uartPutchar) refers to stm32f4xx_hal_gpio.o(i.HAL_GPIO_WritePin) for HAL_GPIO_WritePin
    uart.o(i.uartPutchar) refers to uart.o(.bss) for .bss
    uart.o(i.uartPuts) refers to uart.o(i.uartPutchar) for uartPutchar
    uart.o(i.uartPutsN) refers to uart.o(i.uartPutchar) for uartPutchar
    uart.o(i.uartRS485TxBusy) refers to stm32f4xx_hal_gpio.o(i.HAL_GPIO_ReadPin) for HAL_GPIO_ReadPin
    uart.o(i.uartReceiveStart) refers to uart.o(.bss) for .bss
    uart.o(i.uartRxFifoFlush) refers to uart.o(.bss) for .bss
    uart.o(i.uartTxBufferEmpty) refers to uart.o(.bss) for .bss
    tastature.o(i.doTastature) refers to puts.o(i.puts) for puts
    tastature.o(i.doTastature) refers to printfa.o(i.__0sprintf) for __2sprintf
    tastature.o(i.doTastature) refers to stm32f4xx_hal.o(i.HAL_GetTick) for HAL_GetTick
    tastature.o(i.doTastature) refers to uart.o(i.uartPutchar) for uartPutchar
    tastature.o(i.doTastature) refers to uart.o(i.uartBytesReceived) for uartBytesReceived
    tastature.o(i.doTastature) refers to uart.o(i.uartGetchar) for uartGetchar
    tastature.o(i.doTastature) refers to uart.o(i.uartRS485TxBusy) for uartRS485TxBusy
    tastature.o(i.doTastature) refers to tastature.o(i.tastCmdReadKeys) for tastCmdReadKeys
    tastature.o(i.doTastature) refers to strcpy.o(.text) for strcpy
    tastature.o(i.doTastature) refers to tastature.o(i.tastCmdLeds) for tastCmdLeds
    tastature.o(i.doTastature) refers to tastature.o(.data) for .data
    tastature.o(i.doTastature) refers to tastature.o(.bss) for .bss
    tastature.o(i.doTastature) refers to main_logic.o(.data) for flag_abon_registered
    tastature.o(i.handsetButtonsService) refers to stm32f4xx_hal_gpio.o(i.HAL_GPIO_ReadPin) for HAL_GPIO_ReadPin
    tastature.o(i.handsetButtonsService) refers to main_logic.o(.data) for handset_support_en
    tastature.o(i.handsetButtonsService) refers to tastature.o(.data) for .data
    tastature.o(i.handsetButtonsService) refers to tastature.o(.bss) for .bss
    tastature.o(i.haveWorkingKeypad) refers to tastature.o(.bss) for .bss
    tastature.o(i.initTastature) refers to uart.o(i.uartInit) for uartInit
    tastature.o(i.initTastature) refers to stm32f4xx_hal.o(i.HAL_Delay) for HAL_Delay
    tastature.o(i.initTastature) refers to uart.o(i.uartPuts) for uartPuts
    tastature.o(i.initTastature) refers to puts.o(i.puts) for puts
    tastature.o(i.initTastature) refers to tastature.o(i.tastCheckPresence) for tastCheckPresence
    tastature.o(i.initTastature) refers to tastature.o(i.haveWorkingKeypad) for haveWorkingKeypad
    tastature.o(i.initTastature) refers to tastature.o(.bss) for .bss
    tastature.o(i.tastCheckPresence) refers to stm32f4xx_hal.o(i.HAL_GetTick) for HAL_GetTick
    tastature.o(i.tastCheckPresence) refers to uart.o(i.uartRxFifoFlush) for uartRxFifoFlush
    tastature.o(i.tastCheckPresence) refers to uart.o(i.uartPutchar) for uartPutchar
    tastature.o(i.tastCheckPresence) refers to uart.o(i.uartBytesReceived) for uartBytesReceived
    tastature.o(i.tastCheckPresence) refers to uart.o(i.uartGetchar) for uartGetchar
    tastature.o(i.tastCheckPresence) refers to puts.o(i.puts) for puts
    tastature.o(i.tastCheckPresence) refers to printfa.o(i.__0printf) for __2printf
    tastature.o(i.tastCheckPresence) refers to tastature.o(.bss) for .bss
    tastature.o(i.tastCmdLeds) refers to tastature.o(.bss) for .bss
    tastature.o(i.tastCmdReadKeys) refers to uart.o(i.uartPutchar) for uartPutchar
    tastature.o(i.tastCmdReadKeys) refers to tastature.o(.data) for .data
    tastature.o(i.tastCmdReadKeys) refers to tastature.o(.bss) for .bss
    tastature.o(i.tastLedTestOff) refers to puts.o(i.puts) for puts
    tastature.o(i.tastLedTestOff) refers to tastature.o(i.tastSetIndication) for tastSetIndication
    tastature.o(i.tastLedTestOff) refers to tastature.o(i.tastCmdLeds) for tastCmdLeds
    tastature.o(i.tastLedTestOff) refers to tastature.o(.data) for .data
    tastature.o(i.tastLedTestOn) refers to puts.o(i.puts) for puts
    tastature.o(i.tastLedTestOn) refers to tastature.o(i.tastSetIndication) for tastSetIndication
    tastature.o(i.tastLedTestOn) refers to tastature.o(i.tastCmdLeds) for tastCmdLeds
    tastature.o(i.tastLedTestOn) refers to tastature.o(.data) for .data
    tastature.o(i.tastSetIndication) refers to tastature.o(i.tastCmdLeds) for tastCmdLeds
    tastature.o(i.tastSetIndication) refers to stm32f4xx_hal.o(i.HAL_GetTick) for HAL_GetTick
    tastature.o(i.tastSetIndication) refers to tastature.o(.data) for .data
    codec_tlv320aic3100.o(i.codecInit) refers to printfa.o(i.__0printf) for __2printf
    codec_tlv320aic3100.o(i.codecInit) refers to stm32f4xx_hal_gpio.o(i.HAL_GPIO_WritePin) for HAL_GPIO_WritePin
    codec_tlv320aic3100.o(i.codecInit) refers to stm32f4xx_hal.o(i.HAL_Delay) for HAL_Delay
    codec_tlv320aic3100.o(i.codecInit) refers to codec_tlv320aic3100.o(i.writeReg) for writeReg
    codec_tlv320aic3100.o(i.codecInit) refers to codec_tlv320aic3100.o(i.readReg) for readReg
    codec_tlv320aic3100.o(i.codecInit) refers to codec_tlv320aic3100.o(i.selectLoudspeakMic) for selectLoudspeakMic
    codec_tlv320aic3100.o(i.codecInit) refers to codec_tlv320aic3100.o(i.muteLoudspeaker) for muteLoudspeaker
    codec_tlv320aic3100.o(i.codecInit) refers to codec_tlv320aic3100.o(i.muteHlt) for muteHlt
    codec_tlv320aic3100.o(i.codecInit) refers to puts.o(i.puts) for puts
    codec_tlv320aic3100.o(i.codecInit) refers to stm32f4xx_hal.o(i.HAL_GetTick) for HAL_GetTick
    codec_tlv320aic3100.o(i.codecInit) refers to codec_tlv320aic3100.o(.data) for .data
    codec_tlv320aic3100.o(i.muteHlt) refers to puts.o(i.puts) for puts
    codec_tlv320aic3100.o(i.muteHlt) refers to codec_tlv320aic3100.o(i.writeReg) for writeReg
    codec_tlv320aic3100.o(i.muteHlt) refers to codec_tlv320aic3100.o(i.readReg) for readReg
    codec_tlv320aic3100.o(i.muteHlt) refers to main_logic.o(.data) for handset_speaker_en
    codec_tlv320aic3100.o(i.muteLoudspeaker) refers to puts.o(i.puts) for puts
    codec_tlv320aic3100.o(i.muteLoudspeaker) refers to codec_tlv320aic3100.o(i.writeReg) for writeReg
    codec_tlv320aic3100.o(i.muteLoudspeaker) refers to main_logic.o(.data) for loud_speaker_en
    codec_tlv320aic3100.o(i.readReg) refers to stm32f4xx_hal_i2c.o(i.HAL_I2C_Mem_Read) for HAL_I2C_Mem_Read
    codec_tlv320aic3100.o(i.readReg) refers to printfa.o(i.__0printf) for __2printf
    codec_tlv320aic3100.o(i.readReg) refers to main.o(.bss) for hi2c1
    codec_tlv320aic3100.o(i.readReg) refers to codec_tlv320aic3100.o(.data) for .data
    codec_tlv320aic3100.o(i.selectHandsetMic) refers to codec_tlv320aic3100.o(i.writeReg) for writeReg
    codec_tlv320aic3100.o(i.selectHandsetMic) refers to codec_tlv320aic3100.o(.data) for .data
    codec_tlv320aic3100.o(i.selectLoudspeakMic) refers to codec_tlv320aic3100.o(i.writeReg) for writeReg
    codec_tlv320aic3100.o(i.selectLoudspeakMic) refers to codec_tlv320aic3100.o(.data) for .data
    codec_tlv320aic3100.o(i.setHltVol) refers to stm32f4xx_hal.o(i.HAL_GetTick) for HAL_GetTick
    codec_tlv320aic3100.o(i.setHltVol) refers to printfa.o(i.__0printf) for __2printf
    codec_tlv320aic3100.o(i.setHltVol) refers to codec_tlv320aic3100.o(i.writeReg) for writeReg
    codec_tlv320aic3100.o(i.setHltVol) refers to codec_tlv320aic3100.o(.data) for .data
    codec_tlv320aic3100.o(i.setMicVol) refers to stm32f4xx_hal.o(i.HAL_GetTick) for HAL_GetTick
    codec_tlv320aic3100.o(i.setMicVol) refers to printfa.o(i.__0printf) for __2printf
    codec_tlv320aic3100.o(i.setMicVol) refers to codec_tlv320aic3100.o(i.writeReg) for writeReg
    codec_tlv320aic3100.o(i.setMicVol) refers to codec_tlv320aic3100.o(.data) for .data
    codec_tlv320aic3100.o(i.setSpeakerVol) refers to stm32f4xx_hal.o(i.HAL_GetTick) for HAL_GetTick
    codec_tlv320aic3100.o(i.setSpeakerVol) refers to printfa.o(i.__0printf) for __2printf
    codec_tlv320aic3100.o(i.setSpeakerVol) refers to codec_tlv320aic3100.o(i.writeReg) for writeReg
    codec_tlv320aic3100.o(i.setSpeakerVol) refers to codec_tlv320aic3100.o(.data) for .data
    codec_tlv320aic3100.o(i.unmuteHlt) refers to puts.o(i.puts) for puts
    codec_tlv320aic3100.o(i.unmuteHlt) refers to codec_tlv320aic3100.o(i.writeReg) for writeReg
    codec_tlv320aic3100.o(i.unmuteHlt) refers to codec_tlv320aic3100.o(i.readReg) for readReg
    codec_tlv320aic3100.o(i.unmuteHlt) refers to main_logic.o(.data) for handset_speaker_en
    codec_tlv320aic3100.o(i.unmuteLoudspeaker) refers to puts.o(i.puts) for puts
    codec_tlv320aic3100.o(i.unmuteLoudspeaker) refers to codec_tlv320aic3100.o(i.writeReg) for writeReg
    codec_tlv320aic3100.o(i.unmuteLoudspeaker) refers to main_logic.o(.data) for loud_speaker_en
    codec_tlv320aic3100.o(i.writeReg) refers to stm32f4xx_hal_i2c.o(i.HAL_I2C_Mem_Write) for HAL_I2C_Mem_Write
    codec_tlv320aic3100.o(i.writeReg) refers to printfa.o(i.__0printf) for __2printf
    codec_tlv320aic3100.o(i.writeReg) refers to main.o(.bss) for hi2c1
    codec_tlv320aic3100.o(i.writeReg) refers to codec_tlv320aic3100.o(.data) for .data
    audio_in_out.o(i.AudioInOutInit) refers to codec_tlv320aic3100.o(i.codecInit) for codecInit
    audio_in_out.o(i.AudioInOutInit) refers to printfa.o(i.__0printf) for __2printf
    audio_in_out.o(i.AudioInOutInit) refers to stm32f4xx_hal_cortex.o(i.HAL_NVIC_DisableIRQ) for HAL_NVIC_DisableIRQ
    audio_in_out.o(i.AudioInOutInit) refers to stm32f4xx_hal_i2s_ex.o(i.HAL_I2SEx_TransmitReceive_DMA) for HAL_I2SEx_TransmitReceive_DMA
    audio_in_out.o(i.AudioInOutInit) refers to audio_in_out.o(.data) for .data
    audio_in_out.o(i.AudioInOutInit) refers to main.o(.bss) for hi2s3
    audio_in_out.o(i.AudioInOutInit) refers to audio_in_out.o(i.I2SEx_TxRxDMACpltAlt) for I2SEx_TxRxDMACpltAlt
    audio_in_out.o(i.AudioInPop) refers to puts.o(i.puts) for puts
    audio_in_out.o(i.AudioInPop) refers to audio_in_out.o(.data) for .data
    audio_in_out.o(i.AudioInPop) refers to audio_in_out.o(.bss) for .bss
    audio_in_out.o(i.AudioOutPush) refers to audio_in_out.o(.bss) for .bss
    audio_in_out.o(i.HAL_I2SEx_TxRxCpltAltCallback) refers to audio_in_out.o(.data) for .data
    audio_in_out.o(i.HAL_I2SEx_TxRxCpltAltCallback) refers to main_logic.o(.data) for handset_support_en
    audio_in_out.o(i.HAL_I2SEx_TxRxHalfCpltCallback) refers to puts.o(i.puts) for puts
    audio_in_out.o(i.HAL_I2SEx_TxRxHalfCpltCallback) refers to audio_in_out.o(.data) for .data
    audio_in_out.o(i.HAL_I2SEx_TxRxHalfCpltCallback) refers to audio_in_out.o(.bss) for .bss
    audio_in_out.o(i.HAL_I2S_ErrorCallback) refers to stm32f4xx_hal.o(i.HAL_Delay) for HAL_Delay
    audio_in_out.o(i.HAL_I2S_ErrorCallback) refers to stm32f4xx_hal_gpio.o(i.HAL_GPIO_WritePin) for HAL_GPIO_WritePin
    audio_in_out.o(i.I2SEx_TxRxDMACpltAlt) refers to audio_in_out.o(i.HAL_I2SEx_TxRxCpltAltCallback) for HAL_I2SEx_TxRxCpltAltCallback
    g711.o(i.AudioInit) refers to g711.o(.data) for .data
    g711.o(i.AudioSamleFromADC) refers to audio_in_out.o(i.AudioInPop) for AudioInPop
    g711.o(i.AudioSamleFromADC) refers to g711.o(i.linear2alaw) for linear2alaw
    g711.o(i.AudioSamleToDAC) refers to g711.o(i.alaw2linear) for alaw2linear
    g711.o(i.AudioSamleToDAC) refers to audio_in_out.o(i.AudioOutPush) for AudioOutPush
    g711.o(i.AudioSamleToDAC) refers to g711.o(.data) for .data
    g711.o(i.alaw2ulaw) refers to g711.o(.constdata) for .constdata
    g711.o(i.linear2alaw) refers to g711.o(i.search) for search
    g711.o(i.linear2alaw) refers to g711.o(.constdata) for .constdata
    g711.o(i.linear2ulaw) refers to g711.o(i.search) for search
    g711.o(i.linear2ulaw) refers to g711.o(.constdata) for .constdata
    g711.o(i.ulaw2alaw) refers to g711.o(.constdata) for .constdata
    potentiometer.o(i.Filter0) refers to dmul.o(.text) for __aeabi_dmul
    potentiometer.o(i.Filter0) refers to dadd.o(.text) for __aeabi_dadd
    potentiometer.o(i.Filter0) refers to cdcmple.o(.text) for __aeabi_cdcmple
    potentiometer.o(i.Filter0) refers to cdrcmple.o(.text) for __aeabi_cdrcmple
    potentiometer.o(i.Filter0) refers to dfltui.o(.text) for __aeabi_ui2d
    potentiometer.o(i.Filter0) refers to potentiometer.o(.data) for .data
    potentiometer.o(i.Filter1) refers to dmul.o(.text) for __aeabi_dmul
    potentiometer.o(i.Filter1) refers to dadd.o(.text) for __aeabi_dadd
    potentiometer.o(i.Filter1) refers to cdcmple.o(.text) for __aeabi_cdcmple
    potentiometer.o(i.Filter1) refers to cdrcmple.o(.text) for __aeabi_cdrcmple
    potentiometer.o(i.Filter1) refers to dfltui.o(.text) for __aeabi_ui2d
    potentiometer.o(i.Filter1) refers to potentiometer.o(.data) for .data
    potentiometer.o(i.Filter2) refers to dmul.o(.text) for __aeabi_dmul
    potentiometer.o(i.Filter2) refers to dadd.o(.text) for __aeabi_dadd
    potentiometer.o(i.Filter2) refers to cdcmple.o(.text) for __aeabi_cdcmple
    potentiometer.o(i.Filter2) refers to cdrcmple.o(.text) for __aeabi_cdrcmple
    potentiometer.o(i.Filter2) refers to dfltui.o(.text) for __aeabi_ui2d
    potentiometer.o(i.Filter2) refers to potentiometer.o(.data) for .data
    potentiometer.o(i.Filter3) refers to dmul.o(.text) for __aeabi_dmul
    potentiometer.o(i.Filter3) refers to dadd.o(.text) for __aeabi_dadd
    potentiometer.o(i.Filter3) refers to cdcmple.o(.text) for __aeabi_cdcmple
    potentiometer.o(i.Filter3) refers to cdrcmple.o(.text) for __aeabi_cdrcmple
    potentiometer.o(i.Filter3) refers to dfltui.o(.text) for __aeabi_ui2d
    potentiometer.o(i.Filter3) refers to potentiometer.o(.data) for .data
    potentiometer.o(i.HAL_ADC_ConvCallback) refers to dfltui.o(.text) for __aeabi_ui2d
    potentiometer.o(i.HAL_ADC_ConvCallback) refers to potentiometer.o(i.Filter0) for Filter0
    potentiometer.o(i.HAL_ADC_ConvCallback) refers to dfixui.o(.text) for __aeabi_d2uiz
    potentiometer.o(i.HAL_ADC_ConvCallback) refers to potentiometer.o(i.Filter1) for Filter1
    potentiometer.o(i.HAL_ADC_ConvCallback) refers to potentiometer.o(i.Filter2) for Filter2
    potentiometer.o(i.HAL_ADC_ConvCallback) refers to potentiometer.o(i.Filter3) for Filter3
    potentiometer.o(i.HAL_ADC_ConvCallback) refers to potentiometer.o(.bss) for .bss
    potentiometer.o(i.HAL_ADC_ConvCpltCallback) refers to potentiometer.o(i.HAL_ADC_ConvCallback) for HAL_ADC_ConvCallback
    potentiometer.o(i.HAL_ADC_ConvHalfCpltCallback) refers to potentiometer.o(i.HAL_ADC_ConvCallback) for HAL_ADC_ConvCallback
    potentiometer.o(i.getPotValue) refers to potentiometer.o(.bss) for .bss
    potentiometer.o(i.potInit) refers to stm32f4xx_hal_adc.o(i.HAL_ADC_Start_DMA) for HAL_ADC_Start_DMA
    potentiometer.o(i.potInit) refers to potentiometer.o(.bss) for .bss
    potentiometer.o(i.potInit) refers to main.o(.bss) for hadc1
    volume_control.o(i.doVolumeControl) refers to stm32f4xx_hal.o(i.HAL_GetTick) for HAL_GetTick
    volume_control.o(i.doVolumeControl) refers to potentiometer.o(i.getPotValue) for getPotValue
    volume_control.o(i.doVolumeControl) refers to codec_tlv320aic3100.o(i.setSpeakerVol) for setSpeakerVol
    volume_control.o(i.doVolumeControl) refers to codec_tlv320aic3100.o(i.setHltVol) for setHltVol
    volume_control.o(i.doVolumeControl) refers to codec_tlv320aic3100.o(i.setMicVol) for setMicVol
    volume_control.o(i.doVolumeControl) refers to volume_control.o(.data) for .data
    volume_control.o(i.doVolumeControl) refers to codec_tlv320aic3100.o(.data) for selected_mic
    volume_control.o(i.volumeControlInit) refers to potentiometer.o(i.potInit) for potInit
    main.o(i.MX_ADC1_Init) refers to stm32f4xx_hal_adc.o(i.HAL_ADC_Init) for HAL_ADC_Init
    main.o(i.MX_ADC1_Init) refers to stm32f4xx_hal_adc.o(i.HAL_ADC_ConfigChannel) for HAL_ADC_ConfigChannel
    main.o(i.MX_ADC1_Init) refers to main.o(.bss) for .bss
    main.o(i.MX_DMA_Init) refers to stm32f4xx_hal_cortex.o(i.HAL_NVIC_SetPriority) for HAL_NVIC_SetPriority
    main.o(i.MX_DMA_Init) refers to stm32f4xx_hal_cortex.o(i.HAL_NVIC_EnableIRQ) for HAL_NVIC_EnableIRQ
    main.o(i.MX_GPIO_Init) refers to memseta.o(.text) for __aeabi_memclr4
    main.o(i.MX_GPIO_Init) refers to stm32f4xx_hal_gpio.o(i.HAL_GPIO_WritePin) for HAL_GPIO_WritePin
    main.o(i.MX_GPIO_Init) refers to stm32f4xx_hal_gpio.o(i.HAL_GPIO_Init) for HAL_GPIO_Init
    main.o(i.MX_I2C1_Init) refers to stm32f4xx_hal_i2c.o(i.HAL_I2C_Init) for HAL_I2C_Init
    main.o(i.MX_I2C1_Init) refers to stm32f4xx_hal_i2c_ex.o(i.HAL_I2CEx_ConfigAnalogFilter) for HAL_I2CEx_ConfigAnalogFilter
    main.o(i.MX_I2C1_Init) refers to stm32f4xx_hal_i2c_ex.o(i.HAL_I2CEx_ConfigDigitalFilter) for HAL_I2CEx_ConfigDigitalFilter
    main.o(i.MX_I2C1_Init) refers to main.o(.bss) for .bss
    main.o(i.MX_SAI1_Init) refers to stm32f4xx_hal_sai.o(i.HAL_SAI_Init) for HAL_SAI_Init
    main.o(i.MX_SAI1_Init) refers to main.o(.bss) for .bss
    main.o(i.MX_USART1_UART_Init) refers to memseta.o(.text) for __aeabi_memclr4
    main.o(i.MX_USART1_UART_Init) refers to main.o(i.LL_AHB1_GRP1_EnableClock) for LL_AHB1_GRP1_EnableClock
    main.o(i.MX_USART1_UART_Init) refers to stm32f4xx_ll_gpio.o(i.LL_GPIO_Init) for LL_GPIO_Init
    main.o(i.MX_USART1_UART_Init) refers to main.o(i.NVIC_EncodePriority) for NVIC_EncodePriority
    main.o(i.MX_USART1_UART_Init) refers to main.o(i.__NVIC_SetPriority) for __NVIC_SetPriority
    main.o(i.MX_USART1_UART_Init) refers to main.o(i.__NVIC_EnableIRQ) for __NVIC_EnableIRQ
    main.o(i.MX_USART1_UART_Init) refers to stm32f4xx_ll_usart.o(i.LL_USART_Init) for LL_USART_Init
    main.o(i.MX_USART3_UART_Init) refers to memseta.o(.text) for __aeabi_memclr4
    main.o(i.MX_USART3_UART_Init) refers to main.o(i.LL_AHB1_GRP1_EnableClock) for LL_AHB1_GRP1_EnableClock
    main.o(i.MX_USART3_UART_Init) refers to stm32f4xx_ll_gpio.o(i.LL_GPIO_Init) for LL_GPIO_Init
    main.o(i.MX_USART3_UART_Init) refers to main.o(i.NVIC_EncodePriority) for NVIC_EncodePriority
    main.o(i.MX_USART3_UART_Init) refers to main.o(i.__NVIC_SetPriority) for __NVIC_SetPriority
    main.o(i.MX_USART3_UART_Init) refers to main.o(i.__NVIC_EnableIRQ) for __NVIC_EnableIRQ
    main.o(i.MX_USART3_UART_Init) refers to stm32f4xx_ll_usart.o(i.LL_USART_Init) for LL_USART_Init
    main.o(i.ReadProtect) refers to stm32f4xx_hal_flash_ex.o(i.HAL_FLASHEx_OBGetConfig) for HAL_FLASHEx_OBGetConfig
    main.o(i.ReadProtect) refers to stm32f4xx_hal_flash.o(i.HAL_FLASH_Unlock) for HAL_FLASH_Unlock
    main.o(i.ReadProtect) refers to stm32f4xx_hal_flash.o(i.HAL_FLASH_OB_Unlock) for HAL_FLASH_OB_Unlock
    main.o(i.ReadProtect) refers to stm32f4xx_hal_flash_ex.o(i.HAL_FLASHEx_OBProgram) for HAL_FLASHEx_OBProgram
    main.o(i.ReadProtect) refers to stm32f4xx_hal_flash.o(i.HAL_FLASH_OB_Launch) for HAL_FLASH_OB_Launch
    main.o(i.ReadProtect) refers to stm32f4xx_hal_flash.o(i.HAL_FLASH_OB_Lock) for HAL_FLASH_OB_Lock
    main.o(i.ReadProtect) refers to stm32f4xx_hal_flash.o(i.HAL_FLASH_Lock) for HAL_FLASH_Lock
    main.o(i.ReadProtect) refers to main.o(.bss) for .bss
    main.o(i.SystemClock_Config) refers to memseta.o(.text) for __aeabi_memclr4
    main.o(i.SystemClock_Config) refers to stm32f4xx_hal_rcc.o(i.HAL_RCC_OscConfig) for HAL_RCC_OscConfig
    main.o(i.SystemClock_Config) refers to stm32f4xx_hal_pwr_ex.o(i.HAL_PWREx_EnableOverDrive) for HAL_PWREx_EnableOverDrive
    main.o(i.SystemClock_Config) refers to stm32f4xx_hal_rcc.o(i.HAL_RCC_ClockConfig) for HAL_RCC_ClockConfig
    main.o(i.SystemClock_Config) refers to stm32f4xx_hal_rcc_ex.o(i.HAL_RCCEx_PeriphCLKConfig) for HAL_RCCEx_PeriphCLKConfig
    main.o(i.main) refers to stm32f4xx_hal.o(i.HAL_Init) for HAL_Init
    main.o(i.main) refers to main.o(i.SystemClock_Config) for SystemClock_Config
    main.o(i.main) refers to main.o(i.MX_GPIO_Init) for MX_GPIO_Init
    main.o(i.main) refers to main.o(i.MX_DMA_Init) for MX_DMA_Init
    main.o(i.main) refers to main.o(i.MX_SAI1_Init) for MX_SAI1_Init
    main.o(i.main) refers to main.o(i.MX_USART1_UART_Init) for MX_USART1_UART_Init
    main.o(i.main) refers to main.o(i.MX_USART3_UART_Init) for MX_USART3_UART_Init
    main.o(i.main) refers to main.o(i.MX_I2C1_Init) for MX_I2C1_Init
    main.o(i.main) refers to stm32f4xx_hal_i2s.o(i.HAL_I2S_Init) for HAL_I2S_Init
    main.o(i.main) refers to main.o(i.MX_ADC1_Init) for MX_ADC1_Init
    main.o(i.main) refers to puts.o(i.puts) for puts
    main.o(i.main) refers to st-bus_sai_in_out.o(i.DV_port_input_Init) for DV_port_input_Init
    main.o(i.main) refers to tastature.o(i.initTastature) for initTastature
    main.o(i.main) refers to audio_in_out.o(i.AudioInOutInit) for AudioInOutInit
    main.o(i.main) refers to main_logic.o(i.initMainLogic) for initMainLogic
    main.o(i.main) refers to stm32f4xx_hal.o(i.HAL_GetTick) for HAL_GetTick
    main.o(i.main) refers to hdlc_rx_low_level.o(i.processHdlcFrame) for processHdlcFrame
    main.o(i.main) refers to main_logic.o(i.doMainLogic) for doMainLogic
    main.o(i.main) refers to main.o(.bss) for .bss
    main.o(i.main) refers to main.o(.data) for .data
    stm32f4xx_it.o(i.DMA1_Stream5_IRQHandler) refers to stm32f4xx_hal_dma.o(i.HAL_DMA_IRQHandler) for HAL_DMA_IRQHandler
    stm32f4xx_it.o(i.DMA1_Stream5_IRQHandler) refers to main.o(.bss) for hdma_spi3_tx
    stm32f4xx_it.o(i.DMA2_Stream0_IRQHandler) refers to stm32f4xx_hal_dma.o(i.HAL_DMA_IRQHandler) for HAL_DMA_IRQHandler
    stm32f4xx_it.o(i.DMA2_Stream0_IRQHandler) refers to main.o(.bss) for hdma_adc1
    stm32f4xx_it.o(i.DMA2_Stream4_IRQHandler) refers to stm32f4xx_hal_dma.o(i.HAL_DMA_IRQHandler) for HAL_DMA_IRQHandler
    stm32f4xx_it.o(i.DMA2_Stream4_IRQHandler) refers to main.o(.bss) for hdma_sai1_b
    stm32f4xx_it.o(i.HardFault_Handler) refers to stm32f4xx_hal_gpio.o(i.HAL_GPIO_TogglePin) for HAL_GPIO_TogglePin
    stm32f4xx_it.o(i.SysTick_Handler) refers to stm32f4xx_hal.o(i.HAL_IncTick) for HAL_IncTick
    stm32f4xx_it.o(i.SysTick_Handler) refers to hdlc_tx.o(i.HDLC_ProcessTx) for HDLC_ProcessTx
    stm32f4xx_it.o(i.SysTick_Handler) refers to tastature.o(i.handsetButtonsService) for handsetButtonsService
    stm32f4xx_hal_msp.o(i.HAL_ADC_MspDeInit) refers to stm32f4xx_hal_gpio.o(i.HAL_GPIO_DeInit) for HAL_GPIO_DeInit
    stm32f4xx_hal_msp.o(i.HAL_ADC_MspDeInit) refers to stm32f4xx_hal_dma.o(i.HAL_DMA_DeInit) for HAL_DMA_DeInit
    stm32f4xx_hal_msp.o(i.HAL_ADC_MspInit) refers to memseta.o(.text) for __aeabi_memclr4
    stm32f4xx_hal_msp.o(i.HAL_ADC_MspInit) refers to stm32f4xx_hal_gpio.o(i.HAL_GPIO_Init) for HAL_GPIO_Init
    stm32f4xx_hal_msp.o(i.HAL_ADC_MspInit) refers to stm32f4xx_hal_dma.o(i.HAL_DMA_Init) for HAL_DMA_Init
    stm32f4xx_hal_msp.o(i.HAL_ADC_MspInit) refers to main.o(i.Error_Handler) for Error_Handler
    stm32f4xx_hal_msp.o(i.HAL_ADC_MspInit) refers to main.o(.bss) for hdma_adc1
    stm32f4xx_hal_msp.o(i.HAL_I2C_MspDeInit) refers to stm32f4xx_hal_gpio.o(i.HAL_GPIO_DeInit) for HAL_GPIO_DeInit
    stm32f4xx_hal_msp.o(i.HAL_I2C_MspInit) refers to memseta.o(.text) for __aeabi_memclr4
    stm32f4xx_hal_msp.o(i.HAL_I2C_MspInit) refers to stm32f4xx_hal_gpio.o(i.HAL_GPIO_Init) for HAL_GPIO_Init
    stm32f4xx_hal_msp.o(i.HAL_I2S_MspDeInit) refers to stm32f4xx_hal_gpio.o(i.HAL_GPIO_DeInit) for HAL_GPIO_DeInit
    stm32f4xx_hal_msp.o(i.HAL_I2S_MspDeInit) refers to stm32f4xx_hal_dma.o(i.HAL_DMA_DeInit) for HAL_DMA_DeInit
    stm32f4xx_hal_msp.o(i.HAL_I2S_MspInit) refers to memseta.o(.text) for __aeabi_memclr4
    stm32f4xx_hal_msp.o(i.HAL_I2S_MspInit) refers to stm32f4xx_hal_gpio.o(i.HAL_GPIO_Init) for HAL_GPIO_Init
    stm32f4xx_hal_msp.o(i.HAL_I2S_MspInit) refers to stm32f4xx_hal_dma.o(i.HAL_DMA_Init) for HAL_DMA_Init
    stm32f4xx_hal_msp.o(i.HAL_I2S_MspInit) refers to main.o(i.Error_Handler) for Error_Handler
    stm32f4xx_hal_msp.o(i.HAL_I2S_MspInit) refers to main.o(.bss) for hdma_spi3_tx
    stm32f4xx_hal_msp.o(i.HAL_I2S_MspInit) refers to main.o(.bss) for hdma_i2s3_ext_rx
    stm32f4xx_hal_msp.o(i.HAL_SAI_MspDeInit) refers to stm32f4xx_hal_gpio.o(i.HAL_GPIO_DeInit) for HAL_GPIO_DeInit
    stm32f4xx_hal_msp.o(i.HAL_SAI_MspDeInit) refers to stm32f4xx_hal_dma.o(i.HAL_DMA_DeInit) for HAL_DMA_DeInit
    stm32f4xx_hal_msp.o(i.HAL_SAI_MspDeInit) refers to stm32f4xx_hal_msp.o(.data) for .data
    stm32f4xx_hal_msp.o(i.HAL_SAI_MspInit) refers to stm32f4xx_hal_gpio.o(i.HAL_GPIO_Init) for HAL_GPIO_Init
    stm32f4xx_hal_msp.o(i.HAL_SAI_MspInit) refers to stm32f4xx_hal_dma.o(i.HAL_DMA_Init) for HAL_DMA_Init
    stm32f4xx_hal_msp.o(i.HAL_SAI_MspInit) refers to main.o(i.Error_Handler) for Error_Handler
    stm32f4xx_hal_msp.o(i.HAL_SAI_MspInit) refers to stm32f4xx_hal_msp.o(.data) for .data
    stm32f4xx_hal_msp.o(i.HAL_SAI_MspInit) refers to main.o(.bss) for hdma_sai1_a
    stm32f4xx_hal_msp.o(i.HAL_SAI_MspInit) refers to main.o(.bss) for hdma_sai1_b
    stm32f4xx_hal_adc.o(i.ADC_DMAConvCplt) refers to stm32f4xx_hal_adc.o(i.HAL_ADC_ErrorCallback) for HAL_ADC_ErrorCallback
    stm32f4xx_hal_adc.o(i.ADC_DMAConvCplt) refers to potentiometer.o(i.HAL_ADC_ConvCpltCallback) for HAL_ADC_ConvCpltCallback
    stm32f4xx_hal_adc.o(i.ADC_DMAError) refers to stm32f4xx_hal_adc.o(i.HAL_ADC_ErrorCallback) for HAL_ADC_ErrorCallback
    stm32f4xx_hal_adc.o(i.ADC_DMAHalfConvCplt) refers to potentiometer.o(i.HAL_ADC_ConvHalfCpltCallback) for HAL_ADC_ConvHalfCpltCallback
    stm32f4xx_hal_adc.o(i.HAL_ADC_ConfigChannel) refers to system_stm32f4xx.o(.data) for SystemCoreClock
    stm32f4xx_hal_adc.o(i.HAL_ADC_DeInit) refers to stm32f4xx_hal_msp.o(i.HAL_ADC_MspDeInit) for HAL_ADC_MspDeInit
    stm32f4xx_hal_adc.o(i.HAL_ADC_IRQHandler) refers to potentiometer.o(i.HAL_ADC_ConvCpltCallback) for HAL_ADC_ConvCpltCallback
    stm32f4xx_hal_adc.o(i.HAL_ADC_IRQHandler) refers to stm32f4xx_hal_adc_ex.o(i.HAL_ADCEx_InjectedConvCpltCallback) for HAL_ADCEx_InjectedConvCpltCallback
    stm32f4xx_hal_adc.o(i.HAL_ADC_IRQHandler) refers to stm32f4xx_hal_adc.o(i.HAL_ADC_LevelOutOfWindowCallback) for HAL_ADC_LevelOutOfWindowCallback
    stm32f4xx_hal_adc.o(i.HAL_ADC_IRQHandler) refers to stm32f4xx_hal_adc.o(i.HAL_ADC_ErrorCallback) for HAL_ADC_ErrorCallback
    stm32f4xx_hal_adc.o(i.HAL_ADC_Init) refers to stm32f4xx_hal_msp.o(i.HAL_ADC_MspInit) for HAL_ADC_MspInit
    stm32f4xx_hal_adc.o(i.HAL_ADC_Init) refers to stm32f4xx_hal_adc.o(i.ADC_Init) for ADC_Init
    stm32f4xx_hal_adc.o(i.HAL_ADC_PollForConversion) refers to stm32f4xx_hal.o(i.HAL_GetTick) for HAL_GetTick
    stm32f4xx_hal_adc.o(i.HAL_ADC_PollForEvent) refers to stm32f4xx_hal.o(i.HAL_GetTick) for HAL_GetTick
    stm32f4xx_hal_adc.o(i.HAL_ADC_Start) refers to system_stm32f4xx.o(.data) for SystemCoreClock
    stm32f4xx_hal_adc.o(i.HAL_ADC_Start_DMA) refers to stm32f4xx_hal_dma.o(i.HAL_DMA_Start_IT) for HAL_DMA_Start_IT
    stm32f4xx_hal_adc.o(i.HAL_ADC_Start_DMA) refers to system_stm32f4xx.o(.data) for SystemCoreClock
    stm32f4xx_hal_adc.o(i.HAL_ADC_Start_DMA) refers to stm32f4xx_hal_adc.o(i.ADC_DMAConvCplt) for ADC_DMAConvCplt
    stm32f4xx_hal_adc.o(i.HAL_ADC_Start_DMA) refers to stm32f4xx_hal_adc.o(i.ADC_DMAHalfConvCplt) for ADC_DMAHalfConvCplt
    stm32f4xx_hal_adc.o(i.HAL_ADC_Start_DMA) refers to stm32f4xx_hal_adc.o(i.ADC_DMAError) for ADC_DMAError
    stm32f4xx_hal_adc.o(i.HAL_ADC_Start_IT) refers to system_stm32f4xx.o(.data) for SystemCoreClock
    stm32f4xx_hal_adc.o(i.HAL_ADC_Stop_DMA) refers to stm32f4xx_hal_dma.o(i.HAL_DMA_Abort) for HAL_DMA_Abort
    stm32f4xx_hal_adc_ex.o(i.ADC_MultiModeDMAConvCplt) refers to potentiometer.o(i.HAL_ADC_ConvCpltCallback) for HAL_ADC_ConvCpltCallback
    stm32f4xx_hal_adc_ex.o(i.ADC_MultiModeDMAError) refers to stm32f4xx_hal_adc.o(i.HAL_ADC_ErrorCallback) for HAL_ADC_ErrorCallback
    stm32f4xx_hal_adc_ex.o(i.ADC_MultiModeDMAHalfConvCplt) refers to potentiometer.o(i.HAL_ADC_ConvHalfCpltCallback) for HAL_ADC_ConvHalfCpltCallback
    stm32f4xx_hal_adc_ex.o(i.HAL_ADCEx_InjectedPollForConversion) refers to stm32f4xx_hal.o(i.HAL_GetTick) for HAL_GetTick
    stm32f4xx_hal_adc_ex.o(i.HAL_ADCEx_InjectedStart) refers to system_stm32f4xx.o(.data) for SystemCoreClock
    stm32f4xx_hal_adc_ex.o(i.HAL_ADCEx_InjectedStart_IT) refers to system_stm32f4xx.o(.data) for SystemCoreClock
    stm32f4xx_hal_adc_ex.o(i.HAL_ADCEx_MultiModeStart_DMA) refers to stm32f4xx_hal_dma.o(i.HAL_DMA_Start_IT) for HAL_DMA_Start_IT
    stm32f4xx_hal_adc_ex.o(i.HAL_ADCEx_MultiModeStart_DMA) refers to system_stm32f4xx.o(.data) for SystemCoreClock
    stm32f4xx_hal_adc_ex.o(i.HAL_ADCEx_MultiModeStart_DMA) refers to stm32f4xx_hal_adc_ex.o(i.ADC_MultiModeDMAConvCplt) for ADC_MultiModeDMAConvCplt
    stm32f4xx_hal_adc_ex.o(i.HAL_ADCEx_MultiModeStart_DMA) refers to stm32f4xx_hal_adc_ex.o(i.ADC_MultiModeDMAHalfConvCplt) for ADC_MultiModeDMAHalfConvCplt
    stm32f4xx_hal_adc_ex.o(i.HAL_ADCEx_MultiModeStart_DMA) refers to stm32f4xx_hal_adc_ex.o(i.ADC_MultiModeDMAError) for ADC_MultiModeDMAError
    stm32f4xx_hal_adc_ex.o(i.HAL_ADCEx_MultiModeStop_DMA) refers to stm32f4xx_hal_dma.o(i.HAL_DMA_Abort) for HAL_DMA_Abort
    stm32f4xx_hal_rcc.o(i.HAL_RCC_ClockConfig) refers to stm32f4xx_hal.o(i.HAL_GetTick) for HAL_GetTick
    stm32f4xx_hal_rcc.o(i.HAL_RCC_ClockConfig) refers to stm32f4xx_hal_rcc.o(i.HAL_RCC_GetSysClockFreq) for HAL_RCC_GetSysClockFreq
    stm32f4xx_hal_rcc.o(i.HAL_RCC_ClockConfig) refers to stm32f4xx_hal.o(i.HAL_InitTick) for HAL_InitTick
    stm32f4xx_hal_rcc.o(i.HAL_RCC_ClockConfig) refers to system_stm32f4xx.o(.constdata) for AHBPrescTable
    stm32f4xx_hal_rcc.o(i.HAL_RCC_ClockConfig) refers to system_stm32f4xx.o(.data) for SystemCoreClock
    stm32f4xx_hal_rcc.o(i.HAL_RCC_ClockConfig) refers to stm32f4xx_hal.o(.data) for uwTickPrio
    stm32f4xx_hal_rcc.o(i.HAL_RCC_GetHCLKFreq) refers to system_stm32f4xx.o(.data) for SystemCoreClock
    stm32f4xx_hal_rcc.o(i.HAL_RCC_GetPCLK1Freq) refers to system_stm32f4xx.o(.data) for SystemCoreClock
    stm32f4xx_hal_rcc.o(i.HAL_RCC_GetPCLK1Freq) refers to system_stm32f4xx.o(.constdata) for APBPrescTable
    stm32f4xx_hal_rcc.o(i.HAL_RCC_GetPCLK2Freq) refers to system_stm32f4xx.o(.data) for SystemCoreClock
    stm32f4xx_hal_rcc.o(i.HAL_RCC_GetPCLK2Freq) refers to system_stm32f4xx.o(.constdata) for APBPrescTable
    stm32f4xx_hal_rcc.o(i.HAL_RCC_GetSysClockFreq) refers to uldiv.o(.text) for __aeabi_uldivmod
    stm32f4xx_hal_rcc.o(i.HAL_RCC_MCOConfig) refers to stm32f4xx_hal_gpio.o(i.HAL_GPIO_Init) for HAL_GPIO_Init
    stm32f4xx_hal_rcc.o(i.HAL_RCC_NMI_IRQHandler) refers to stm32f4xx_hal_rcc.o(i.HAL_RCC_CSSCallback) for HAL_RCC_CSSCallback
    stm32f4xx_hal_rcc.o(i.HAL_RCC_OscConfig) refers to stm32f4xx_hal.o(i.HAL_GetTick) for HAL_GetTick
    stm32f4xx_hal_rcc_ex.o(i.HAL_RCCEx_DisablePLLI2S) refers to stm32f4xx_hal.o(i.HAL_GetTick) for HAL_GetTick
    stm32f4xx_hal_rcc_ex.o(i.HAL_RCCEx_DisablePLLSAI) refers to stm32f4xx_hal.o(i.HAL_GetTick) for HAL_GetTick
    stm32f4xx_hal_rcc_ex.o(i.HAL_RCCEx_EnablePLLI2S) refers to stm32f4xx_hal.o(i.HAL_GetTick) for HAL_GetTick
    stm32f4xx_hal_rcc_ex.o(i.HAL_RCCEx_EnablePLLSAI) refers to stm32f4xx_hal.o(i.HAL_GetTick) for HAL_GetTick
    stm32f4xx_hal_rcc_ex.o(i.HAL_RCCEx_PeriphCLKConfig) refers to stm32f4xx_hal.o(i.HAL_GetTick) for HAL_GetTick
    stm32f4xx_hal_rcc_ex.o(i.HAL_RCC_DeInit) refers to stm32f4xx_hal.o(i.HAL_GetTick) for HAL_GetTick
    stm32f4xx_hal_rcc_ex.o(i.HAL_RCC_DeInit) refers to stm32f4xx_hal.o(i.HAL_InitTick) for HAL_InitTick
    stm32f4xx_hal_rcc_ex.o(i.HAL_RCC_DeInit) refers to system_stm32f4xx.o(.data) for SystemCoreClock
    stm32f4xx_hal_rcc_ex.o(i.HAL_RCC_DeInit) refers to stm32f4xx_hal.o(.data) for uwTickPrio
    stm32f4xx_hal_flash.o(i.FLASH_SetErrorCode) refers to stm32f4xx_hal_flash.o(.bss) for .bss
    stm32f4xx_hal_flash.o(i.FLASH_WaitForLastOperation) refers to stm32f4xx_hal.o(i.HAL_GetTick) for HAL_GetTick
    stm32f4xx_hal_flash.o(i.FLASH_WaitForLastOperation) refers to stm32f4xx_hal_flash.o(i.FLASH_SetErrorCode) for FLASH_SetErrorCode
    stm32f4xx_hal_flash.o(i.FLASH_WaitForLastOperation) refers to stm32f4xx_hal_flash.o(.bss) for .bss
    stm32f4xx_hal_flash.o(i.HAL_FLASH_GetError) refers to stm32f4xx_hal_flash.o(.bss) for .bss
    stm32f4xx_hal_flash.o(i.HAL_FLASH_IRQHandler) refers to stm32f4xx_hal_flash.o(i.FLASH_SetErrorCode) for FLASH_SetErrorCode
    stm32f4xx_hal_flash.o(i.HAL_FLASH_IRQHandler) refers to stm32f4xx_hal_flash.o(i.HAL_FLASH_OperationErrorCallback) for HAL_FLASH_OperationErrorCallback
    stm32f4xx_hal_flash.o(i.HAL_FLASH_IRQHandler) refers to stm32f4xx_hal_flash.o(i.HAL_FLASH_EndOfOperationCallback) for HAL_FLASH_EndOfOperationCallback
    stm32f4xx_hal_flash.o(i.HAL_FLASH_IRQHandler) refers to stm32f4xx_hal_flash_ex.o(i.FLASH_Erase_Sector) for FLASH_Erase_Sector
    stm32f4xx_hal_flash.o(i.HAL_FLASH_IRQHandler) refers to stm32f4xx_hal_flash_ex.o(i.FLASH_FlushCaches) for FLASH_FlushCaches
    stm32f4xx_hal_flash.o(i.HAL_FLASH_IRQHandler) refers to stm32f4xx_hal_flash.o(.bss) for .bss
    stm32f4xx_hal_flash.o(i.HAL_FLASH_OB_Launch) refers to stm32f4xx_hal_flash.o(i.FLASH_WaitForLastOperation) for FLASH_WaitForLastOperation
    stm32f4xx_hal_flash.o(i.HAL_FLASH_Program) refers to stm32f4xx_hal_flash.o(i.FLASH_WaitForLastOperation) for FLASH_WaitForLastOperation
    stm32f4xx_hal_flash.o(i.HAL_FLASH_Program) refers to stm32f4xx_hal_flash.o(i.FLASH_Program_DoubleWord) for FLASH_Program_DoubleWord
    stm32f4xx_hal_flash.o(i.HAL_FLASH_Program) refers to stm32f4xx_hal_flash.o(i.FLASH_Program_Byte) for FLASH_Program_Byte
    stm32f4xx_hal_flash.o(i.HAL_FLASH_Program) refers to stm32f4xx_hal_flash.o(i.FLASH_Program_HalfWord) for FLASH_Program_HalfWord
    stm32f4xx_hal_flash.o(i.HAL_FLASH_Program) refers to stm32f4xx_hal_flash.o(i.FLASH_Program_Word) for FLASH_Program_Word
    stm32f4xx_hal_flash.o(i.HAL_FLASH_Program) refers to stm32f4xx_hal_flash.o(.bss) for .bss
    stm32f4xx_hal_flash.o(i.HAL_FLASH_Program_IT) refers to stm32f4xx_hal_flash.o(i.FLASH_Program_DoubleWord) for FLASH_Program_DoubleWord
    stm32f4xx_hal_flash.o(i.HAL_FLASH_Program_IT) refers to stm32f4xx_hal_flash.o(i.FLASH_Program_Byte) for FLASH_Program_Byte
    stm32f4xx_hal_flash.o(i.HAL_FLASH_Program_IT) refers to stm32f4xx_hal_flash.o(i.FLASH_Program_HalfWord) for FLASH_Program_HalfWord
    stm32f4xx_hal_flash.o(i.HAL_FLASH_Program_IT) refers to stm32f4xx_hal_flash.o(i.FLASH_Program_Word) for FLASH_Program_Word
    stm32f4xx_hal_flash.o(i.HAL_FLASH_Program_IT) refers to stm32f4xx_hal_flash.o(.bss) for .bss
    stm32f4xx_hal_flash_ex.o(i.FLASH_OB_DisableWRP) refers to stm32f4xx_hal_flash.o(i.FLASH_WaitForLastOperation) for FLASH_WaitForLastOperation
    stm32f4xx_hal_flash_ex.o(i.FLASH_OB_EnableWRP) refers to stm32f4xx_hal_flash.o(i.FLASH_WaitForLastOperation) for FLASH_WaitForLastOperation
    stm32f4xx_hal_flash_ex.o(i.HAL_FLASHEx_AdvOBProgram) refers to stm32f4xx_hal_flash.o(i.FLASH_WaitForLastOperation) for FLASH_WaitForLastOperation
    stm32f4xx_hal_flash_ex.o(i.HAL_FLASHEx_Erase) refers to stm32f4xx_hal_flash.o(i.FLASH_WaitForLastOperation) for FLASH_WaitForLastOperation
    stm32f4xx_hal_flash_ex.o(i.HAL_FLASHEx_Erase) refers to stm32f4xx_hal_flash_ex.o(i.FLASH_MassErase) for FLASH_MassErase
    stm32f4xx_hal_flash_ex.o(i.HAL_FLASHEx_Erase) refers to stm32f4xx_hal_flash_ex.o(i.FLASH_Erase_Sector) for FLASH_Erase_Sector
    stm32f4xx_hal_flash_ex.o(i.HAL_FLASHEx_Erase) refers to stm32f4xx_hal_flash_ex.o(i.FLASH_FlushCaches) for FLASH_FlushCaches
    stm32f4xx_hal_flash_ex.o(i.HAL_FLASHEx_Erase) refers to stm32f4xx_hal_flash.o(.bss) for pFlash
    stm32f4xx_hal_flash_ex.o(i.HAL_FLASHEx_Erase_IT) refers to stm32f4xx_hal_flash_ex.o(i.FLASH_Erase_Sector) for FLASH_Erase_Sector
    stm32f4xx_hal_flash_ex.o(i.HAL_FLASHEx_Erase_IT) refers to stm32f4xx_hal_flash_ex.o(i.FLASH_MassErase) for FLASH_MassErase
    stm32f4xx_hal_flash_ex.o(i.HAL_FLASHEx_Erase_IT) refers to stm32f4xx_hal_flash.o(.bss) for pFlash
    stm32f4xx_hal_flash_ex.o(i.HAL_FLASHEx_OBProgram) refers to stm32f4xx_hal_flash_ex.o(i.FLASH_OB_DisableWRP) for FLASH_OB_DisableWRP
    stm32f4xx_hal_flash_ex.o(i.HAL_FLASHEx_OBProgram) refers to stm32f4xx_hal_flash.o(i.FLASH_WaitForLastOperation) for FLASH_WaitForLastOperation
    stm32f4xx_hal_flash_ex.o(i.HAL_FLASHEx_OBProgram) refers to stm32f4xx_hal_flash_ex.o(i.FLASH_OB_EnableWRP) for FLASH_OB_EnableWRP
    stm32f4xx_hal_flash_ex.o(i.HAL_FLASHEx_OBProgram) refers to stm32f4xx_hal_flash.o(.bss) for pFlash
    stm32f4xx_hal_gpio.o(i.HAL_GPIO_EXTI_IRQHandler) refers to stm32f4xx_hal_gpio.o(i.HAL_GPIO_EXTI_Callback) for HAL_GPIO_EXTI_Callback
    stm32f4xx_hal_dma_ex.o(i.HAL_DMAEx_MultiBufferStart) refers to stm32f4xx_hal_dma_ex.o(i.DMA_MultiBufferSetConfig) for DMA_MultiBufferSetConfig
    stm32f4xx_hal_dma_ex.o(i.HAL_DMAEx_MultiBufferStart_IT) refers to stm32f4xx_hal_dma_ex.o(i.DMA_MultiBufferSetConfig) for DMA_MultiBufferSetConfig
    stm32f4xx_hal_dma.o(i.DMA_CalcBaseAndBitshift) refers to stm32f4xx_hal_dma.o(.constdata) for .constdata
    stm32f4xx_hal_dma.o(i.HAL_DMA_Abort) refers to stm32f4xx_hal.o(i.HAL_GetTick) for HAL_GetTick
    stm32f4xx_hal_dma.o(i.HAL_DMA_DeInit) refers to stm32f4xx_hal_dma.o(i.DMA_CalcBaseAndBitshift) for DMA_CalcBaseAndBitshift
    stm32f4xx_hal_dma.o(i.HAL_DMA_IRQHandler) refers to system_stm32f4xx.o(.data) for SystemCoreClock
    stm32f4xx_hal_dma.o(i.HAL_DMA_Init) refers to stm32f4xx_hal.o(i.HAL_GetTick) for HAL_GetTick
    stm32f4xx_hal_dma.o(i.HAL_DMA_Init) refers to stm32f4xx_hal_dma.o(i.DMA_CheckFifoParam) for DMA_CheckFifoParam
    stm32f4xx_hal_dma.o(i.HAL_DMA_Init) refers to stm32f4xx_hal_dma.o(i.DMA_CalcBaseAndBitshift) for DMA_CalcBaseAndBitshift
    stm32f4xx_hal_dma.o(i.HAL_DMA_PollForTransfer) refers to stm32f4xx_hal.o(i.HAL_GetTick) for HAL_GetTick
    stm32f4xx_hal_dma.o(i.HAL_DMA_PollForTransfer) refers to stm32f4xx_hal_dma.o(i.HAL_DMA_Abort) for HAL_DMA_Abort
    stm32f4xx_hal_dma.o(i.HAL_DMA_Start) refers to stm32f4xx_hal_dma.o(i.DMA_SetConfig) for DMA_SetConfig
    stm32f4xx_hal_dma.o(i.HAL_DMA_Start_IT) refers to stm32f4xx_hal_dma.o(i.DMA_SetConfig) for DMA_SetConfig
    stm32f4xx_hal_pwr.o(i.HAL_PWR_PVD_IRQHandler) refers to stm32f4xx_hal_pwr.o(i.HAL_PWR_PVDCallback) for HAL_PWR_PVDCallback
    stm32f4xx_hal_pwr_ex.o(i.HAL_PWREx_ControlVoltageScaling) refers to stm32f4xx_hal.o(i.HAL_GetTick) for HAL_GetTick
    stm32f4xx_hal_pwr_ex.o(i.HAL_PWREx_DisableBkUpReg) refers to stm32f4xx_hal.o(i.HAL_GetTick) for HAL_GetTick
    stm32f4xx_hal_pwr_ex.o(i.HAL_PWREx_DisableOverDrive) refers to stm32f4xx_hal.o(i.HAL_GetTick) for HAL_GetTick
    stm32f4xx_hal_pwr_ex.o(i.HAL_PWREx_EnableBkUpReg) refers to stm32f4xx_hal.o(i.HAL_GetTick) for HAL_GetTick
    stm32f4xx_hal_pwr_ex.o(i.HAL_PWREx_EnableOverDrive) refers to stm32f4xx_hal.o(i.HAL_GetTick) for HAL_GetTick
    stm32f4xx_hal_cortex.o(i.HAL_NVIC_SetPriority) refers to stm32f4xx_hal_cortex.o(i.__NVIC_SetPriority) for __NVIC_SetPriority
    stm32f4xx_hal_cortex.o(i.HAL_SYSTICK_Config) refers to stm32f4xx_hal_cortex.o(i.__NVIC_SetPriority) for __NVIC_SetPriority
    stm32f4xx_hal_cortex.o(i.HAL_SYSTICK_IRQHandler) refers to stm32f4xx_hal_cortex.o(i.HAL_SYSTICK_Callback) for HAL_SYSTICK_Callback
    stm32f4xx_hal.o(i.HAL_DeInit) refers to stm32f4xx_hal.o(i.HAL_MspDeInit) for HAL_MspDeInit
    stm32f4xx_hal.o(i.HAL_Delay) refers to stm32f4xx_hal.o(i.HAL_GetTick) for HAL_GetTick
    stm32f4xx_hal.o(i.HAL_Delay) refers to stm32f4xx_hal.o(.data) for .data
    stm32f4xx_hal.o(i.HAL_GetTick) refers to stm32f4xx_hal.o(.data) for .data
    stm32f4xx_hal.o(i.HAL_GetTickFreq) refers to stm32f4xx_hal.o(.data) for .data
    stm32f4xx_hal.o(i.HAL_GetTickPrio) refers to stm32f4xx_hal.o(.data) for .data
    stm32f4xx_hal.o(i.HAL_IncTick) refers to stm32f4xx_hal.o(.data) for .data
    stm32f4xx_hal.o(i.HAL_Init) refers to stm32f4xx_hal_cortex.o(i.HAL_NVIC_SetPriorityGrouping) for HAL_NVIC_SetPriorityGrouping
    stm32f4xx_hal.o(i.HAL_Init) refers to stm32f4xx_hal.o(i.HAL_InitTick) for HAL_InitTick
    stm32f4xx_hal.o(i.HAL_Init) refers to stm32f4xx_hal_msp.o(i.HAL_MspInit) for HAL_MspInit
    stm32f4xx_hal.o(i.HAL_InitTick) refers to stm32f4xx_hal_cortex.o(i.HAL_SYSTICK_Config) for HAL_SYSTICK_Config
    stm32f4xx_hal.o(i.HAL_InitTick) refers to stm32f4xx_hal_cortex.o(i.HAL_NVIC_SetPriority) for HAL_NVIC_SetPriority
    stm32f4xx_hal.o(i.HAL_InitTick) refers to stm32f4xx_hal.o(.data) for .data
    stm32f4xx_hal.o(i.HAL_InitTick) refers to system_stm32f4xx.o(.data) for SystemCoreClock
    stm32f4xx_hal.o(i.HAL_SetTickFreq) refers to stm32f4xx_hal.o(i.HAL_InitTick) for HAL_InitTick
    stm32f4xx_hal.o(i.HAL_SetTickFreq) refers to stm32f4xx_hal.o(.data) for .data
    stm32f4xx_ll_rcc.o(i.LL_RCC_DeInit) refers to stm32f4xx_ll_rcc.o(i.LL_RCC_PLL_IsReady) for LL_RCC_PLL_IsReady
    stm32f4xx_ll_rcc.o(i.LL_RCC_GetI2SClockFreq) refers to stm32f4xx_ll_rcc.o(i.RCC_PLLI2S_GetFreqDomain_I2S) for RCC_PLLI2S_GetFreqDomain_I2S
    stm32f4xx_ll_rcc.o(i.LL_RCC_GetLTDCClockFreq) refers to stm32f4xx_ll_rcc.o(i.RCC_PLLSAI_GetFreqDomain_LTDC) for RCC_PLLSAI_GetFreqDomain_LTDC
    stm32f4xx_ll_rcc.o(i.LL_RCC_GetRNGClockFreq) refers to stm32f4xx_ll_rcc.o(i.LL_RCC_PLL_IsReady) for LL_RCC_PLL_IsReady
    stm32f4xx_ll_rcc.o(i.LL_RCC_GetRNGClockFreq) refers to stm32f4xx_ll_rcc.o(i.RCC_PLL_GetFreqDomain_48M) for RCC_PLL_GetFreqDomain_48M
    stm32f4xx_ll_rcc.o(i.LL_RCC_GetSAIClockFreq) refers to stm32f4xx_ll_rcc.o(i.RCC_PLLSAI_GetFreqDomain_SAI) for RCC_PLLSAI_GetFreqDomain_SAI
    stm32f4xx_ll_rcc.o(i.LL_RCC_GetSAIClockFreq) refers to stm32f4xx_ll_rcc.o(i.RCC_PLLI2S_GetFreqDomain_SAI) for RCC_PLLI2S_GetFreqDomain_SAI
    stm32f4xx_ll_rcc.o(i.LL_RCC_GetSDIOClockFreq) refers to stm32f4xx_ll_rcc.o(i.LL_RCC_PLL_IsReady) for LL_RCC_PLL_IsReady
    stm32f4xx_ll_rcc.o(i.LL_RCC_GetSDIOClockFreq) refers to stm32f4xx_ll_rcc.o(i.RCC_PLL_GetFreqDomain_48M) for RCC_PLL_GetFreqDomain_48M
    stm32f4xx_ll_rcc.o(i.LL_RCC_GetSystemClocksFreq) refers to stm32f4xx_ll_rcc.o(i.RCC_GetSystemClockFreq) for RCC_GetSystemClockFreq
    stm32f4xx_ll_rcc.o(i.LL_RCC_GetSystemClocksFreq) refers to stm32f4xx_ll_rcc.o(i.RCC_GetHCLKClockFreq) for RCC_GetHCLKClockFreq
    stm32f4xx_ll_rcc.o(i.LL_RCC_GetSystemClocksFreq) refers to stm32f4xx_ll_rcc.o(i.RCC_GetPCLK1ClockFreq) for RCC_GetPCLK1ClockFreq
    stm32f4xx_ll_rcc.o(i.LL_RCC_GetSystemClocksFreq) refers to stm32f4xx_ll_rcc.o(i.RCC_GetPCLK2ClockFreq) for RCC_GetPCLK2ClockFreq
    stm32f4xx_ll_rcc.o(i.LL_RCC_GetUSBClockFreq) refers to stm32f4xx_ll_rcc.o(i.LL_RCC_PLL_IsReady) for LL_RCC_PLL_IsReady
    stm32f4xx_ll_rcc.o(i.LL_RCC_GetUSBClockFreq) refers to stm32f4xx_ll_rcc.o(i.RCC_PLL_GetFreqDomain_48M) for RCC_PLL_GetFreqDomain_48M
    stm32f4xx_ll_rcc.o(i.RCC_GetHCLKClockFreq) refers to system_stm32f4xx.o(.constdata) for AHBPrescTable
    stm32f4xx_ll_rcc.o(i.RCC_GetPCLK1ClockFreq) refers to system_stm32f4xx.o(.constdata) for APBPrescTable
    stm32f4xx_ll_rcc.o(i.RCC_GetPCLK2ClockFreq) refers to system_stm32f4xx.o(.constdata) for APBPrescTable
    stm32f4xx_ll_rcc.o(i.RCC_GetSystemClockFreq) refers to stm32f4xx_ll_rcc.o(i.RCC_PLL_GetFreqDomain_SYS) for RCC_PLL_GetFreqDomain_SYS
    stm32f4xx_ll_rcc.o(i.RCC_PLLSAI_GetFreqDomain_LTDC) refers to stm32f4xx_ll_rcc.o(i.LL_RCC_PLL_GetMainSource) for LL_RCC_PLL_GetMainSource
    stm32f4xx_ll_rcc.o(i.RCC_PLLSAI_GetFreqDomain_LTDC) refers to stm32f4xx_ll_rcc.o(.constdata) for .constdata
    stm32f4xx_ll_rcc.o(i.RCC_PLLSAI_GetFreqDomain_SAI) refers to stm32f4xx_ll_rcc.o(i.LL_RCC_PLL_GetMainSource) for LL_RCC_PLL_GetMainSource
    stm32f4xx_ll_rcc.o(i.RCC_PLL_GetFreqDomain_48M) refers to stm32f4xx_ll_rcc.o(i.LL_RCC_PLL_GetMainSource) for LL_RCC_PLL_GetMainSource
    stm32f4xx_ll_rcc.o(i.RCC_PLL_GetFreqDomain_SYS) refers to stm32f4xx_ll_rcc.o(i.LL_RCC_PLL_GetMainSource) for LL_RCC_PLL_GetMainSource
    stm32f4xx_ll_utils.o(i.LL_PLL_ConfigSystemClock_HSE) refers to stm32f4xx_ll_utils.o(i.UTILS_PLL_IsBusy) for UTILS_PLL_IsBusy
    stm32f4xx_ll_utils.o(i.LL_PLL_ConfigSystemClock_HSE) refers to stm32f4xx_ll_utils.o(i.UTILS_GetPLLOutputFrequency) for UTILS_GetPLLOutputFrequency
    stm32f4xx_ll_utils.o(i.LL_PLL_ConfigSystemClock_HSE) refers to stm32f4xx_ll_utils.o(i.LL_RCC_PLL_ConfigDomain_SYS) for LL_RCC_PLL_ConfigDomain_SYS
    stm32f4xx_ll_utils.o(i.LL_PLL_ConfigSystemClock_HSE) refers to stm32f4xx_ll_utils.o(i.UTILS_EnablePLLAndSwitchSystem) for UTILS_EnablePLLAndSwitchSystem
    stm32f4xx_ll_utils.o(i.LL_PLL_ConfigSystemClock_HSI) refers to stm32f4xx_ll_utils.o(i.UTILS_PLL_IsBusy) for UTILS_PLL_IsBusy
    stm32f4xx_ll_utils.o(i.LL_PLL_ConfigSystemClock_HSI) refers to stm32f4xx_ll_utils.o(i.UTILS_GetPLLOutputFrequency) for UTILS_GetPLLOutputFrequency
    stm32f4xx_ll_utils.o(i.LL_PLL_ConfigSystemClock_HSI) refers to stm32f4xx_ll_utils.o(i.LL_RCC_PLL_ConfigDomain_SYS) for LL_RCC_PLL_ConfigDomain_SYS
    stm32f4xx_ll_utils.o(i.LL_PLL_ConfigSystemClock_HSI) refers to stm32f4xx_ll_utils.o(i.UTILS_EnablePLLAndSwitchSystem) for UTILS_EnablePLLAndSwitchSystem
    stm32f4xx_ll_utils.o(i.LL_SetSystemCoreClock) refers to system_stm32f4xx.o(.data) for SystemCoreClock
    stm32f4xx_ll_utils.o(i.UTILS_EnablePLLAndSwitchSystem) refers to stm32f4xx_ll_utils.o(i.UTILS_SetFlashLatency) for UTILS_SetFlashLatency
    stm32f4xx_ll_utils.o(i.UTILS_EnablePLLAndSwitchSystem) refers to system_stm32f4xx.o(.constdata) for AHBPrescTable
    stm32f4xx_ll_utils.o(i.UTILS_EnablePLLAndSwitchSystem) refers to system_stm32f4xx.o(.data) for SystemCoreClock
    stm32f4xx_hal_i2c.o(i.HAL_I2C_DeInit) refers to stm32f4xx_hal_msp.o(i.HAL_I2C_MspDeInit) for HAL_I2C_MspDeInit
    stm32f4xx_hal_i2c.o(i.HAL_I2C_ER_IRQHandler) refers to stm32f4xx_hal_i2c.o(i.I2C_Slave_AF) for I2C_Slave_AF
    stm32f4xx_hal_i2c.o(i.HAL_I2C_ER_IRQHandler) refers to stm32f4xx_hal_i2c.o(i.I2C_ITError) for I2C_ITError
    stm32f4xx_hal_i2c.o(i.HAL_I2C_EV_IRQHandler) refers to stm32f4xx_hal_i2c.o(i.I2C_Master_SB) for I2C_Master_SB
    stm32f4xx_hal_i2c.o(i.HAL_I2C_EV_IRQHandler) refers to stm32f4xx_hal_i2c.o(i.I2C_Master_ADDR) for I2C_Master_ADDR
    stm32f4xx_hal_i2c.o(i.HAL_I2C_EV_IRQHandler) refers to stm32f4xx_hal_i2c.o(i.I2C_MasterTransmit_TXE) for I2C_MasterTransmit_TXE
    stm32f4xx_hal_i2c.o(i.HAL_I2C_EV_IRQHandler) refers to stm32f4xx_hal_i2c.o(i.I2C_MemoryTransmit_TXE_BTF) for I2C_MemoryTransmit_TXE_BTF
    stm32f4xx_hal_i2c.o(i.HAL_I2C_EV_IRQHandler) refers to stm32f4xx_hal_i2c.o(i.I2C_MasterTransmit_BTF) for I2C_MasterTransmit_BTF
    stm32f4xx_hal_i2c.o(i.HAL_I2C_EV_IRQHandler) refers to stm32f4xx_hal_i2c.o(i.I2C_MasterReceive_RXNE) for I2C_MasterReceive_RXNE
    stm32f4xx_hal_i2c.o(i.HAL_I2C_EV_IRQHandler) refers to stm32f4xx_hal_i2c.o(i.I2C_MasterReceive_BTF) for I2C_MasterReceive_BTF
    stm32f4xx_hal_i2c.o(i.HAL_I2C_EV_IRQHandler) refers to stm32f4xx_hal_i2c.o(i.HAL_I2C_AddrCallback) for HAL_I2C_AddrCallback
    stm32f4xx_hal_i2c.o(i.HAL_I2C_EV_IRQHandler) refers to stm32f4xx_hal_i2c.o(i.I2C_Slave_STOPF) for I2C_Slave_STOPF
    stm32f4xx_hal_i2c.o(i.HAL_I2C_EV_IRQHandler) refers to stm32f4xx_hal_i2c.o(i.HAL_I2C_SlaveRxCpltCallback) for HAL_I2C_SlaveRxCpltCallback
    stm32f4xx_hal_i2c.o(i.HAL_I2C_EV_IRQHandler) refers to stm32f4xx_hal_i2c.o(i.HAL_I2C_SlaveTxCpltCallback) for HAL_I2C_SlaveTxCpltCallback
    stm32f4xx_hal_i2c.o(i.HAL_I2C_Init) refers to stm32f4xx_hal_msp.o(i.HAL_I2C_MspInit) for HAL_I2C_MspInit
    stm32f4xx_hal_i2c.o(i.HAL_I2C_Init) refers to stm32f4xx_hal_rcc.o(i.HAL_RCC_GetPCLK1Freq) for HAL_RCC_GetPCLK1Freq
    stm32f4xx_hal_i2c.o(i.HAL_I2C_IsDeviceReady) refers to stm32f4xx_hal.o(i.HAL_GetTick) for HAL_GetTick
    stm32f4xx_hal_i2c.o(i.HAL_I2C_IsDeviceReady) refers to stm32f4xx_hal_i2c.o(i.I2C_WaitOnFlagUntilTimeout) for I2C_WaitOnFlagUntilTimeout
    stm32f4xx_hal_i2c.o(i.HAL_I2C_Master_Abort_IT) refers to stm32f4xx_hal_i2c.o(i.I2C_ITError) for I2C_ITError
    stm32f4xx_hal_i2c.o(i.HAL_I2C_Master_Receive) refers to stm32f4xx_hal.o(i.HAL_GetTick) for HAL_GetTick
    stm32f4xx_hal_i2c.o(i.HAL_I2C_Master_Receive) refers to stm32f4xx_hal_i2c.o(i.I2C_WaitOnFlagUntilTimeout) for I2C_WaitOnFlagUntilTimeout
    stm32f4xx_hal_i2c.o(i.HAL_I2C_Master_Receive) refers to stm32f4xx_hal_i2c.o(i.I2C_MasterRequestRead) for I2C_MasterRequestRead
    stm32f4xx_hal_i2c.o(i.HAL_I2C_Master_Receive) refers to stm32f4xx_hal_i2c.o(i.I2C_WaitOnRXNEFlagUntilTimeout) for I2C_WaitOnRXNEFlagUntilTimeout
    stm32f4xx_hal_i2c.o(i.HAL_I2C_Master_Receive_DMA) refers to stm32f4xx_hal_dma.o(i.HAL_DMA_Start_IT) for HAL_DMA_Start_IT
    stm32f4xx_hal_i2c.o(i.HAL_I2C_Master_Receive_DMA) refers to system_stm32f4xx.o(.data) for SystemCoreClock
    stm32f4xx_hal_i2c.o(i.HAL_I2C_Master_Receive_DMA) refers to stm32f4xx_hal_i2c.o(i.I2C_DMAXferCplt) for I2C_DMAXferCplt
    stm32f4xx_hal_i2c.o(i.HAL_I2C_Master_Receive_DMA) refers to stm32f4xx_hal_i2c.o(i.I2C_DMAError) for I2C_DMAError
    stm32f4xx_hal_i2c.o(i.HAL_I2C_Master_Receive_IT) refers to system_stm32f4xx.o(.data) for SystemCoreClock
    stm32f4xx_hal_i2c.o(i.HAL_I2C_Master_Seq_Receive_DMA) refers to stm32f4xx_hal_dma.o(i.HAL_DMA_Start_IT) for HAL_DMA_Start_IT
    stm32f4xx_hal_i2c.o(i.HAL_I2C_Master_Seq_Receive_DMA) refers to system_stm32f4xx.o(.data) for SystemCoreClock
    stm32f4xx_hal_i2c.o(i.HAL_I2C_Master_Seq_Receive_DMA) refers to stm32f4xx_hal_i2c.o(i.I2C_DMAXferCplt) for I2C_DMAXferCplt
    stm32f4xx_hal_i2c.o(i.HAL_I2C_Master_Seq_Receive_DMA) refers to stm32f4xx_hal_i2c.o(i.I2C_DMAError) for I2C_DMAError
    stm32f4xx_hal_i2c.o(i.HAL_I2C_Master_Seq_Receive_IT) refers to system_stm32f4xx.o(.data) for SystemCoreClock
    stm32f4xx_hal_i2c.o(i.HAL_I2C_Master_Seq_Transmit_DMA) refers to stm32f4xx_hal_dma.o(i.HAL_DMA_Start_IT) for HAL_DMA_Start_IT
    stm32f4xx_hal_i2c.o(i.HAL_I2C_Master_Seq_Transmit_DMA) refers to system_stm32f4xx.o(.data) for SystemCoreClock
    stm32f4xx_hal_i2c.o(i.HAL_I2C_Master_Seq_Transmit_DMA) refers to stm32f4xx_hal_i2c.o(i.I2C_DMAXferCplt) for I2C_DMAXferCplt
    stm32f4xx_hal_i2c.o(i.HAL_I2C_Master_Seq_Transmit_DMA) refers to stm32f4xx_hal_i2c.o(i.I2C_DMAError) for I2C_DMAError
    stm32f4xx_hal_i2c.o(i.HAL_I2C_Master_Seq_Transmit_IT) refers to system_stm32f4xx.o(.data) for SystemCoreClock
    stm32f4xx_hal_i2c.o(i.HAL_I2C_Master_Transmit) refers to stm32f4xx_hal.o(i.HAL_GetTick) for HAL_GetTick
    stm32f4xx_hal_i2c.o(i.HAL_I2C_Master_Transmit) refers to stm32f4xx_hal_i2c.o(i.I2C_WaitOnFlagUntilTimeout) for I2C_WaitOnFlagUntilTimeout
    stm32f4xx_hal_i2c.o(i.HAL_I2C_Master_Transmit) refers to stm32f4xx_hal_i2c.o(i.I2C_MasterRequestWrite) for I2C_MasterRequestWrite
    stm32f4xx_hal_i2c.o(i.HAL_I2C_Master_Transmit) refers to stm32f4xx_hal_i2c.o(i.I2C_WaitOnTXEFlagUntilTimeout) for I2C_WaitOnTXEFlagUntilTimeout
    stm32f4xx_hal_i2c.o(i.HAL_I2C_Master_Transmit) refers to stm32f4xx_hal_i2c.o(i.I2C_WaitOnBTFFlagUntilTimeout) for I2C_WaitOnBTFFlagUntilTimeout
    stm32f4xx_hal_i2c.o(i.HAL_I2C_Master_Transmit_DMA) refers to stm32f4xx_hal_dma.o(i.HAL_DMA_Start_IT) for HAL_DMA_Start_IT
    stm32f4xx_hal_i2c.o(i.HAL_I2C_Master_Transmit_DMA) refers to system_stm32f4xx.o(.data) for SystemCoreClock
    stm32f4xx_hal_i2c.o(i.HAL_I2C_Master_Transmit_DMA) refers to stm32f4xx_hal_i2c.o(i.I2C_DMAXferCplt) for I2C_DMAXferCplt
    stm32f4xx_hal_i2c.o(i.HAL_I2C_Master_Transmit_DMA) refers to stm32f4xx_hal_i2c.o(i.I2C_DMAError) for I2C_DMAError
    stm32f4xx_hal_i2c.o(i.HAL_I2C_Master_Transmit_IT) refers to system_stm32f4xx.o(.data) for SystemCoreClock
    stm32f4xx_hal_i2c.o(i.HAL_I2C_Mem_Read) refers to stm32f4xx_hal.o(i.HAL_GetTick) for HAL_GetTick
    stm32f4xx_hal_i2c.o(i.HAL_I2C_Mem_Read) refers to stm32f4xx_hal_i2c.o(i.I2C_WaitOnFlagUntilTimeout) for I2C_WaitOnFlagUntilTimeout
    stm32f4xx_hal_i2c.o(i.HAL_I2C_Mem_Read) refers to stm32f4xx_hal_i2c.o(i.I2C_RequestMemoryRead) for I2C_RequestMemoryRead
    stm32f4xx_hal_i2c.o(i.HAL_I2C_Mem_Read) refers to stm32f4xx_hal_i2c.o(i.I2C_WaitOnRXNEFlagUntilTimeout) for I2C_WaitOnRXNEFlagUntilTimeout
    stm32f4xx_hal_i2c.o(i.HAL_I2C_Mem_Read_DMA) refers to stm32f4xx_hal.o(i.HAL_GetTick) for HAL_GetTick
    stm32f4xx_hal_i2c.o(i.HAL_I2C_Mem_Read_DMA) refers to stm32f4xx_hal_dma.o(i.HAL_DMA_Start_IT) for HAL_DMA_Start_IT
    stm32f4xx_hal_i2c.o(i.HAL_I2C_Mem_Read_DMA) refers to stm32f4xx_hal_i2c.o(i.I2C_RequestMemoryRead) for I2C_RequestMemoryRead
    stm32f4xx_hal_i2c.o(i.HAL_I2C_Mem_Read_DMA) refers to stm32f4xx_hal_dma.o(i.HAL_DMA_Abort_IT) for HAL_DMA_Abort_IT
    stm32f4xx_hal_i2c.o(i.HAL_I2C_Mem_Read_DMA) refers to system_stm32f4xx.o(.data) for SystemCoreClock
    stm32f4xx_hal_i2c.o(i.HAL_I2C_Mem_Read_DMA) refers to stm32f4xx_hal_i2c.o(i.I2C_DMAXferCplt) for I2C_DMAXferCplt
    stm32f4xx_hal_i2c.o(i.HAL_I2C_Mem_Read_DMA) refers to stm32f4xx_hal_i2c.o(i.I2C_DMAError) for I2C_DMAError
    stm32f4xx_hal_i2c.o(i.HAL_I2C_Mem_Read_IT) refers to system_stm32f4xx.o(.data) for SystemCoreClock
    stm32f4xx_hal_i2c.o(i.HAL_I2C_Mem_Write) refers to stm32f4xx_hal.o(i.HAL_GetTick) for HAL_GetTick
    stm32f4xx_hal_i2c.o(i.HAL_I2C_Mem_Write) refers to stm32f4xx_hal_i2c.o(i.I2C_WaitOnFlagUntilTimeout) for I2C_WaitOnFlagUntilTimeout
    stm32f4xx_hal_i2c.o(i.HAL_I2C_Mem_Write) refers to stm32f4xx_hal_i2c.o(i.I2C_RequestMemoryWrite) for I2C_RequestMemoryWrite
    stm32f4xx_hal_i2c.o(i.HAL_I2C_Mem_Write) refers to stm32f4xx_hal_i2c.o(i.I2C_WaitOnTXEFlagUntilTimeout) for I2C_WaitOnTXEFlagUntilTimeout
    stm32f4xx_hal_i2c.o(i.HAL_I2C_Mem_Write) refers to stm32f4xx_hal_i2c.o(i.I2C_WaitOnBTFFlagUntilTimeout) for I2C_WaitOnBTFFlagUntilTimeout
    stm32f4xx_hal_i2c.o(i.HAL_I2C_Mem_Write_DMA) refers to stm32f4xx_hal.o(i.HAL_GetTick) for HAL_GetTick
    stm32f4xx_hal_i2c.o(i.HAL_I2C_Mem_Write_DMA) refers to stm32f4xx_hal_dma.o(i.HAL_DMA_Start_IT) for HAL_DMA_Start_IT
    stm32f4xx_hal_i2c.o(i.HAL_I2C_Mem_Write_DMA) refers to stm32f4xx_hal_i2c.o(i.I2C_RequestMemoryWrite) for I2C_RequestMemoryWrite
    stm32f4xx_hal_i2c.o(i.HAL_I2C_Mem_Write_DMA) refers to stm32f4xx_hal_dma.o(i.HAL_DMA_Abort_IT) for HAL_DMA_Abort_IT
    stm32f4xx_hal_i2c.o(i.HAL_I2C_Mem_Write_DMA) refers to system_stm32f4xx.o(.data) for SystemCoreClock
    stm32f4xx_hal_i2c.o(i.HAL_I2C_Mem_Write_DMA) refers to stm32f4xx_hal_i2c.o(i.I2C_DMAXferCplt) for I2C_DMAXferCplt
    stm32f4xx_hal_i2c.o(i.HAL_I2C_Mem_Write_DMA) refers to stm32f4xx_hal_i2c.o(i.I2C_DMAError) for I2C_DMAError
    stm32f4xx_hal_i2c.o(i.HAL_I2C_Mem_Write_IT) refers to system_stm32f4xx.o(.data) for SystemCoreClock
    stm32f4xx_hal_i2c.o(i.HAL_I2C_Slave_Receive) refers to stm32f4xx_hal.o(i.HAL_GetTick) for HAL_GetTick
    stm32f4xx_hal_i2c.o(i.HAL_I2C_Slave_Receive) refers to stm32f4xx_hal_i2c.o(i.I2C_WaitOnFlagUntilTimeout) for I2C_WaitOnFlagUntilTimeout
    stm32f4xx_hal_i2c.o(i.HAL_I2C_Slave_Receive) refers to stm32f4xx_hal_i2c.o(i.I2C_WaitOnRXNEFlagUntilTimeout) for I2C_WaitOnRXNEFlagUntilTimeout
    stm32f4xx_hal_i2c.o(i.HAL_I2C_Slave_Receive) refers to stm32f4xx_hal_i2c.o(i.I2C_IsAcknowledgeFailed) for I2C_IsAcknowledgeFailed
    stm32f4xx_hal_i2c.o(i.HAL_I2C_Slave_Receive_DMA) refers to stm32f4xx_hal_dma.o(i.HAL_DMA_Start_IT) for HAL_DMA_Start_IT
    stm32f4xx_hal_i2c.o(i.HAL_I2C_Slave_Receive_DMA) refers to stm32f4xx_hal_i2c.o(i.I2C_DMAXferCplt) for I2C_DMAXferCplt
    stm32f4xx_hal_i2c.o(i.HAL_I2C_Slave_Receive_DMA) refers to stm32f4xx_hal_i2c.o(i.I2C_DMAError) for I2C_DMAError
    stm32f4xx_hal_i2c.o(i.HAL_I2C_Slave_Seq_Receive_DMA) refers to stm32f4xx_hal_dma.o(i.HAL_DMA_Abort_IT) for HAL_DMA_Abort_IT
    stm32f4xx_hal_i2c.o(i.HAL_I2C_Slave_Seq_Receive_DMA) refers to stm32f4xx_hal_dma.o(i.HAL_DMA_Start_IT) for HAL_DMA_Start_IT
    stm32f4xx_hal_i2c.o(i.HAL_I2C_Slave_Seq_Receive_DMA) refers to stm32f4xx_hal_i2c.o(i.I2C_DMAAbort) for I2C_DMAAbort
    stm32f4xx_hal_i2c.o(i.HAL_I2C_Slave_Seq_Receive_DMA) refers to stm32f4xx_hal_i2c.o(i.I2C_DMAXferCplt) for I2C_DMAXferCplt
    stm32f4xx_hal_i2c.o(i.HAL_I2C_Slave_Seq_Receive_DMA) refers to stm32f4xx_hal_i2c.o(i.I2C_DMAError) for I2C_DMAError
    stm32f4xx_hal_i2c.o(i.HAL_I2C_Slave_Seq_Transmit_DMA) refers to stm32f4xx_hal_dma.o(i.HAL_DMA_Abort_IT) for HAL_DMA_Abort_IT
    stm32f4xx_hal_i2c.o(i.HAL_I2C_Slave_Seq_Transmit_DMA) refers to stm32f4xx_hal_dma.o(i.HAL_DMA_Start_IT) for HAL_DMA_Start_IT
    stm32f4xx_hal_i2c.o(i.HAL_I2C_Slave_Seq_Transmit_DMA) refers to stm32f4xx_hal_i2c.o(i.I2C_DMAAbort) for I2C_DMAAbort
    stm32f4xx_hal_i2c.o(i.HAL_I2C_Slave_Seq_Transmit_DMA) refers to stm32f4xx_hal_i2c.o(i.I2C_DMAXferCplt) for I2C_DMAXferCplt
    stm32f4xx_hal_i2c.o(i.HAL_I2C_Slave_Seq_Transmit_DMA) refers to stm32f4xx_hal_i2c.o(i.I2C_DMAError) for I2C_DMAError
    stm32f4xx_hal_i2c.o(i.HAL_I2C_Slave_Transmit) refers to stm32f4xx_hal.o(i.HAL_GetTick) for HAL_GetTick
    stm32f4xx_hal_i2c.o(i.HAL_I2C_Slave_Transmit) refers to stm32f4xx_hal_i2c.o(i.I2C_WaitOnFlagUntilTimeout) for I2C_WaitOnFlagUntilTimeout
    stm32f4xx_hal_i2c.o(i.HAL_I2C_Slave_Transmit) refers to stm32f4xx_hal_i2c.o(i.I2C_WaitOnTXEFlagUntilTimeout) for I2C_WaitOnTXEFlagUntilTimeout
    stm32f4xx_hal_i2c.o(i.HAL_I2C_Slave_Transmit_DMA) refers to stm32f4xx_hal_dma.o(i.HAL_DMA_Start_IT) for HAL_DMA_Start_IT
    stm32f4xx_hal_i2c.o(i.HAL_I2C_Slave_Transmit_DMA) refers to stm32f4xx_hal_i2c.o(i.I2C_DMAXferCplt) for I2C_DMAXferCplt
    stm32f4xx_hal_i2c.o(i.HAL_I2C_Slave_Transmit_DMA) refers to stm32f4xx_hal_i2c.o(i.I2C_DMAError) for I2C_DMAError
    stm32f4xx_hal_i2c.o(i.I2C_DMAAbort) refers to stm32f4xx_hal_i2c.o(i.HAL_I2C_ErrorCallback) for HAL_I2C_ErrorCallback
    stm32f4xx_hal_i2c.o(i.I2C_DMAAbort) refers to stm32f4xx_hal_i2c.o(i.HAL_I2C_AbortCpltCallback) for HAL_I2C_AbortCpltCallback
    stm32f4xx_hal_i2c.o(i.I2C_DMAAbort) refers to system_stm32f4xx.o(.data) for SystemCoreClock
    stm32f4xx_hal_i2c.o(i.I2C_DMAError) refers to stm32f4xx_hal_dma.o(i.HAL_DMA_GetError) for HAL_DMA_GetError
    stm32f4xx_hal_i2c.o(i.I2C_DMAError) refers to stm32f4xx_hal_i2c.o(i.HAL_I2C_ErrorCallback) for HAL_I2C_ErrorCallback
    stm32f4xx_hal_i2c.o(i.I2C_DMAXferCplt) refers to stm32f4xx_hal_i2c.o(i.HAL_I2C_SlaveTxCpltCallback) for HAL_I2C_SlaveTxCpltCallback
    stm32f4xx_hal_i2c.o(i.I2C_DMAXferCplt) refers to stm32f4xx_hal_i2c.o(i.HAL_I2C_SlaveRxCpltCallback) for HAL_I2C_SlaveRxCpltCallback
    stm32f4xx_hal_i2c.o(i.I2C_DMAXferCplt) refers to stm32f4xx_hal_i2c.o(i.HAL_I2C_ErrorCallback) for HAL_I2C_ErrorCallback
    stm32f4xx_hal_i2c.o(i.I2C_DMAXferCplt) refers to stm32f4xx_hal_i2c.o(i.HAL_I2C_MasterRxCpltCallback) for HAL_I2C_MasterRxCpltCallback
    stm32f4xx_hal_i2c.o(i.I2C_DMAXferCplt) refers to stm32f4xx_hal_i2c.o(i.HAL_I2C_MemRxCpltCallback) for HAL_I2C_MemRxCpltCallback
    stm32f4xx_hal_i2c.o(i.I2C_ITError) refers to stm32f4xx_hal_dma.o(i.HAL_DMA_Abort_IT) for HAL_DMA_Abort_IT
    stm32f4xx_hal_i2c.o(i.I2C_ITError) refers to stm32f4xx_hal_i2c.o(i.HAL_I2C_ErrorCallback) for HAL_I2C_ErrorCallback
    stm32f4xx_hal_i2c.o(i.I2C_ITError) refers to stm32f4xx_hal_i2c.o(i.HAL_I2C_AbortCpltCallback) for HAL_I2C_AbortCpltCallback
    stm32f4xx_hal_i2c.o(i.I2C_ITError) refers to stm32f4xx_hal_i2c.o(i.HAL_I2C_ListenCpltCallback) for HAL_I2C_ListenCpltCallback
    stm32f4xx_hal_i2c.o(i.I2C_ITError) refers to stm32f4xx_hal_i2c.o(i.I2C_DMAAbort) for I2C_DMAAbort
    stm32f4xx_hal_i2c.o(i.I2C_MasterReceive_BTF) refers to stm32f4xx_hal_i2c.o(i.HAL_I2C_MasterRxCpltCallback) for HAL_I2C_MasterRxCpltCallback
    stm32f4xx_hal_i2c.o(i.I2C_MasterReceive_BTF) refers to stm32f4xx_hal_i2c.o(i.HAL_I2C_MemRxCpltCallback) for HAL_I2C_MemRxCpltCallback
    stm32f4xx_hal_i2c.o(i.I2C_MasterReceive_RXNE) refers to stm32f4xx_hal_i2c.o(i.HAL_I2C_MasterRxCpltCallback) for HAL_I2C_MasterRxCpltCallback
    stm32f4xx_hal_i2c.o(i.I2C_MasterReceive_RXNE) refers to stm32f4xx_hal_i2c.o(i.HAL_I2C_ErrorCallback) for HAL_I2C_ErrorCallback
    stm32f4xx_hal_i2c.o(i.I2C_MasterReceive_RXNE) refers to stm32f4xx_hal_i2c.o(i.HAL_I2C_MemRxCpltCallback) for HAL_I2C_MemRxCpltCallback
    stm32f4xx_hal_i2c.o(i.I2C_MasterReceive_RXNE) refers to system_stm32f4xx.o(.data) for SystemCoreClock
    stm32f4xx_hal_i2c.o(i.I2C_MasterRequestRead) refers to stm32f4xx_hal_i2c.o(i.I2C_WaitOnFlagUntilTimeout) for I2C_WaitOnFlagUntilTimeout
    stm32f4xx_hal_i2c.o(i.I2C_MasterRequestRead) refers to stm32f4xx_hal_i2c.o(i.I2C_WaitOnMasterAddressFlagUntilTimeout) for I2C_WaitOnMasterAddressFlagUntilTimeout
    stm32f4xx_hal_i2c.o(i.I2C_MasterRequestWrite) refers to stm32f4xx_hal_i2c.o(i.I2C_WaitOnFlagUntilTimeout) for I2C_WaitOnFlagUntilTimeout
    stm32f4xx_hal_i2c.o(i.I2C_MasterRequestWrite) refers to stm32f4xx_hal_i2c.o(i.I2C_WaitOnMasterAddressFlagUntilTimeout) for I2C_WaitOnMasterAddressFlagUntilTimeout
    stm32f4xx_hal_i2c.o(i.I2C_MasterTransmit_BTF) refers to stm32f4xx_hal_i2c.o(i.HAL_I2C_MasterTxCpltCallback) for HAL_I2C_MasterTxCpltCallback
    stm32f4xx_hal_i2c.o(i.I2C_MasterTransmit_TXE) refers to stm32f4xx_hal_i2c.o(i.HAL_I2C_MasterTxCpltCallback) for HAL_I2C_MasterTxCpltCallback
    stm32f4xx_hal_i2c.o(i.I2C_MasterTransmit_TXE) refers to stm32f4xx_hal_i2c.o(i.HAL_I2C_MemTxCpltCallback) for HAL_I2C_MemTxCpltCallback
    stm32f4xx_hal_i2c.o(i.I2C_MasterTransmit_TXE) refers to stm32f4xx_hal_i2c.o(i.I2C_MemoryTransmit_TXE_BTF) for I2C_MemoryTransmit_TXE_BTF
    stm32f4xx_hal_i2c.o(i.I2C_MemoryTransmit_TXE_BTF) refers to stm32f4xx_hal_i2c.o(i.HAL_I2C_MemTxCpltCallback) for HAL_I2C_MemTxCpltCallback
    stm32f4xx_hal_i2c.o(i.I2C_RequestMemoryRead) refers to stm32f4xx_hal_i2c.o(i.I2C_WaitOnFlagUntilTimeout) for I2C_WaitOnFlagUntilTimeout
    stm32f4xx_hal_i2c.o(i.I2C_RequestMemoryRead) refers to stm32f4xx_hal_i2c.o(i.I2C_WaitOnMasterAddressFlagUntilTimeout) for I2C_WaitOnMasterAddressFlagUntilTimeout
    stm32f4xx_hal_i2c.o(i.I2C_RequestMemoryRead) refers to stm32f4xx_hal_i2c.o(i.I2C_WaitOnTXEFlagUntilTimeout) for I2C_WaitOnTXEFlagUntilTimeout
    stm32f4xx_hal_i2c.o(i.I2C_RequestMemoryWrite) refers to stm32f4xx_hal_i2c.o(i.I2C_WaitOnFlagUntilTimeout) for I2C_WaitOnFlagUntilTimeout
    stm32f4xx_hal_i2c.o(i.I2C_RequestMemoryWrite) refers to stm32f4xx_hal_i2c.o(i.I2C_WaitOnMasterAddressFlagUntilTimeout) for I2C_WaitOnMasterAddressFlagUntilTimeout
    stm32f4xx_hal_i2c.o(i.I2C_RequestMemoryWrite) refers to stm32f4xx_hal_i2c.o(i.I2C_WaitOnTXEFlagUntilTimeout) for I2C_WaitOnTXEFlagUntilTimeout
    stm32f4xx_hal_i2c.o(i.I2C_Slave_AF) refers to stm32f4xx_hal_i2c.o(i.HAL_I2C_ListenCpltCallback) for HAL_I2C_ListenCpltCallback
    stm32f4xx_hal_i2c.o(i.I2C_Slave_AF) refers to stm32f4xx_hal_i2c.o(i.HAL_I2C_SlaveTxCpltCallback) for HAL_I2C_SlaveTxCpltCallback
    stm32f4xx_hal_i2c.o(i.I2C_Slave_STOPF) refers to stm32f4xx_hal_dma.o(i.HAL_DMA_GetState) for HAL_DMA_GetState
    stm32f4xx_hal_i2c.o(i.I2C_Slave_STOPF) refers to stm32f4xx_hal_dma.o(i.HAL_DMA_Abort_IT) for HAL_DMA_Abort_IT
    stm32f4xx_hal_i2c.o(i.I2C_Slave_STOPF) refers to stm32f4xx_hal_i2c.o(i.I2C_ITError) for I2C_ITError
    stm32f4xx_hal_i2c.o(i.I2C_Slave_STOPF) refers to stm32f4xx_hal_i2c.o(i.HAL_I2C_SlaveRxCpltCallback) for HAL_I2C_SlaveRxCpltCallback
    stm32f4xx_hal_i2c.o(i.I2C_Slave_STOPF) refers to stm32f4xx_hal_i2c.o(i.HAL_I2C_ListenCpltCallback) for HAL_I2C_ListenCpltCallback
    stm32f4xx_hal_i2c.o(i.I2C_Slave_STOPF) refers to stm32f4xx_hal_i2c.o(i.I2C_DMAAbort) for I2C_DMAAbort
    stm32f4xx_hal_i2c.o(i.I2C_WaitOnBTFFlagUntilTimeout) refers to stm32f4xx_hal_i2c.o(i.I2C_IsAcknowledgeFailed) for I2C_IsAcknowledgeFailed
    stm32f4xx_hal_i2c.o(i.I2C_WaitOnBTFFlagUntilTimeout) refers to stm32f4xx_hal.o(i.HAL_GetTick) for HAL_GetTick
    stm32f4xx_hal_i2c.o(i.I2C_WaitOnFlagUntilTimeout) refers to stm32f4xx_hal.o(i.HAL_GetTick) for HAL_GetTick
    stm32f4xx_hal_i2c.o(i.I2C_WaitOnMasterAddressFlagUntilTimeout) refers to stm32f4xx_hal.o(i.HAL_GetTick) for HAL_GetTick
    stm32f4xx_hal_i2c.o(i.I2C_WaitOnRXNEFlagUntilTimeout) refers to stm32f4xx_hal.o(i.HAL_GetTick) for HAL_GetTick
    stm32f4xx_hal_i2c.o(i.I2C_WaitOnTXEFlagUntilTimeout) refers to stm32f4xx_hal_i2c.o(i.I2C_IsAcknowledgeFailed) for I2C_IsAcknowledgeFailed
    stm32f4xx_hal_i2c.o(i.I2C_WaitOnTXEFlagUntilTimeout) refers to stm32f4xx_hal.o(i.HAL_GetTick) for HAL_GetTick
    stm32f4xx_hal_i2s.o(i.HAL_I2S_DMAStop) refers to stm32f4xx_hal_dma.o(i.HAL_DMA_Abort) for HAL_DMA_Abort
    stm32f4xx_hal_i2s.o(i.HAL_I2S_DMAStop) refers to stm32f4xx_hal_i2s.o(i.I2S_WaitFlagStateUntilTimeout) for I2S_WaitFlagStateUntilTimeout
    stm32f4xx_hal_i2s.o(i.HAL_I2S_DMAStop) refers to stm32f4xx_hal.o(i.HAL_GetTick) for HAL_GetTick
    stm32f4xx_hal_i2s.o(i.HAL_I2S_DeInit) refers to stm32f4xx_hal_msp.o(i.HAL_I2S_MspDeInit) for HAL_I2S_MspDeInit
    stm32f4xx_hal_i2s.o(i.HAL_I2S_Init) refers to stm32f4xx_hal_msp.o(i.HAL_I2S_MspInit) for HAL_I2S_MspInit
    stm32f4xx_hal_i2s.o(i.HAL_I2S_Init) refers to stm32f4xx_hal_rcc_ex.o(i.HAL_RCCEx_GetPeriphCLKFreq) for HAL_RCCEx_GetPeriphCLKFreq
    stm32f4xx_hal_i2s.o(i.HAL_I2S_Init) refers to stm32f4xx_hal_i2s.o(i.I2S_IRQHandler) for I2S_IRQHandler
    stm32f4xx_hal_i2s.o(i.HAL_I2S_Init) refers to stm32f4xx_hal_i2s_ex.o(i.HAL_I2SEx_FullDuplex_IRQHandler) for HAL_I2SEx_FullDuplex_IRQHandler
    stm32f4xx_hal_i2s.o(i.HAL_I2S_Receive) refers to stm32f4xx_hal_i2s.o(i.I2S_WaitFlagStateUntilTimeout) for I2S_WaitFlagStateUntilTimeout
    stm32f4xx_hal_i2s.o(i.HAL_I2S_Receive_DMA) refers to stm32f4xx_hal_dma.o(i.HAL_DMA_Start_IT) for HAL_DMA_Start_IT
    stm32f4xx_hal_i2s.o(i.HAL_I2S_Receive_DMA) refers to stm32f4xx_hal_i2s.o(i.I2S_DMARxHalfCplt) for I2S_DMARxHalfCplt
    stm32f4xx_hal_i2s.o(i.HAL_I2S_Receive_DMA) refers to stm32f4xx_hal_i2s.o(i.I2S_DMARxCplt) for I2S_DMARxCplt
    stm32f4xx_hal_i2s.o(i.HAL_I2S_Receive_DMA) refers to stm32f4xx_hal_i2s.o(i.I2S_DMAError) for I2S_DMAError
    stm32f4xx_hal_i2s.o(i.HAL_I2S_Transmit) refers to stm32f4xx_hal_i2s.o(i.I2S_WaitFlagStateUntilTimeout) for I2S_WaitFlagStateUntilTimeout
    stm32f4xx_hal_i2s.o(i.HAL_I2S_Transmit_DMA) refers to stm32f4xx_hal_dma.o(i.HAL_DMA_Start_IT) for HAL_DMA_Start_IT
    stm32f4xx_hal_i2s.o(i.HAL_I2S_Transmit_DMA) refers to stm32f4xx_hal_i2s.o(i.I2S_DMATxHalfCplt) for I2S_DMATxHalfCplt
    stm32f4xx_hal_i2s.o(i.HAL_I2S_Transmit_DMA) refers to stm32f4xx_hal_i2s.o(i.I2S_DMATxCplt) for I2S_DMATxCplt
    stm32f4xx_hal_i2s.o(i.HAL_I2S_Transmit_DMA) refers to stm32f4xx_hal_i2s.o(i.I2S_DMAError) for I2S_DMAError
    stm32f4xx_hal_i2s.o(i.I2S_DMAError) refers to audio_in_out.o(i.HAL_I2S_ErrorCallback) for HAL_I2S_ErrorCallback
    stm32f4xx_hal_i2s.o(i.I2S_DMARxCplt) refers to stm32f4xx_hal_i2s.o(i.HAL_I2S_RxCpltCallback) for HAL_I2S_RxCpltCallback
    stm32f4xx_hal_i2s.o(i.I2S_DMARxHalfCplt) refers to stm32f4xx_hal_i2s.o(i.HAL_I2S_RxHalfCpltCallback) for HAL_I2S_RxHalfCpltCallback
    stm32f4xx_hal_i2s.o(i.I2S_DMATxCplt) refers to stm32f4xx_hal_i2s.o(i.HAL_I2S_TxCpltCallback) for HAL_I2S_TxCpltCallback
    stm32f4xx_hal_i2s.o(i.I2S_DMATxHalfCplt) refers to stm32f4xx_hal_i2s.o(i.HAL_I2S_TxHalfCpltCallback) for HAL_I2S_TxHalfCpltCallback
    stm32f4xx_hal_i2s.o(i.I2S_IRQHandler) refers to stm32f4xx_hal_i2s.o(i.HAL_I2S_RxCpltCallback) for HAL_I2S_RxCpltCallback
    stm32f4xx_hal_i2s.o(i.I2S_IRQHandler) refers to audio_in_out.o(i.HAL_I2S_ErrorCallback) for HAL_I2S_ErrorCallback
    stm32f4xx_hal_i2s.o(i.I2S_IRQHandler) refers to stm32f4xx_hal_i2s.o(i.HAL_I2S_TxCpltCallback) for HAL_I2S_TxCpltCallback
    stm32f4xx_hal_i2s.o(i.I2S_WaitFlagStateUntilTimeout) refers to stm32f4xx_hal.o(i.HAL_GetTick) for HAL_GetTick
    stm32f4xx_hal_i2s_ex.o(i.HAL_I2SEx_FullDuplex_IRQHandler) refers to stm32f4xx_hal_i2s_ex.o(i.I2SEx_TxISR_I2SExt) for I2SEx_TxISR_I2SExt
    stm32f4xx_hal_i2s_ex.o(i.HAL_I2SEx_FullDuplex_IRQHandler) refers to stm32f4xx_hal_i2s_ex.o(i.HAL_I2SEx_TxRxCpltCallback) for HAL_I2SEx_TxRxCpltCallback
    stm32f4xx_hal_i2s_ex.o(i.HAL_I2SEx_FullDuplex_IRQHandler) refers to stm32f4xx_hal_i2s_ex.o(i.I2SEx_RxISR_I2SExt) for I2SEx_RxISR_I2SExt
    stm32f4xx_hal_i2s_ex.o(i.HAL_I2SEx_FullDuplex_IRQHandler) refers to audio_in_out.o(i.HAL_I2S_ErrorCallback) for HAL_I2S_ErrorCallback
    stm32f4xx_hal_i2s_ex.o(i.HAL_I2SEx_TransmitReceive) refers to stm32f4xx_hal_i2s_ex.o(i.I2SEx_FullDuplexWaitFlagStateUntilTimeout) for I2SEx_FullDuplexWaitFlagStateUntilTimeout
    stm32f4xx_hal_i2s_ex.o(i.HAL_I2SEx_TransmitReceive_DMA) refers to stm32f4xx_hal_dma.o(i.HAL_DMA_Start_IT) for HAL_DMA_Start_IT
    stm32f4xx_hal_i2s_ex.o(i.HAL_I2SEx_TransmitReceive_DMA) refers to stm32f4xx_hal_i2s_ex.o(i.I2SEx_TxRxDMAHalfCplt) for I2SEx_TxRxDMAHalfCplt
    stm32f4xx_hal_i2s_ex.o(i.HAL_I2SEx_TransmitReceive_DMA) refers to stm32f4xx_hal_i2s_ex.o(i.I2SEx_TxRxDMACplt) for I2SEx_TxRxDMACplt
    stm32f4xx_hal_i2s_ex.o(i.HAL_I2SEx_TransmitReceive_DMA) refers to stm32f4xx_hal_i2s_ex.o(i.I2SEx_TxRxDMAError) for I2SEx_TxRxDMAError
    stm32f4xx_hal_i2s_ex.o(i.I2SEx_FullDuplexWaitFlagStateUntilTimeout) refers to stm32f4xx_hal.o(i.HAL_GetTick) for HAL_GetTick
    stm32f4xx_hal_i2s_ex.o(i.I2SEx_RxISR_I2SExt) refers to stm32f4xx_hal_i2s_ex.o(i.HAL_I2SEx_TxRxCpltCallback) for HAL_I2SEx_TxRxCpltCallback
    stm32f4xx_hal_i2s_ex.o(i.I2SEx_TxISR_I2SExt) refers to stm32f4xx_hal_i2s_ex.o(i.HAL_I2SEx_TxRxCpltCallback) for HAL_I2SEx_TxRxCpltCallback
    stm32f4xx_hal_i2s_ex.o(i.I2SEx_TxRxDMACplt) refers to stm32f4xx_hal_i2s_ex.o(i.HAL_I2SEx_TxRxCpltCallback) for HAL_I2SEx_TxRxCpltCallback
    stm32f4xx_hal_i2s_ex.o(i.I2SEx_TxRxDMAError) refers to audio_in_out.o(i.HAL_I2S_ErrorCallback) for HAL_I2S_ErrorCallback
    stm32f4xx_hal_i2s_ex.o(i.I2SEx_TxRxDMAHalfCplt) refers to audio_in_out.o(i.HAL_I2SEx_TxRxHalfCpltCallback) for HAL_I2SEx_TxRxHalfCpltCallback
    stm32f4xx_hal_sai.o(i.HAL_SAI_Abort) refers to stm32f4xx_hal_dma.o(i.HAL_DMA_Abort) for HAL_DMA_Abort
    stm32f4xx_hal_sai.o(i.HAL_SAI_Abort) refers to stm32f4xx_hal_sai.o(i.SAI_Disable) for SAI_Disable
    stm32f4xx_hal_sai.o(i.HAL_SAI_DMAStop) refers to stm32f4xx_hal_dma.o(i.HAL_DMA_Abort) for HAL_DMA_Abort
    stm32f4xx_hal_sai.o(i.HAL_SAI_DMAStop) refers to stm32f4xx_hal_sai.o(i.SAI_Disable) for SAI_Disable
    stm32f4xx_hal_sai.o(i.HAL_SAI_DeInit) refers to stm32f4xx_hal_sai.o(i.SAI_Disable) for SAI_Disable
    stm32f4xx_hal_sai.o(i.HAL_SAI_DeInit) refers to stm32f4xx_hal_msp.o(i.HAL_SAI_MspDeInit) for HAL_SAI_MspDeInit
    stm32f4xx_hal_sai.o(i.HAL_SAI_IRQHandler) refers to stm32f4xx_hal_dma.o(i.HAL_DMA_Abort_IT) for HAL_DMA_Abort_IT
    stm32f4xx_hal_sai.o(i.HAL_SAI_IRQHandler) refers to stm32f4xx_hal_sai.o(i.HAL_SAI_Abort) for HAL_SAI_Abort
    stm32f4xx_hal_sai.o(i.HAL_SAI_IRQHandler) refers to st-bus_sai_in_out.o(i.HAL_SAI_ErrorCallback) for HAL_SAI_ErrorCallback
    stm32f4xx_hal_sai.o(i.HAL_SAI_IRQHandler) refers to stm32f4xx_hal_sai.o(i.SAI_DMAAbort) for SAI_DMAAbort
    stm32f4xx_hal_sai.o(i.HAL_SAI_Init) refers to stm32f4xx_hal_msp.o(i.HAL_SAI_MspInit) for HAL_SAI_MspInit
    stm32f4xx_hal_sai.o(i.HAL_SAI_Init) refers to stm32f4xx_hal_sai.o(i.SAI_Disable) for SAI_Disable
    stm32f4xx_hal_sai.o(i.HAL_SAI_Init) refers to stm32f4xx_hal_sai_ex.o(i.SAI_BlockSynchroConfig) for SAI_BlockSynchroConfig
    stm32f4xx_hal_sai.o(i.HAL_SAI_Init) refers to stm32f4xx_hal_sai_ex.o(i.SAI_GetInputClock) for SAI_GetInputClock
    stm32f4xx_hal_sai.o(i.HAL_SAI_InitProtocol) refers to stm32f4xx_hal_sai.o(i.SAI_InitI2S) for SAI_InitI2S
    stm32f4xx_hal_sai.o(i.HAL_SAI_InitProtocol) refers to stm32f4xx_hal_sai.o(i.SAI_InitPCM) for SAI_InitPCM
    stm32f4xx_hal_sai.o(i.HAL_SAI_InitProtocol) refers to stm32f4xx_hal_sai.o(i.HAL_SAI_Init) for HAL_SAI_Init
    stm32f4xx_hal_sai.o(i.HAL_SAI_Receive) refers to stm32f4xx_hal.o(i.HAL_GetTick) for HAL_GetTick
    stm32f4xx_hal_sai.o(i.HAL_SAI_Receive) refers to stm32f4xx_hal_sai.o(i.SAI_Disable) for SAI_Disable
    stm32f4xx_hal_sai.o(i.HAL_SAI_Receive_DMA) refers to stm32f4xx_hal_dma.o(i.HAL_DMA_Start_IT) for HAL_DMA_Start_IT
    stm32f4xx_hal_sai.o(i.HAL_SAI_Receive_DMA) refers to stm32f4xx_hal_sai.o(i.SAI_InterruptFlag) for SAI_InterruptFlag
    stm32f4xx_hal_sai.o(i.HAL_SAI_Receive_DMA) refers to stm32f4xx_hal_sai.o(i.SAI_DMARxHalfCplt) for SAI_DMARxHalfCplt
    stm32f4xx_hal_sai.o(i.HAL_SAI_Receive_DMA) refers to stm32f4xx_hal_sai.o(i.SAI_DMARxCplt) for SAI_DMARxCplt
    stm32f4xx_hal_sai.o(i.HAL_SAI_Receive_DMA) refers to stm32f4xx_hal_sai.o(i.SAI_DMAError) for SAI_DMAError
    stm32f4xx_hal_sai.o(i.HAL_SAI_Receive_IT) refers to stm32f4xx_hal_sai.o(i.SAI_InterruptFlag) for SAI_InterruptFlag
    stm32f4xx_hal_sai.o(i.HAL_SAI_Receive_IT) refers to stm32f4xx_hal_sai.o(i.SAI_Receive_IT16Bit) for SAI_Receive_IT16Bit
    stm32f4xx_hal_sai.o(i.HAL_SAI_Receive_IT) refers to stm32f4xx_hal_sai.o(i.SAI_Receive_IT8Bit) for SAI_Receive_IT8Bit
    stm32f4xx_hal_sai.o(i.HAL_SAI_Receive_IT) refers to stm32f4xx_hal_sai.o(i.SAI_Receive_IT32Bit) for SAI_Receive_IT32Bit
    stm32f4xx_hal_sai.o(i.HAL_SAI_Transmit) refers to stm32f4xx_hal.o(i.HAL_GetTick) for HAL_GetTick
    stm32f4xx_hal_sai.o(i.HAL_SAI_Transmit) refers to stm32f4xx_hal_sai.o(i.SAI_FillFifo) for SAI_FillFifo
    stm32f4xx_hal_sai.o(i.HAL_SAI_Transmit) refers to stm32f4xx_hal_sai.o(i.SAI_Disable) for SAI_Disable
    stm32f4xx_hal_sai.o(i.HAL_SAI_Transmit_DMA) refers to stm32f4xx_hal_dma.o(i.HAL_DMA_Start_IT) for HAL_DMA_Start_IT
    stm32f4xx_hal_sai.o(i.HAL_SAI_Transmit_DMA) refers to stm32f4xx_hal_sai.o(i.SAI_InterruptFlag) for SAI_InterruptFlag
    stm32f4xx_hal_sai.o(i.HAL_SAI_Transmit_DMA) refers to stm32f4xx_hal_sai.o(i.SAI_DMATxHalfCplt) for SAI_DMATxHalfCplt
    stm32f4xx_hal_sai.o(i.HAL_SAI_Transmit_DMA) refers to stm32f4xx_hal_sai.o(i.SAI_DMATxCplt) for SAI_DMATxCplt
    stm32f4xx_hal_sai.o(i.HAL_SAI_Transmit_DMA) refers to stm32f4xx_hal_sai.o(i.SAI_DMAError) for SAI_DMAError
    stm32f4xx_hal_sai.o(i.HAL_SAI_Transmit_IT) refers to stm32f4xx_hal_sai.o(i.SAI_FillFifo) for SAI_FillFifo
    stm32f4xx_hal_sai.o(i.HAL_SAI_Transmit_IT) refers to stm32f4xx_hal_sai.o(i.SAI_InterruptFlag) for SAI_InterruptFlag
    stm32f4xx_hal_sai.o(i.HAL_SAI_Transmit_IT) refers to stm32f4xx_hal_sai.o(i.SAI_Transmit_IT16Bit) for SAI_Transmit_IT16Bit
    stm32f4xx_hal_sai.o(i.HAL_SAI_Transmit_IT) refers to stm32f4xx_hal_sai.o(i.SAI_Transmit_IT8Bit) for SAI_Transmit_IT8Bit
    stm32f4xx_hal_sai.o(i.HAL_SAI_Transmit_IT) refers to stm32f4xx_hal_sai.o(i.SAI_Transmit_IT32Bit) for SAI_Transmit_IT32Bit
    stm32f4xx_hal_sai.o(i.SAI_DMAAbort) refers to stm32f4xx_hal_sai.o(i.SAI_Disable) for SAI_Disable
    stm32f4xx_hal_sai.o(i.SAI_DMAAbort) refers to st-bus_sai_in_out.o(i.HAL_SAI_ErrorCallback) for HAL_SAI_ErrorCallback
    stm32f4xx_hal_sai.o(i.SAI_DMAError) refers to stm32f4xx_hal_sai.o(i.SAI_Disable) for SAI_Disable
    stm32f4xx_hal_sai.o(i.SAI_DMAError) refers to st-bus_sai_in_out.o(i.HAL_SAI_ErrorCallback) for HAL_SAI_ErrorCallback
    stm32f4xx_hal_sai.o(i.SAI_DMARxCplt) refers to stm32f4xx_hal_sai.o(i.SAI_InterruptFlag) for SAI_InterruptFlag
    stm32f4xx_hal_sai.o(i.SAI_DMARxCplt) refers to st-bus_sai_in_out.o(i.HAL_SAI_RxCpltCallback) for HAL_SAI_RxCpltCallback
    stm32f4xx_hal_sai.o(i.SAI_DMARxHalfCplt) refers to st-bus_sai_in_out.o(i.HAL_SAI_RxHalfCpltCallback) for HAL_SAI_RxHalfCpltCallback
    stm32f4xx_hal_sai.o(i.SAI_DMATxCplt) refers to stm32f4xx_hal_sai.o(i.SAI_InterruptFlag) for SAI_InterruptFlag
    stm32f4xx_hal_sai.o(i.SAI_DMATxCplt) refers to st-bus_sai_in_out.o(i.HAL_SAI_TxCpltCallback) for HAL_SAI_TxCpltCallback
    stm32f4xx_hal_sai.o(i.SAI_DMATxHalfCplt) refers to st-bus_sai_in_out.o(i.HAL_SAI_TxHalfCpltCallback) for HAL_SAI_TxHalfCpltCallback
    stm32f4xx_hal_sai.o(i.SAI_Disable) refers to system_stm32f4xx.o(.data) for SystemCoreClock
    stm32f4xx_hal_sai.o(i.SAI_Receive_IT16Bit) refers to stm32f4xx_hal_sai.o(i.SAI_InterruptFlag) for SAI_InterruptFlag
    stm32f4xx_hal_sai.o(i.SAI_Receive_IT16Bit) refers to st-bus_sai_in_out.o(i.HAL_SAI_RxCpltCallback) for HAL_SAI_RxCpltCallback
    stm32f4xx_hal_sai.o(i.SAI_Receive_IT32Bit) refers to stm32f4xx_hal_sai.o(i.SAI_InterruptFlag) for SAI_InterruptFlag
    stm32f4xx_hal_sai.o(i.SAI_Receive_IT32Bit) refers to st-bus_sai_in_out.o(i.HAL_SAI_RxCpltCallback) for HAL_SAI_RxCpltCallback
    stm32f4xx_hal_sai.o(i.SAI_Receive_IT8Bit) refers to stm32f4xx_hal_sai.o(i.SAI_InterruptFlag) for SAI_InterruptFlag
    stm32f4xx_hal_sai.o(i.SAI_Receive_IT8Bit) refers to st-bus_sai_in_out.o(i.HAL_SAI_RxCpltCallback) for HAL_SAI_RxCpltCallback
    stm32f4xx_hal_sai.o(i.SAI_Transmit_IT16Bit) refers to stm32f4xx_hal_sai.o(i.SAI_InterruptFlag) for SAI_InterruptFlag
    stm32f4xx_hal_sai.o(i.SAI_Transmit_IT16Bit) refers to st-bus_sai_in_out.o(i.HAL_SAI_TxCpltCallback) for HAL_SAI_TxCpltCallback
    stm32f4xx_hal_sai.o(i.SAI_Transmit_IT32Bit) refers to stm32f4xx_hal_sai.o(i.SAI_InterruptFlag) for SAI_InterruptFlag
    stm32f4xx_hal_sai.o(i.SAI_Transmit_IT32Bit) refers to st-bus_sai_in_out.o(i.HAL_SAI_TxCpltCallback) for HAL_SAI_TxCpltCallback
    stm32f4xx_hal_sai.o(i.SAI_Transmit_IT8Bit) refers to stm32f4xx_hal_sai.o(i.SAI_InterruptFlag) for SAI_InterruptFlag
    stm32f4xx_hal_sai.o(i.SAI_Transmit_IT8Bit) refers to st-bus_sai_in_out.o(i.HAL_SAI_TxCpltCallback) for HAL_SAI_TxCpltCallback
    stm32f4xx_ll_usart.o(i.LL_USART_DeInit) refers to stm32f4xx_ll_usart.o(i.LL_APB1_GRP1_ForceReset) for LL_APB1_GRP1_ForceReset
    stm32f4xx_ll_usart.o(i.LL_USART_DeInit) refers to stm32f4xx_ll_usart.o(i.LL_APB1_GRP1_ReleaseReset) for LL_APB1_GRP1_ReleaseReset
    stm32f4xx_ll_usart.o(i.LL_USART_Init) refers to stm32f4xx_ll_rcc.o(i.LL_RCC_GetSystemClocksFreq) for LL_RCC_GetSystemClocksFreq
    stm32f4xx_ll_usart.o(i.LL_USART_Init) refers to stm32f4xx_ll_usart.o(i.LL_USART_SetBaudRate) for LL_USART_SetBaudRate
    stm32f4xx_ll_usart.o(i.LL_USART_SetBaudRate) refers to uldiv.o(.text) for __aeabi_uldivmod
    stm32f4xx_ll_gpio.o(i.LL_GPIO_DeInit) refers to stm32f4xx_ll_gpio.o(i.LL_AHB1_GRP1_ForceReset) for LL_AHB1_GRP1_ForceReset
    stm32f4xx_ll_gpio.o(i.LL_GPIO_DeInit) refers to stm32f4xx_ll_gpio.o(i.LL_AHB1_GRP1_ReleaseReset) for LL_AHB1_GRP1_ReleaseReset
    stm32f4xx_ll_dma.o(i.LL_DMA_DeInit) refers to stm32f4xx_ll_dma.o(i.LL_DMA_SetChannelSelection) for LL_DMA_SetChannelSelection
    stm32f4xx_ll_dma.o(i.LL_DMA_DeInit) refers to stm32f4xx_ll_dma.o(.constdata) for .constdata
    stm32f4xx_ll_dma.o(i.LL_DMA_Init) refers to stm32f4xx_ll_dma.o(i.LL_DMA_SetChannelSelection) for LL_DMA_SetChannelSelection
    stm32f4xx_ll_dma.o(i.LL_DMA_Init) refers to stm32f4xx_ll_dma.o(.constdata) for .constdata
    stm32f4xx_ll_dma.o(i.LL_DMA_SetChannelSelection) refers to stm32f4xx_ll_dma.o(.constdata) for .constdata
    system_stm32f4xx.o(i.SystemCoreClockUpdate) refers to system_stm32f4xx.o(.data) for .data
    system_stm32f4xx.o(i.SystemCoreClockUpdate) refers to system_stm32f4xx.o(.constdata) for .constdata
    powf.o(i.__hardfp_powf) refers (Special) to iusefp.o(.text) for __I$use$fp
    powf.o(i.__hardfp_powf) refers to fpstat.o(.text) for __ieee_status
    powf.o(i.__hardfp_powf) refers to errno.o(i.__set_errno) for __set_errno
    powf.o(i.__hardfp_powf) refers to funder.o(i.__mathlib_flt_overflow) for __mathlib_flt_overflow
    powf.o(i.__hardfp_powf) refers to fpclassifyf.o(i.__ARM_fpclassifyf) for __ARM_fpclassifyf
    powf.o(i.__hardfp_powf) refers to funder.o(i.__mathlib_flt_underflow) for __mathlib_flt_underflow
    powf.o(i.__hardfp_powf) refers to funder.o(i.__mathlib_flt_invalid) for __mathlib_flt_invalid
    powf.o(i.__hardfp_powf) refers to powf.o(.constdata) for .constdata
    powf.o(i.__hardfp_powf) refers to funder.o(i.__mathlib_flt_infnan2) for __mathlib_flt_infnan2
    powf.o(i.__hardfp_powf) refers to funder.o(i.__mathlib_flt_divzero) for __mathlib_flt_divzero
    powf.o(i.__softfp_powf) refers (Special) to iusefp.o(.text) for __I$use$fp
    powf.o(i.__softfp_powf) refers to powf.o(i.__hardfp_powf) for __hardfp_powf
    powf.o(i.powf) refers (Special) to iusefp.o(.text) for __I$use$fp
    powf.o(i.powf) refers to powf.o(i.__hardfp_powf) for __hardfp_powf
    powf.o(.constdata) refers (Special) to iusefp.o(.text) for __I$use$fp
    powf_x.o(i.____hardfp_powf$lsc) refers (Special) to iusefp.o(.text) for __I$use$fp
    powf_x.o(i.____hardfp_powf$lsc) refers to fpstat.o(.text) for __ieee_status
    powf_x.o(i.____hardfp_powf$lsc) refers to errno.o(i.__set_errno) for __set_errno
    powf_x.o(i.____hardfp_powf$lsc) refers to powf_x.o(.constdata) for .constdata
    powf_x.o(i.____hardfp_powf$lsc) refers to funder.o(i.__mathlib_flt_infnan2) for __mathlib_flt_infnan2
    powf_x.o(i.____softfp_powf$lsc) refers (Special) to iusefp.o(.text) for __I$use$fp
    powf_x.o(i.____softfp_powf$lsc) refers to powf_x.o(i.____hardfp_powf$lsc) for ____hardfp_powf$lsc
    powf_x.o(i.__powf$lsc) refers (Special) to iusefp.o(.text) for __I$use$fp
    powf_x.o(i.__powf$lsc) refers to powf_x.o(i.____hardfp_powf$lsc) for ____hardfp_powf$lsc
    powf_x.o(.constdata) refers (Special) to iusefp.o(.text) for __I$use$fp
    entry.o(.ARM.Collect$$$$00000000) refers (Special) to entry10a.o(.ARM.Collect$$$$0000000D) for __rt_final_cpp
    entry.o(.ARM.Collect$$$$00000000) refers (Special) to entry11a.o(.ARM.Collect$$$$0000000F) for __rt_final_exit
    entry.o(.ARM.Collect$$$$00000000) refers (Special) to entry7b.o(.ARM.Collect$$$$00000008) for _main_clock
    entry.o(.ARM.Collect$$$$00000000) refers (Special) to entry8b.o(.ARM.Collect$$$$0000000A) for _main_cpp_init
    entry.o(.ARM.Collect$$$$00000000) refers (Special) to entry9a.o(.ARM.Collect$$$$0000000B) for _main_init
    entry.o(.ARM.Collect$$$$00000000) refers (Special) to entry5.o(.ARM.Collect$$$$00000004) for _main_scatterload
    entry.o(.ARM.Collect$$$$00000000) refers (Special) to entry2.o(.ARM.Collect$$$$00000001) for _main_stk
    puts.o(i.puts) refers to dbg_uart.o(i.fputc) for fputc
    puts.o(i.puts) refers to stdout.o(.data) for __stdout
    puts_e.o(.text) refers to dbg_uart.o(i.fputc) for fputc
    puts_e.o(.text) refers to stdout.o(.data) for __stdout
    uldiv.o(.text) refers to llushr.o(.text) for __aeabi_llsr
    uldiv.o(.text) refers to llshl.o(.text) for __aeabi_llsl
    printfb.o(i.__0fprintf$bare) refers to printfb.o(i._printf_core) for _printf_core
    printfb.o(i.__0fprintf$bare) refers to dbg_uart.o(i.fputc) for fputc
    printfb.o(i.__0printf$bare) refers to printfb.o(i._printf_core) for _printf_core
    printfb.o(i.__0printf$bare) refers to dbg_uart.o(i.fputc) for fputc
    printfb.o(i.__0printf$bare) refers to stdout.o(.data) for __stdout
    printfb.o(i.__0snprintf$bare) refers to printfb.o(i._printf_core) for _printf_core
    printfb.o(i.__0snprintf$bare) refers to printfb.o(i._snputc) for _snputc
    printfb.o(i.__0sprintf$bare) refers to printfb.o(i._printf_core) for _printf_core
    printfb.o(i.__0sprintf$bare) refers to printfb.o(i._sputc) for _sputc
    printfb.o(i.__0vfprintf$bare) refers to printfb.o(i._printf_core) for _printf_core
    printfb.o(i.__0vfprintf$bare) refers to dbg_uart.o(i.fputc) for fputc
    printfb.o(i.__0vprintf$bare) refers to printfb.o(i._printf_core) for _printf_core
    printfb.o(i.__0vprintf$bare) refers to dbg_uart.o(i.fputc) for fputc
    printfb.o(i.__0vprintf$bare) refers to stdout.o(.data) for __stdout
    printfb.o(i.__0vsnprintf$bare) refers to printfb.o(i._printf_core) for _printf_core
    printfb.o(i.__0vsnprintf$bare) refers to printfb.o(i._snputc) for _snputc
    printfb.o(i.__0vsprintf$bare) refers to printfb.o(i._printf_core) for _printf_core
    printfb.o(i.__0vsprintf$bare) refers to printfb.o(i._sputc) for _sputc
    printf0.o(i.__0fprintf$0) refers to printf0.o(i._printf_core) for _printf_core
    printf0.o(i.__0fprintf$0) refers to dbg_uart.o(i.fputc) for fputc
    printf0.o(i.__0printf$0) refers to printf0.o(i._printf_core) for _printf_core
    printf0.o(i.__0printf$0) refers to dbg_uart.o(i.fputc) for fputc
    printf0.o(i.__0printf$0) refers to stdout.o(.data) for __stdout
    printf0.o(i.__0snprintf$0) refers to printf0.o(i._printf_core) for _printf_core
    printf0.o(i.__0snprintf$0) refers to printf0.o(i._snputc) for _snputc
    printf0.o(i.__0sprintf$0) refers to printf0.o(i._printf_core) for _printf_core
    printf0.o(i.__0sprintf$0) refers to printf0.o(i._sputc) for _sputc
    printf0.o(i.__0vfprintf$0) refers to printf0.o(i._printf_core) for _printf_core
    printf0.o(i.__0vfprintf$0) refers to dbg_uart.o(i.fputc) for fputc
    printf0.o(i.__0vprintf$0) refers to printf0.o(i._printf_core) for _printf_core
    printf0.o(i.__0vprintf$0) refers to dbg_uart.o(i.fputc) for fputc
    printf0.o(i.__0vprintf$0) refers to stdout.o(.data) for __stdout
    printf0.o(i.__0vsnprintf$0) refers to printf0.o(i._printf_core) for _printf_core
    printf0.o(i.__0vsnprintf$0) refers to printf0.o(i._snputc) for _snputc
    printf0.o(i.__0vsprintf$0) refers to printf0.o(i._printf_core) for _printf_core
    printf0.o(i.__0vsprintf$0) refers to printf0.o(i._sputc) for _sputc
    printf1.o(i.__0fprintf$1) refers to printf1.o(i._printf_core) for _printf_core
    printf1.o(i.__0fprintf$1) refers to dbg_uart.o(i.fputc) for fputc
    printf1.o(i.__0printf$1) refers to printf1.o(i._printf_core) for _printf_core
    printf1.o(i.__0printf$1) refers to dbg_uart.o(i.fputc) for fputc
    printf1.o(i.__0printf$1) refers to stdout.o(.data) for __stdout
    printf1.o(i.__0snprintf$1) refers to printf1.o(i._printf_core) for _printf_core
    printf1.o(i.__0snprintf$1) refers to printf1.o(i._snputc) for _snputc
    printf1.o(i.__0sprintf$1) refers to printf1.o(i._printf_core) for _printf_core
    printf1.o(i.__0sprintf$1) refers to printf1.o(i._sputc) for _sputc
    printf1.o(i.__0vfprintf$1) refers to printf1.o(i._printf_core) for _printf_core
    printf1.o(i.__0vfprintf$1) refers to dbg_uart.o(i.fputc) for fputc
    printf1.o(i.__0vprintf$1) refers to printf1.o(i._printf_core) for _printf_core
    printf1.o(i.__0vprintf$1) refers to dbg_uart.o(i.fputc) for fputc
    printf1.o(i.__0vprintf$1) refers to stdout.o(.data) for __stdout
    printf1.o(i.__0vsnprintf$1) refers to printf1.o(i._printf_core) for _printf_core
    printf1.o(i.__0vsnprintf$1) refers to printf1.o(i._snputc) for _snputc
    printf1.o(i.__0vsprintf$1) refers to printf1.o(i._printf_core) for _printf_core
    printf1.o(i.__0vsprintf$1) refers to printf1.o(i._sputc) for _sputc
    printf1.o(i._printf_core) refers to uidiv.o(.text) for __aeabi_uidivmod
    printf2.o(i.__0fprintf$2) refers to printf2.o(i._printf_core) for _printf_core
    printf2.o(i.__0fprintf$2) refers to dbg_uart.o(i.fputc) for fputc
    printf2.o(i.__0printf$2) refers to printf2.o(i._printf_core) for _printf_core
    printf2.o(i.__0printf$2) refers to dbg_uart.o(i.fputc) for fputc
    printf2.o(i.__0printf$2) refers to stdout.o(.data) for __stdout
    printf2.o(i.__0snprintf$2) refers to printf2.o(i._printf_core) for _printf_core
    printf2.o(i.__0snprintf$2) refers to printf2.o(i._snputc) for _snputc
    printf2.o(i.__0sprintf$2) refers to printf2.o(i._printf_core) for _printf_core
    printf2.o(i.__0sprintf$2) refers to printf2.o(i._sputc) for _sputc
    printf2.o(i.__0vfprintf$2) refers to printf2.o(i._printf_core) for _printf_core
    printf2.o(i.__0vfprintf$2) refers to dbg_uart.o(i.fputc) for fputc
    printf2.o(i.__0vprintf$2) refers to printf2.o(i._printf_core) for _printf_core
    printf2.o(i.__0vprintf$2) refers to dbg_uart.o(i.fputc) for fputc
    printf2.o(i.__0vprintf$2) refers to stdout.o(.data) for __stdout
    printf2.o(i.__0vsnprintf$2) refers to printf2.o(i._printf_core) for _printf_core
    printf2.o(i.__0vsnprintf$2) refers to printf2.o(i._snputc) for _snputc
    printf2.o(i.__0vsprintf$2) refers to printf2.o(i._printf_core) for _printf_core
    printf2.o(i.__0vsprintf$2) refers to printf2.o(i._sputc) for _sputc
    printf3.o(i.__0fprintf$3) refers to printf3.o(i._printf_core) for _printf_core
    printf3.o(i.__0fprintf$3) refers to dbg_uart.o(i.fputc) for fputc
    printf3.o(i.__0printf$3) refers to printf3.o(i._printf_core) for _printf_core
    printf3.o(i.__0printf$3) refers to dbg_uart.o(i.fputc) for fputc
    printf3.o(i.__0printf$3) refers to stdout.o(.data) for __stdout
    printf3.o(i.__0snprintf$3) refers to printf3.o(i._printf_core) for _printf_core
    printf3.o(i.__0snprintf$3) refers to printf3.o(i._snputc) for _snputc
    printf3.o(i.__0sprintf$3) refers to printf3.o(i._printf_core) for _printf_core
    printf3.o(i.__0sprintf$3) refers to printf3.o(i._sputc) for _sputc
    printf3.o(i.__0vfprintf$3) refers to printf3.o(i._printf_core) for _printf_core
    printf3.o(i.__0vfprintf$3) refers to dbg_uart.o(i.fputc) for fputc
    printf3.o(i.__0vprintf$3) refers to printf3.o(i._printf_core) for _printf_core
    printf3.o(i.__0vprintf$3) refers to dbg_uart.o(i.fputc) for fputc
    printf3.o(i.__0vprintf$3) refers to stdout.o(.data) for __stdout
    printf3.o(i.__0vsnprintf$3) refers to printf3.o(i._printf_core) for _printf_core
    printf3.o(i.__0vsnprintf$3) refers to printf3.o(i._snputc) for _snputc
    printf3.o(i.__0vsprintf$3) refers to printf3.o(i._printf_core) for _printf_core
    printf3.o(i.__0vsprintf$3) refers to printf3.o(i._sputc) for _sputc
    printf3.o(i._printf_core) refers to uidiv.o(.text) for __aeabi_uidivmod
    printf4.o(i.__0fprintf$4) refers to printf4.o(i._printf_core) for _printf_core
    printf4.o(i.__0fprintf$4) refers to dbg_uart.o(i.fputc) for fputc
    printf4.o(i.__0printf$4) refers to printf4.o(i._printf_core) for _printf_core
    printf4.o(i.__0printf$4) refers to dbg_uart.o(i.fputc) for fputc
    printf4.o(i.__0printf$4) refers to stdout.o(.data) for __stdout
    printf4.o(i.__0snprintf$4) refers to printf4.o(i._printf_core) for _printf_core
    printf4.o(i.__0snprintf$4) refers to printf4.o(i._snputc) for _snputc
    printf4.o(i.__0sprintf$4) refers to printf4.o(i._printf_core) for _printf_core
    printf4.o(i.__0sprintf$4) refers to printf4.o(i._sputc) for _sputc
    printf4.o(i.__0vfprintf$4) refers to printf4.o(i._printf_core) for _printf_core
    printf4.o(i.__0vfprintf$4) refers to dbg_uart.o(i.fputc) for fputc
    printf4.o(i.__0vprintf$4) refers to printf4.o(i._printf_core) for _printf_core
    printf4.o(i.__0vprintf$4) refers to dbg_uart.o(i.fputc) for fputc
    printf4.o(i.__0vprintf$4) refers to stdout.o(.data) for __stdout
    printf4.o(i.__0vsnprintf$4) refers to printf4.o(i._printf_core) for _printf_core
    printf4.o(i.__0vsnprintf$4) refers to printf4.o(i._snputc) for _snputc
    printf4.o(i.__0vsprintf$4) refers to printf4.o(i._printf_core) for _printf_core
    printf4.o(i.__0vsprintf$4) refers to printf4.o(i._sputc) for _sputc
    printf4.o(i._printf_core) refers to uldiv.o(.text) for __aeabi_uldivmod
    printf5.o(i.__0fprintf$5) refers to printf5.o(i._printf_core) for _printf_core
    printf5.o(i.__0fprintf$5) refers to dbg_uart.o(i.fputc) for fputc
    printf5.o(i.__0printf$5) refers to printf5.o(i._printf_core) for _printf_core
    printf5.o(i.__0printf$5) refers to dbg_uart.o(i.fputc) for fputc
    printf5.o(i.__0printf$5) refers to stdout.o(.data) for __stdout
    printf5.o(i.__0snprintf$5) refers to printf5.o(i._printf_core) for _printf_core
    printf5.o(i.__0snprintf$5) refers to printf5.o(i._snputc) for _snputc
    printf5.o(i.__0sprintf$5) refers to printf5.o(i._printf_core) for _printf_core
    printf5.o(i.__0sprintf$5) refers to printf5.o(i._sputc) for _sputc
    printf5.o(i.__0vfprintf$5) refers to printf5.o(i._printf_core) for _printf_core
    printf5.o(i.__0vfprintf$5) refers to dbg_uart.o(i.fputc) for fputc
    printf5.o(i.__0vprintf$5) refers to printf5.o(i._printf_core) for _printf_core
    printf5.o(i.__0vprintf$5) refers to dbg_uart.o(i.fputc) for fputc
    printf5.o(i.__0vprintf$5) refers to stdout.o(.data) for __stdout
    printf5.o(i.__0vsnprintf$5) refers to printf5.o(i._printf_core) for _printf_core
    printf5.o(i.__0vsnprintf$5) refers to printf5.o(i._snputc) for _snputc
    printf5.o(i.__0vsprintf$5) refers to printf5.o(i._printf_core) for _printf_core
    printf5.o(i.__0vsprintf$5) refers to printf5.o(i._sputc) for _sputc
    printf5.o(i._printf_core) refers to uldiv.o(.text) for __aeabi_uldivmod
    printf6.o(i.__0fprintf$6) refers to printf6.o(i._printf_core) for _printf_core
    printf6.o(i.__0fprintf$6) refers to dbg_uart.o(i.fputc) for fputc
    printf6.o(i.__0printf$6) refers to printf6.o(i._printf_core) for _printf_core
    printf6.o(i.__0printf$6) refers to dbg_uart.o(i.fputc) for fputc
    printf6.o(i.__0printf$6) refers to stdout.o(.data) for __stdout
    printf6.o(i.__0snprintf$6) refers to printf6.o(i._printf_core) for _printf_core
    printf6.o(i.__0snprintf$6) refers to printf6.o(i._snputc) for _snputc
    printf6.o(i.__0sprintf$6) refers to printf6.o(i._printf_core) for _printf_core
    printf6.o(i.__0sprintf$6) refers to printf6.o(i._sputc) for _sputc
    printf6.o(i.__0vfprintf$6) refers to printf6.o(i._printf_core) for _printf_core
    printf6.o(i.__0vfprintf$6) refers to dbg_uart.o(i.fputc) for fputc
    printf6.o(i.__0vprintf$6) refers to printf6.o(i._printf_core) for _printf_core
    printf6.o(i.__0vprintf$6) refers to dbg_uart.o(i.fputc) for fputc
    printf6.o(i.__0vprintf$6) refers to stdout.o(.data) for __stdout
    printf6.o(i.__0vsnprintf$6) refers to printf6.o(i._printf_core) for _printf_core
    printf6.o(i.__0vsnprintf$6) refers to printf6.o(i._snputc) for _snputc
    printf6.o(i.__0vsprintf$6) refers to printf6.o(i._printf_core) for _printf_core
    printf6.o(i.__0vsprintf$6) refers to printf6.o(i._sputc) for _sputc
    printf6.o(i._printf_core) refers to printf6.o(i._printf_pre_padding) for _printf_pre_padding
    printf6.o(i._printf_core) refers to uidiv.o(.text) for __aeabi_uidivmod
    printf6.o(i._printf_core) refers to printf6.o(i._printf_post_padding) for _printf_post_padding
    printf7.o(i.__0fprintf$7) refers to printf7.o(i._printf_core) for _printf_core
    printf7.o(i.__0fprintf$7) refers to dbg_uart.o(i.fputc) for fputc
    printf7.o(i.__0printf$7) refers to printf7.o(i._printf_core) for _printf_core
    printf7.o(i.__0printf$7) refers to dbg_uart.o(i.fputc) for fputc
    printf7.o(i.__0printf$7) refers to stdout.o(.data) for __stdout
    printf7.o(i.__0snprintf$7) refers to printf7.o(i._printf_core) for _printf_core
    printf7.o(i.__0snprintf$7) refers to printf7.o(i._snputc) for _snputc
    printf7.o(i.__0sprintf$7) refers to printf7.o(i._printf_core) for _printf_core
    printf7.o(i.__0sprintf$7) refers to printf7.o(i._sputc) for _sputc
    printf7.o(i.__0vfprintf$7) refers to printf7.o(i._printf_core) for _printf_core
    printf7.o(i.__0vfprintf$7) refers to dbg_uart.o(i.fputc) for fputc
    printf7.o(i.__0vprintf$7) refers to printf7.o(i._printf_core) for _printf_core
    printf7.o(i.__0vprintf$7) refers to dbg_uart.o(i.fputc) for fputc
    printf7.o(i.__0vprintf$7) refers to stdout.o(.data) for __stdout
    printf7.o(i.__0vsnprintf$7) refers to printf7.o(i._printf_core) for _printf_core
    printf7.o(i.__0vsnprintf$7) refers to printf7.o(i._snputc) for _snputc
    printf7.o(i.__0vsprintf$7) refers to printf7.o(i._printf_core) for _printf_core
    printf7.o(i.__0vsprintf$7) refers to printf7.o(i._sputc) for _sputc
    printf7.o(i._printf_core) refers to printf7.o(i._printf_pre_padding) for _printf_pre_padding
    printf7.o(i._printf_core) refers to uldiv.o(.text) for __aeabi_uldivmod
    printf7.o(i._printf_core) refers to printf7.o(i._printf_post_padding) for _printf_post_padding
    printf8.o(i.__0fprintf$8) refers to printf8.o(i._printf_core) for _printf_core
    printf8.o(i.__0fprintf$8) refers to dbg_uart.o(i.fputc) for fputc
    printf8.o(i.__0printf$8) refers to printf8.o(i._printf_core) for _printf_core
    printf8.o(i.__0printf$8) refers to dbg_uart.o(i.fputc) for fputc
    printf8.o(i.__0printf$8) refers to stdout.o(.data) for __stdout
    printf8.o(i.__0snprintf$8) refers to printf8.o(i._printf_core) for _printf_core
    printf8.o(i.__0snprintf$8) refers to printf8.o(i._snputc) for _snputc
    printf8.o(i.__0sprintf$8) refers to printf8.o(i._printf_core) for _printf_core
    printf8.o(i.__0sprintf$8) refers to printf8.o(i._sputc) for _sputc
    printf8.o(i.__0vfprintf$8) refers to printf8.o(i._printf_core) for _printf_core
    printf8.o(i.__0vfprintf$8) refers to dbg_uart.o(i.fputc) for fputc
    printf8.o(i.__0vprintf$8) refers to printf8.o(i._printf_core) for _printf_core
    printf8.o(i.__0vprintf$8) refers to dbg_uart.o(i.fputc) for fputc
    printf8.o(i.__0vprintf$8) refers to stdout.o(.data) for __stdout
    printf8.o(i.__0vsnprintf$8) refers to printf8.o(i._printf_core) for _printf_core
    printf8.o(i.__0vsnprintf$8) refers to printf8.o(i._snputc) for _snputc
    printf8.o(i.__0vsprintf$8) refers to printf8.o(i._printf_core) for _printf_core
    printf8.o(i.__0vsprintf$8) refers to printf8.o(i._sputc) for _sputc
    printf8.o(i._printf_core) refers to printf8.o(i._printf_pre_padding) for _printf_pre_padding
    printf8.o(i._printf_core) refers to uldiv.o(.text) for __aeabi_uldivmod
    printf8.o(i._printf_core) refers to printf8.o(i._printf_post_padding) for _printf_post_padding
    printfa.o(i.__0fprintf) refers (Special) to iusefp.o(.text) for __I$use$fp
    printfa.o(i.__0fprintf) refers to printfa.o(i._printf_core) for _printf_core
    printfa.o(i.__0fprintf) refers to dbg_uart.o(i.fputc) for fputc
    printfa.o(i.__0printf) refers (Special) to iusefp.o(.text) for __I$use$fp
    printfa.o(i.__0printf) refers to printfa.o(i._printf_core) for _printf_core
    printfa.o(i.__0printf) refers to dbg_uart.o(i.fputc) for fputc
    printfa.o(i.__0printf) refers to stdout.o(.data) for __stdout
    printfa.o(i.__0snprintf) refers (Special) to iusefp.o(.text) for __I$use$fp
    printfa.o(i.__0snprintf) refers to printfa.o(i._printf_core) for _printf_core
    printfa.o(i.__0snprintf) refers to printfa.o(i._snputc) for _snputc
    printfa.o(i.__0sprintf) refers (Special) to iusefp.o(.text) for __I$use$fp
    printfa.o(i.__0sprintf) refers to printfa.o(i._printf_core) for _printf_core
    printfa.o(i.__0sprintf) refers to printfa.o(i._sputc) for _sputc
    printfa.o(i.__0vfprintf) refers (Special) to iusefp.o(.text) for __I$use$fp
    printfa.o(i.__0vfprintf) refers to printfa.o(i._printf_core) for _printf_core
    printfa.o(i.__0vfprintf) refers to dbg_uart.o(i.fputc) for fputc
    printfa.o(i.__0vprintf) refers (Special) to iusefp.o(.text) for __I$use$fp
    printfa.o(i.__0vprintf) refers to printfa.o(i._printf_core) for _printf_core
    printfa.o(i.__0vprintf) refers to dbg_uart.o(i.fputc) for fputc
    printfa.o(i.__0vprintf) refers to stdout.o(.data) for __stdout
    printfa.o(i.__0vsnprintf) refers (Special) to iusefp.o(.text) for __I$use$fp
    printfa.o(i.__0vsnprintf) refers to printfa.o(i._printf_core) for _printf_core
    printfa.o(i.__0vsnprintf) refers to printfa.o(i._snputc) for _snputc
    printfa.o(i.__0vsprintf) refers (Special) to iusefp.o(.text) for __I$use$fp
    printfa.o(i.__0vsprintf) refers to printfa.o(i._printf_core) for _printf_core
    printfa.o(i.__0vsprintf) refers to printfa.o(i._sputc) for _sputc
    printfa.o(i._fp_digits) refers (Special) to iusefp.o(.text) for __I$use$fp
    printfa.o(i._fp_digits) refers to dmul.o(.text) for __aeabi_dmul
    printfa.o(i._fp_digits) refers to ddiv.o(.text) for __aeabi_ddiv
    printfa.o(i._fp_digits) refers to cdrcmple.o(.text) for __aeabi_cdrcmple
    printfa.o(i._fp_digits) refers to dadd.o(.text) for __aeabi_dadd
    printfa.o(i._fp_digits) refers to dfixul.o(.text) for __aeabi_d2ulz
    printfa.o(i._fp_digits) refers to uldiv.o(.text) for __aeabi_uldivmod
    printfa.o(i._printf_core) refers (Special) to iusefp.o(.text) for __I$use$fp
    printfa.o(i._printf_core) refers to printfa.o(i._printf_pre_padding) for _printf_pre_padding
    printfa.o(i._printf_core) refers to uldiv.o(.text) for __aeabi_uldivmod
    printfa.o(i._printf_core) refers to printfa.o(i._printf_post_padding) for _printf_post_padding
    printfa.o(i._printf_core) refers to printfa.o(i._fp_digits) for _fp_digits
    printfa.o(i._printf_core) refers to uidiv.o(.text) for __aeabi_uidivmod
    printfa.o(i._printf_post_padding) refers (Special) to iusefp.o(.text) for __I$use$fp
    printfa.o(i._printf_pre_padding) refers (Special) to iusefp.o(.text) for __I$use$fp
    printfa.o(i._snputc) refers (Special) to iusefp.o(.text) for __I$use$fp
    printfa.o(i._sputc) refers (Special) to iusefp.o(.text) for __I$use$fp
    __0sscanf.o(.text) refers to scanf_char.o(.text) for __vfscanf_char
    __0sscanf.o(.text) refers to _sgetc.o(.text) for _sgetc
    _scanf_int.o(.text) refers to _chval.o(.text) for _chval
    dadd.o(.text) refers (Special) to iusefp.o(.text) for __I$use$fp
    dadd.o(.text) refers to llshl.o(.text) for __aeabi_llsl
    dadd.o(.text) refers to llsshr.o(.text) for __aeabi_lasr
    dadd.o(.text) refers to depilogue.o(.text) for _double_epilogue
    dmul.o(.text) refers (Special) to iusefp.o(.text) for __I$use$fp
    dmul.o(.text) refers to depilogue.o(.text) for _double_epilogue
    dneg.o(.text) refers (Special) to iusefp.o(.text) for __I$use$fp
    dfltui.o(.text) refers (Special) to iusefp.o(.text) for __I$use$fp
    dfltui.o(.text) refers to depilogue.o(.text) for _double_epilogue
    dfixui.o(.text) refers (Special) to iusefp.o(.text) for __I$use$fp
    dfixui.o(.text) refers to llushr.o(.text) for __aeabi_llsr
    f2d.o(.text) refers (Special) to iusefp.o(.text) for __I$use$fp
    cdcmple.o(.text) refers (Special) to iusefp.o(.text) for __I$use$fp
    cdrcmple.o(.text) refers (Special) to iusefp.o(.text) for __I$use$fp
    fpclassifyf.o(i.__ARM_fpclassifyf) refers (Special) to iusefp.o(.text) for __I$use$fp
    entry2.o(.ARM.Collect$$$$00000001) refers to entry2.o(.ARM.Collect$$$$00002712) for __lit__00000000
    entry2.o(.ARM.Collect$$$$00002712) refers to startup_stm32f429xx.o(STACK) for __initial_sp
    entry2.o(__vectab_stack_and_reset_area) refers to startup_stm32f429xx.o(STACK) for __initial_sp
    entry2.o(__vectab_stack_and_reset_area) refers to entry.o(.ARM.Collect$$$$00000000) for __main
    entry5.o(.ARM.Collect$$$$00000004) refers to init.o(.text) for __scatterload
    entry9a.o(.ARM.Collect$$$$0000000B) refers to main.o(i.main) for main
    entry9b.o(.ARM.Collect$$$$0000000C) refers to main.o(i.main) for main
    errno.o(i.__aeabi_errno_addr) refers to errno.o(.data) for .data
    errno.o(i.__read_errno) refers to errno.o(.data) for .data
    errno.o(i.__set_errno) refers to errno.o(.data) for .data
    scanf_char.o(.text) refers to _scanf.o(.text) for __vfscanf
    scanf_char.o(.text) refers to isspace_c.o(.text) for isspace
    depilogue.o(.text) refers to llshl.o(.text) for __aeabi_llsl
    depilogue.o(.text) refers to llushr.o(.text) for __aeabi_llsr
    ddiv.o(.text) refers to depilogue.o(.text) for _double_round
    dfixul.o(.text) refers to llushr.o(.text) for __aeabi_llsr
    dfixul.o(.text) refers to llshl.o(.text) for __aeabi_llsl
    init.o(.text) refers to entry5.o(.ARM.Collect$$$$00000004) for __main_after_scatterload
    isspace_c.o(.text) refers to ctype_c.o(.text) for __ctype_lookup
    _scanf.o(.text) refers (Weak) to _scanf_int.o(.text) for _scanf_int
    _scanf.o(.text) refers (Weak) to _scanf_str.o(.text) for _scanf_string
    ctype_c.o(.text) refers to ctype_c.o(.constdata) for .constdata


==============================================================================

Removing Unused input sections from the image.

    Removing startup_stm32f429xx.o(HEAP), (512 bytes).
    Removing st-bus_sai_in_out.o(.rev16_text), (4 bytes).
    Removing st-bus_sai_in_out.o(.revsh_text), (4 bytes).
    Removing st-bus_sai_in_out.o(.rrx_text), (6 bytes).
    Removing st-bus_sai_in_out.o(i.SAI_reset), (32 bytes).
    Removing hdlc_rx_low_level.o(.rev16_text), (4 bytes).
    Removing hdlc_rx_low_level.o(.revsh_text), (4 bytes).
    Removing hdlc_rx_low_level.o(.rrx_text), (6 bytes).
    Removing hdlc_rx_low_level.o(i.Dec), (12 bytes).
    Removing hdlc_rx_low_level.o(i.debug), (2 bytes).
    Removing hdlc_rx_low_level.o(i.truncValue), (6 bytes).
    Removing hdlc_tx.o(.rev16_text), (4 bytes).
    Removing hdlc_tx.o(.revsh_text), (4 bytes).
    Removing hdlc_tx.o(.rrx_text), (6 bytes).
    Removing hdlc_tx.o(i.resetHdlcTxFifo), (16 bytes).
    Removing hdlc_tx_low_level.o(.rev16_text), (4 bytes).
    Removing hdlc_tx_low_level.o(.revsh_text), (4 bytes).
    Removing hdlc_tx_low_level.o(.rrx_text), (6 bytes).
    Removing dbg_uart.o(.rev16_text), (4 bytes).
    Removing dbg_uart.o(.revsh_text), (4 bytes).
    Removing dbg_uart.o(.rrx_text), (6 bytes).
    Removing dbg_uart.o(i.dbgUartGetFreeSpace), (24 bytes).
    Removing dbg_uart.o(i.dbgUartIsTxEmpty), (24 bytes).
    Removing dbg_uart.o(i.dbgUartPauseTx), (12 bytes).
    Removing dbg_uart.o(i.dbgUartPuts), (22 bytes).
    Removing dbg_uart.o(i.dbgUartPutsBitArray), (104 bytes).
    Removing dbg_uart.o(i.dbgUartPutsUntil), (22 bytes).
    Removing dbg_uart.o(i.dbgUartReceiveStart), (24 bytes).
    Removing dbg_uart.o(i.dbgUartReceiveStop), (16 bytes).
    Removing dbg_uart.o(i.dbgUartResumeTx), (28 bytes).
    Removing dbg_uart.o(.conststring), (73 bytes).
    Removing main_logic.o(.rev16_text), (4 bytes).
    Removing main_logic.o(.revsh_text), (4 bytes).
    Removing main_logic.o(.rrx_text), (6 bytes).
    Removing main_logic.o(i.setAddr), (10 bytes).
    Removing main_logic.o(i.stopDelay), (12 bytes).
    Removing main_logic.o(i.stopTimeout), (12 bytes).
    Removing uart.o(.rev16_text), (4 bytes).
    Removing uart.o(.revsh_text), (4 bytes).
    Removing uart.o(.rrx_text), (6 bytes).
    Removing uart.o(i.blink), (12 bytes).
    Removing uart.o(i.doRxBlink), (20 bytes).
    Removing uart.o(i.uartPutsN), (26 bytes).
    Removing uart.o(i.uartReceiveStop), (16 bytes).
    Removing uart.o(i.uartTxBufferEmpty), (24 bytes).
    Removing tastature.o(.rev16_text), (4 bytes).
    Removing tastature.o(.revsh_text), (4 bytes).
    Removing tastature.o(.rrx_text), (6 bytes).
    Removing codec_tlv320aic3100.o(.rev16_text), (4 bytes).
    Removing codec_tlv320aic3100.o(.revsh_text), (4 bytes).
    Removing codec_tlv320aic3100.o(.rrx_text), (6 bytes).
    Removing audio_in_out.o(.rev16_text), (4 bytes).
    Removing audio_in_out.o(.revsh_text), (4 bytes).
    Removing audio_in_out.o(.rrx_text), (6 bytes).
    Removing g711.o(.rev16_text), (4 bytes).
    Removing g711.o(.revsh_text), (4 bytes).
    Removing g711.o(.rrx_text), (6 bytes).
    Removing g711.o(i.AudioInit), (16 bytes).
    Removing g711.o(i.alaw2ulaw), (36 bytes).
    Removing g711.o(i.linear2ulaw), (60 bytes).
    Removing g711.o(i.ulaw2alaw), (40 bytes).
    Removing g711.o(i.ulaw2linear), (32 bytes).
    Removing g711.o(.constdata), (2048 bytes).
    Removing potentiometer.o(.rev16_text), (4 bytes).
    Removing potentiometer.o(.revsh_text), (4 bytes).
    Removing potentiometer.o(.rrx_text), (6 bytes).
    Removing potentiometer.o(.constdata), (8 bytes).
    Removing volume_control.o(.rev16_text), (4 bytes).
    Removing volume_control.o(.revsh_text), (4 bytes).
    Removing volume_control.o(.rrx_text), (6 bytes).
    Removing main.o(.rev16_text), (4 bytes).
    Removing main.o(.revsh_text), (4 bytes).
    Removing main.o(.rrx_text), (6 bytes).
    Removing main.o(i.ReadProtect), (56 bytes).
    Removing stm32f4xx_it.o(.rev16_text), (4 bytes).
    Removing stm32f4xx_it.o(.revsh_text), (4 bytes).
    Removing stm32f4xx_it.o(.rrx_text), (6 bytes).
    Removing stm32f4xx_hal_msp.o(.rev16_text), (4 bytes).
    Removing stm32f4xx_hal_msp.o(.revsh_text), (4 bytes).
    Removing stm32f4xx_hal_msp.o(.rrx_text), (6 bytes).
    Removing stm32f4xx_hal_msp.o(i.HAL_ADC_MspDeInit), (56 bytes).
    Removing stm32f4xx_hal_msp.o(i.HAL_I2C_MspDeInit), (40 bytes).
    Removing stm32f4xx_hal_msp.o(i.HAL_I2S_MspDeInit), (88 bytes).
    Removing stm32f4xx_hal_msp.o(i.HAL_SAI_MspDeInit), (128 bytes).
    Removing stm32f4xx_hal_adc.o(.rev16_text), (4 bytes).
    Removing stm32f4xx_hal_adc.o(.revsh_text), (4 bytes).
    Removing stm32f4xx_hal_adc.o(.rrx_text), (6 bytes).
    Removing stm32f4xx_hal_adc.o(i.HAL_ADC_AnalogWDGConfig), (112 bytes).
    Removing stm32f4xx_hal_adc.o(i.HAL_ADC_ConvCpltCallback), (2 bytes).
    Removing stm32f4xx_hal_adc.o(i.HAL_ADC_ConvHalfCpltCallback), (2 bytes).
    Removing stm32f4xx_hal_adc.o(i.HAL_ADC_DeInit), (60 bytes).
    Removing stm32f4xx_hal_adc.o(i.HAL_ADC_GetError), (4 bytes).
    Removing stm32f4xx_hal_adc.o(i.HAL_ADC_GetState), (4 bytes).
    Removing stm32f4xx_hal_adc.o(i.HAL_ADC_GetValue), (6 bytes).
    Removing stm32f4xx_hal_adc.o(i.HAL_ADC_IRQHandler), (316 bytes).
    Removing stm32f4xx_hal_adc.o(i.HAL_ADC_LevelOutOfWindowCallback), (2 bytes).
    Removing stm32f4xx_hal_adc.o(i.HAL_ADC_MspDeInit), (2 bytes).
    Removing stm32f4xx_hal_adc.o(i.HAL_ADC_MspInit), (2 bytes).
    Removing stm32f4xx_hal_adc.o(i.HAL_ADC_PollForConversion), (162 bytes).
    Removing stm32f4xx_hal_adc.o(i.HAL_ADC_PollForEvent), (108 bytes).
    Removing stm32f4xx_hal_adc.o(i.HAL_ADC_Start), (236 bytes).
    Removing stm32f4xx_hal_adc.o(i.HAL_ADC_Start_IT), (248 bytes).
    Removing stm32f4xx_hal_adc.o(i.HAL_ADC_Stop), (60 bytes).
    Removing stm32f4xx_hal_adc.o(i.HAL_ADC_Stop_DMA), (88 bytes).
    Removing stm32f4xx_hal_adc.o(i.HAL_ADC_Stop_IT), (72 bytes).
    Removing stm32f4xx_hal_adc_ex.o(.rev16_text), (4 bytes).
    Removing stm32f4xx_hal_adc_ex.o(.revsh_text), (4 bytes).
    Removing stm32f4xx_hal_adc_ex.o(.rrx_text), (6 bytes).
    Removing stm32f4xx_hal_adc_ex.o(i.ADC_MultiModeDMAConvCplt), (90 bytes).
    Removing stm32f4xx_hal_adc_ex.o(i.ADC_MultiModeDMAError), (18 bytes).
    Removing stm32f4xx_hal_adc_ex.o(i.ADC_MultiModeDMAHalfConvCplt), (6 bytes).
    Removing stm32f4xx_hal_adc_ex.o(i.HAL_ADCEx_InjectedConfigChannel), (448 bytes).
    Removing stm32f4xx_hal_adc_ex.o(i.HAL_ADCEx_InjectedConvCpltCallback), (2 bytes).
    Removing stm32f4xx_hal_adc_ex.o(i.HAL_ADCEx_InjectedGetValue), (58 bytes).
    Removing stm32f4xx_hal_adc_ex.o(i.HAL_ADCEx_InjectedPollForConversion), (136 bytes).
    Removing stm32f4xx_hal_adc_ex.o(i.HAL_ADCEx_InjectedStart), (196 bytes).
    Removing stm32f4xx_hal_adc_ex.o(i.HAL_ADCEx_InjectedStart_IT), (204 bytes).
    Removing stm32f4xx_hal_adc_ex.o(i.HAL_ADCEx_InjectedStop), (86 bytes).
    Removing stm32f4xx_hal_adc_ex.o(i.HAL_ADCEx_InjectedStop_IT), (94 bytes).
    Removing stm32f4xx_hal_adc_ex.o(i.HAL_ADCEx_MultiModeConfigChannel), (84 bytes).
    Removing stm32f4xx_hal_adc_ex.o(i.HAL_ADCEx_MultiModeGetValue), (12 bytes).
    Removing stm32f4xx_hal_adc_ex.o(i.HAL_ADCEx_MultiModeStart_DMA), (252 bytes).
    Removing stm32f4xx_hal_adc_ex.o(i.HAL_ADCEx_MultiModeStop_DMA), (96 bytes).
    Removing stm32f4xx_hal_rcc.o(.rev16_text), (4 bytes).
    Removing stm32f4xx_hal_rcc.o(.revsh_text), (4 bytes).
    Removing stm32f4xx_hal_rcc.o(.rrx_text), (6 bytes).
    Removing stm32f4xx_hal_rcc.o(i.HAL_RCC_CSSCallback), (2 bytes).
    Removing stm32f4xx_hal_rcc.o(i.HAL_RCC_DeInit), (4 bytes).
    Removing stm32f4xx_hal_rcc.o(i.HAL_RCC_DisableCSS), (12 bytes).
    Removing stm32f4xx_hal_rcc.o(i.HAL_RCC_EnableCSS), (12 bytes).
    Removing stm32f4xx_hal_rcc.o(i.HAL_RCC_GetClockConfig), (64 bytes).
    Removing stm32f4xx_hal_rcc.o(i.HAL_RCC_GetHCLKFreq), (12 bytes).
    Removing stm32f4xx_hal_rcc.o(i.HAL_RCC_GetOscConfig), (180 bytes).
    Removing stm32f4xx_hal_rcc.o(i.HAL_RCC_GetPCLK2Freq), (32 bytes).
    Removing stm32f4xx_hal_rcc.o(i.HAL_RCC_MCOConfig), (140 bytes).
    Removing stm32f4xx_hal_rcc.o(i.HAL_RCC_NMI_IRQHandler), (28 bytes).
    Removing stm32f4xx_hal_rcc_ex.o(.rev16_text), (4 bytes).
    Removing stm32f4xx_hal_rcc_ex.o(.revsh_text), (4 bytes).
    Removing stm32f4xx_hal_rcc_ex.o(.rrx_text), (6 bytes).
    Removing stm32f4xx_hal_rcc_ex.o(i.HAL_RCCEx_DisablePLLI2S), (52 bytes).
    Removing stm32f4xx_hal_rcc_ex.o(i.HAL_RCCEx_DisablePLLSAI), (56 bytes).
    Removing stm32f4xx_hal_rcc_ex.o(i.HAL_RCCEx_EnablePLLI2S), (112 bytes).
    Removing stm32f4xx_hal_rcc_ex.o(i.HAL_RCCEx_EnablePLLSAI), (112 bytes).
    Removing stm32f4xx_hal_rcc_ex.o(i.HAL_RCCEx_GetPeriphCLKConfig), (132 bytes).
    Removing stm32f4xx_hal_rcc_ex.o(i.HAL_RCC_DeInit), (360 bytes).
    Removing stm32f4xx_hal_flash.o(.rev16_text), (4 bytes).
    Removing stm32f4xx_hal_flash.o(.revsh_text), (4 bytes).
    Removing stm32f4xx_hal_flash.o(.rrx_text), (6 bytes).
    Removing stm32f4xx_hal_flash.o(i.FLASH_Program_Byte), (32 bytes).
    Removing stm32f4xx_hal_flash.o(i.FLASH_Program_DoubleWord), (44 bytes).
    Removing stm32f4xx_hal_flash.o(i.FLASH_Program_HalfWord), (36 bytes).
    Removing stm32f4xx_hal_flash.o(i.FLASH_Program_Word), (36 bytes).
    Removing stm32f4xx_hal_flash.o(i.FLASH_SetErrorCode), (124 bytes).
    Removing stm32f4xx_hal_flash.o(i.FLASH_WaitForLastOperation), (80 bytes).
    Removing stm32f4xx_hal_flash.o(i.HAL_FLASH_EndOfOperationCallback), (2 bytes).
    Removing stm32f4xx_hal_flash.o(i.HAL_FLASH_GetError), (12 bytes).
    Removing stm32f4xx_hal_flash.o(i.HAL_FLASH_IRQHandler), (204 bytes).
    Removing stm32f4xx_hal_flash.o(i.HAL_FLASH_Lock), (20 bytes).
    Removing stm32f4xx_hal_flash.o(i.HAL_FLASH_OB_Launch), (24 bytes).
    Removing stm32f4xx_hal_flash.o(i.HAL_FLASH_OB_Lock), (20 bytes).
    Removing stm32f4xx_hal_flash.o(i.HAL_FLASH_OB_Unlock), (40 bytes).
    Removing stm32f4xx_hal_flash.o(i.HAL_FLASH_OperationErrorCallback), (2 bytes).
    Removing stm32f4xx_hal_flash.o(i.HAL_FLASH_Program), (124 bytes).
    Removing stm32f4xx_hal_flash.o(i.HAL_FLASH_Program_IT), (108 bytes).
    Removing stm32f4xx_hal_flash.o(i.HAL_FLASH_Unlock), (44 bytes).
    Removing stm32f4xx_hal_flash.o(.bss), (32 bytes).
    Removing stm32f4xx_hal_flash_ex.o(.rev16_text), (4 bytes).
    Removing stm32f4xx_hal_flash_ex.o(.revsh_text), (4 bytes).
    Removing stm32f4xx_hal_flash_ex.o(.rrx_text), (6 bytes).
    Removing stm32f4xx_hal_flash_ex.o(i.FLASH_Erase_Sector), (84 bytes).
    Removing stm32f4xx_hal_flash_ex.o(i.FLASH_FlushCaches), (84 bytes).
    Removing stm32f4xx_hal_flash_ex.o(i.FLASH_MassErase), (64 bytes).
    Removing stm32f4xx_hal_flash_ex.o(i.FLASH_OB_DisableWRP), (112 bytes).
    Removing stm32f4xx_hal_flash_ex.o(i.FLASH_OB_EnableWRP), (116 bytes).
    Removing stm32f4xx_hal_flash_ex.o(i.HAL_FLASHEx_AdvOBGetConfig), (28 bytes).
    Removing stm32f4xx_hal_flash_ex.o(i.HAL_FLASHEx_AdvOBProgram), (188 bytes).
    Removing stm32f4xx_hal_flash_ex.o(i.HAL_FLASHEx_Erase), (156 bytes).
    Removing stm32f4xx_hal_flash_ex.o(i.HAL_FLASHEx_Erase_IT), (104 bytes).
    Removing stm32f4xx_hal_flash_ex.o(i.HAL_FLASHEx_OBGetConfig), (64 bytes).
    Removing stm32f4xx_hal_flash_ex.o(i.HAL_FLASHEx_OBProgram), (184 bytes).
    Removing stm32f4xx_hal_flash_ex.o(i.HAL_FLASHEx_OB_DeSelectPCROP), (20 bytes).
    Removing stm32f4xx_hal_flash_ex.o(i.HAL_FLASHEx_OB_GetBank2WRP), (12 bytes).
    Removing stm32f4xx_hal_flash_ex.o(i.HAL_FLASHEx_OB_SelectPCROP), (24 bytes).
    Removing stm32f4xx_hal_flash_ramfunc.o(.rev16_text), (4 bytes).
    Removing stm32f4xx_hal_flash_ramfunc.o(.revsh_text), (4 bytes).
    Removing stm32f4xx_hal_flash_ramfunc.o(.rrx_text), (6 bytes).
    Removing stm32f4xx_hal_gpio.o(.rev16_text), (4 bytes).
    Removing stm32f4xx_hal_gpio.o(.revsh_text), (4 bytes).
    Removing stm32f4xx_hal_gpio.o(.rrx_text), (6 bytes).
    Removing stm32f4xx_hal_gpio.o(i.HAL_GPIO_DeInit), (396 bytes).
    Removing stm32f4xx_hal_gpio.o(i.HAL_GPIO_EXTI_Callback), (2 bytes).
    Removing stm32f4xx_hal_gpio.o(i.HAL_GPIO_EXTI_IRQHandler), (24 bytes).
    Removing stm32f4xx_hal_gpio.o(i.HAL_GPIO_LockPin), (34 bytes).
    Removing stm32f4xx_hal_dma_ex.o(.rev16_text), (4 bytes).
    Removing stm32f4xx_hal_dma_ex.o(.revsh_text), (4 bytes).
    Removing stm32f4xx_hal_dma_ex.o(.rrx_text), (6 bytes).
    Removing stm32f4xx_hal_dma_ex.o(i.DMA_MultiBufferSetConfig), (30 bytes).
    Removing stm32f4xx_hal_dma_ex.o(i.HAL_DMAEx_ChangeMemory), (14 bytes).
    Removing stm32f4xx_hal_dma_ex.o(i.HAL_DMAEx_MultiBufferStart), (100 bytes).
    Removing stm32f4xx_hal_dma_ex.o(i.HAL_DMAEx_MultiBufferStart_IT), (2432 bytes).
    Removing stm32f4xx_hal_dma.o(.rev16_text), (4 bytes).
    Removing stm32f4xx_hal_dma.o(.revsh_text), (4 bytes).
    Removing stm32f4xx_hal_dma.o(.rrx_text), (6 bytes).
    Removing stm32f4xx_hal_dma.o(i.HAL_DMA_Abort), (142 bytes).
    Removing stm32f4xx_hal_dma.o(i.HAL_DMA_Abort_IT), (36 bytes).
    Removing stm32f4xx_hal_dma.o(i.HAL_DMA_DeInit), (98 bytes).
    Removing stm32f4xx_hal_dma.o(i.HAL_DMA_GetError), (4 bytes).
    Removing stm32f4xx_hal_dma.o(i.HAL_DMA_GetState), (6 bytes).
    Removing stm32f4xx_hal_dma.o(i.HAL_DMA_PollForTransfer), (292 bytes).
    Removing stm32f4xx_hal_dma.o(i.HAL_DMA_RegisterCallback), (80 bytes).
    Removing stm32f4xx_hal_dma.o(i.HAL_DMA_Start), (70 bytes).
    Removing stm32f4xx_hal_dma.o(i.HAL_DMA_UnRegisterCallback), (96 bytes).
    Removing stm32f4xx_hal_pwr.o(.rev16_text), (4 bytes).
    Removing stm32f4xx_hal_pwr.o(.revsh_text), (4 bytes).
    Removing stm32f4xx_hal_pwr.o(.rrx_text), (6 bytes).
    Removing stm32f4xx_hal_pwr.o(i.HAL_PWR_ConfigPVD), (124 bytes).
    Removing stm32f4xx_hal_pwr.o(i.HAL_PWR_DeInit), (24 bytes).
    Removing stm32f4xx_hal_pwr.o(i.HAL_PWR_DisableBkUpAccess), (12 bytes).
    Removing stm32f4xx_hal_pwr.o(i.HAL_PWR_DisablePVD), (12 bytes).
    Removing stm32f4xx_hal_pwr.o(i.HAL_PWR_DisableSEVOnPend), (16 bytes).
    Removing stm32f4xx_hal_pwr.o(i.HAL_PWR_DisableSleepOnExit), (16 bytes).
    Removing stm32f4xx_hal_pwr.o(i.HAL_PWR_DisableWakeUpPin), (16 bytes).
    Removing stm32f4xx_hal_pwr.o(i.HAL_PWR_EnableBkUpAccess), (12 bytes).
    Removing stm32f4xx_hal_pwr.o(i.HAL_PWR_EnablePVD), (12 bytes).
    Removing stm32f4xx_hal_pwr.o(i.HAL_PWR_EnableSEVOnPend), (16 bytes).
    Removing stm32f4xx_hal_pwr.o(i.HAL_PWR_EnableSleepOnExit), (16 bytes).
    Removing stm32f4xx_hal_pwr.o(i.HAL_PWR_EnableWakeUpPin), (16 bytes).
    Removing stm32f4xx_hal_pwr.o(i.HAL_PWR_EnterSLEEPMode), (32 bytes).
    Removing stm32f4xx_hal_pwr.o(i.HAL_PWR_EnterSTANDBYMode), (32 bytes).
    Removing stm32f4xx_hal_pwr.o(i.HAL_PWR_EnterSTOPMode), (56 bytes).
    Removing stm32f4xx_hal_pwr.o(i.HAL_PWR_PVDCallback), (2 bytes).
    Removing stm32f4xx_hal_pwr.o(i.HAL_PWR_PVD_IRQHandler), (28 bytes).
    Removing stm32f4xx_hal_pwr_ex.o(.rev16_text), (4 bytes).
    Removing stm32f4xx_hal_pwr_ex.o(.revsh_text), (4 bytes).
    Removing stm32f4xx_hal_pwr_ex.o(.rrx_text), (6 bytes).
    Removing stm32f4xx_hal_pwr_ex.o(i.HAL_PWREx_ControlVoltageScaling), (176 bytes).
    Removing stm32f4xx_hal_pwr_ex.o(i.HAL_PWREx_DisableBkUpReg), (60 bytes).
    Removing stm32f4xx_hal_pwr_ex.o(i.HAL_PWREx_DisableFlashPowerDown), (12 bytes).
    Removing stm32f4xx_hal_pwr_ex.o(i.HAL_PWREx_DisableOverDrive), (112 bytes).
    Removing stm32f4xx_hal_pwr_ex.o(i.HAL_PWREx_EnableBkUpReg), (60 bytes).
    Removing stm32f4xx_hal_pwr_ex.o(i.HAL_PWREx_EnableFlashPowerDown), (12 bytes).
    Removing stm32f4xx_hal_pwr_ex.o(i.HAL_PWREx_EnterUnderDriveSTOPMode), (96 bytes).
    Removing stm32f4xx_hal_pwr_ex.o(i.HAL_PWREx_GetVoltageRange), (16 bytes).
    Removing stm32f4xx_hal_cortex.o(.rev16_text), (4 bytes).
    Removing stm32f4xx_hal_cortex.o(.revsh_text), (4 bytes).
    Removing stm32f4xx_hal_cortex.o(.rrx_text), (6 bytes).
    Removing stm32f4xx_hal_cortex.o(i.HAL_MPU_ConfigRegion), (84 bytes).
    Removing stm32f4xx_hal_cortex.o(i.HAL_MPU_Disable), (28 bytes).
    Removing stm32f4xx_hal_cortex.o(i.HAL_MPU_Enable), (36 bytes).
    Removing stm32f4xx_hal_cortex.o(i.HAL_NVIC_ClearPendingIRQ), (26 bytes).
    Removing stm32f4xx_hal_cortex.o(i.HAL_NVIC_GetActive), (36 bytes).
    Removing stm32f4xx_hal_cortex.o(i.HAL_NVIC_GetPendingIRQ), (36 bytes).
    Removing stm32f4xx_hal_cortex.o(i.HAL_NVIC_GetPriority), (82 bytes).
    Removing stm32f4xx_hal_cortex.o(i.HAL_NVIC_GetPriorityGrouping), (16 bytes).
    Removing stm32f4xx_hal_cortex.o(i.HAL_NVIC_SetPendingIRQ), (26 bytes).
    Removing stm32f4xx_hal_cortex.o(i.HAL_NVIC_SystemReset), (36 bytes).
    Removing stm32f4xx_hal_cortex.o(i.HAL_SYSTICK_CLKSourceConfig), (24 bytes).
    Removing stm32f4xx_hal_cortex.o(i.HAL_SYSTICK_Callback), (2 bytes).
    Removing stm32f4xx_hal_cortex.o(i.HAL_SYSTICK_IRQHandler), (8 bytes).
    Removing stm32f4xx_hal.o(.rev16_text), (4 bytes).
    Removing stm32f4xx_hal.o(.revsh_text), (4 bytes).
    Removing stm32f4xx_hal.o(.rrx_text), (6 bytes).
    Removing stm32f4xx_hal.o(i.HAL_DBGMCU_DisableDBGSleepMode), (16 bytes).
    Removing stm32f4xx_hal.o(i.HAL_DBGMCU_DisableDBGStandbyMode), (16 bytes).
    Removing stm32f4xx_hal.o(i.HAL_DBGMCU_DisableDBGStopMode), (16 bytes).
    Removing stm32f4xx_hal.o(i.HAL_DBGMCU_EnableDBGSleepMode), (16 bytes).
    Removing stm32f4xx_hal.o(i.HAL_DBGMCU_EnableDBGStandbyMode), (16 bytes).
    Removing stm32f4xx_hal.o(i.HAL_DBGMCU_EnableDBGStopMode), (16 bytes).
    Removing stm32f4xx_hal.o(i.HAL_DeInit), (52 bytes).
    Removing stm32f4xx_hal.o(i.HAL_DisableCompensationCell), (12 bytes).
    Removing stm32f4xx_hal.o(i.HAL_DisableMemorySwappingBank), (12 bytes).
    Removing stm32f4xx_hal.o(i.HAL_EnableCompensationCell), (12 bytes).
    Removing stm32f4xx_hal.o(i.HAL_EnableMemorySwappingBank), (12 bytes).
    Removing stm32f4xx_hal.o(i.HAL_GetDEVID), (16 bytes).
    Removing stm32f4xx_hal.o(i.HAL_GetHalVersion), (8 bytes).
    Removing stm32f4xx_hal.o(i.HAL_GetREVID), (12 bytes).
    Removing stm32f4xx_hal.o(i.HAL_GetTickFreq), (12 bytes).
    Removing stm32f4xx_hal.o(i.HAL_GetTickPrio), (12 bytes).
    Removing stm32f4xx_hal.o(i.HAL_GetUIDw0), (12 bytes).
    Removing stm32f4xx_hal.o(i.HAL_GetUIDw1), (12 bytes).
    Removing stm32f4xx_hal.o(i.HAL_GetUIDw2), (12 bytes).
    Removing stm32f4xx_hal.o(i.HAL_MspDeInit), (2 bytes).
    Removing stm32f4xx_hal.o(i.HAL_MspInit), (2 bytes).
    Removing stm32f4xx_hal.o(i.HAL_ResumeTick), (14 bytes).
    Removing stm32f4xx_hal.o(i.HAL_SetTickFreq), (36 bytes).
    Removing stm32f4xx_hal.o(i.HAL_SuspendTick), (14 bytes).
    Removing stm32f4xx_hal_exti.o(.rev16_text), (4 bytes).
    Removing stm32f4xx_hal_exti.o(.revsh_text), (4 bytes).
    Removing stm32f4xx_hal_exti.o(.rrx_text), (6 bytes).
    Removing stm32f4xx_hal_exti.o(i.HAL_EXTI_ClearConfigLine), (108 bytes).
    Removing stm32f4xx_hal_exti.o(i.HAL_EXTI_ClearPending), (20 bytes).
    Removing stm32f4xx_hal_exti.o(i.HAL_EXTI_GenerateSWI), (20 bytes).
    Removing stm32f4xx_hal_exti.o(i.HAL_EXTI_GetConfigLine), (156 bytes).
    Removing stm32f4xx_hal_exti.o(i.HAL_EXTI_GetHandle), (12 bytes).
    Removing stm32f4xx_hal_exti.o(i.HAL_EXTI_GetPending), (24 bytes).
    Removing stm32f4xx_hal_exti.o(i.HAL_EXTI_IRQHandler), (36 bytes).
    Removing stm32f4xx_hal_exti.o(i.HAL_EXTI_RegisterCallback), (14 bytes).
    Removing stm32f4xx_hal_exti.o(i.HAL_EXTI_SetConfigLine), (168 bytes).
    Removing stm32f4xx_ll_rcc.o(.rev16_text), (4 bytes).
    Removing stm32f4xx_ll_rcc.o(.revsh_text), (4 bytes).
    Removing stm32f4xx_ll_rcc.o(.rrx_text), (6 bytes).
    Removing stm32f4xx_ll_rcc.o(i.LL_RCC_DeInit), (180 bytes).
    Removing stm32f4xx_ll_rcc.o(i.LL_RCC_GetI2SClockFreq), (48 bytes).
    Removing stm32f4xx_ll_rcc.o(i.LL_RCC_GetLTDCClockFreq), (24 bytes).
    Removing stm32f4xx_ll_rcc.o(i.LL_RCC_GetRNGClockFreq), (20 bytes).
    Removing stm32f4xx_ll_rcc.o(i.LL_RCC_GetSAIClockFreq), (104 bytes).
    Removing stm32f4xx_ll_rcc.o(i.LL_RCC_GetSDIOClockFreq), (26 bytes).
    Removing stm32f4xx_ll_rcc.o(i.LL_RCC_GetUSBClockFreq), (20 bytes).
    Removing stm32f4xx_ll_rcc.o(i.LL_RCC_PLL_IsReady), (16 bytes).
    Removing stm32f4xx_ll_rcc.o(i.RCC_PLLI2S_GetFreqDomain_I2S), (68 bytes).
    Removing stm32f4xx_ll_rcc.o(i.RCC_PLLI2S_GetFreqDomain_SAI), (84 bytes).
    Removing stm32f4xx_ll_rcc.o(i.RCC_PLLSAI_GetFreqDomain_LTDC), (92 bytes).
    Removing stm32f4xx_ll_rcc.o(i.RCC_PLLSAI_GetFreqDomain_SAI), (84 bytes).
    Removing stm32f4xx_ll_rcc.o(i.RCC_PLL_GetFreqDomain_48M), (60 bytes).
    Removing stm32f4xx_ll_rcc.o(.constdata), (4 bytes).
    Removing stm32f4xx_ll_utils.o(.rev16_text), (4 bytes).
    Removing stm32f4xx_ll_utils.o(.revsh_text), (4 bytes).
    Removing stm32f4xx_ll_utils.o(.rrx_text), (6 bytes).
    Removing stm32f4xx_ll_utils.o(i.LL_Init1msTick), (26 bytes).
    Removing stm32f4xx_ll_utils.o(i.LL_PLL_ConfigSystemClock_HSE), (108 bytes).
    Removing stm32f4xx_ll_utils.o(i.LL_PLL_ConfigSystemClock_HSI), (84 bytes).
    Removing stm32f4xx_ll_utils.o(i.LL_RCC_PLL_ConfigDomain_SYS), (40 bytes).
    Removing stm32f4xx_ll_utils.o(i.LL_SetSystemCoreClock), (12 bytes).
    Removing stm32f4xx_ll_utils.o(i.LL_mDelay), (30 bytes).
    Removing stm32f4xx_ll_utils.o(i.UTILS_EnablePLLAndSwitchSystem), (152 bytes).
    Removing stm32f4xx_ll_utils.o(i.UTILS_GetPLLOutputFrequency), (32 bytes).
    Removing stm32f4xx_ll_utils.o(i.UTILS_PLL_IsBusy), (44 bytes).
    Removing stm32f4xx_ll_utils.o(i.UTILS_SetFlashLatency), (236 bytes).
    Removing stm32f4xx_ll_exti.o(.rev16_text), (4 bytes).
    Removing stm32f4xx_ll_exti.o(.revsh_text), (4 bytes).
    Removing stm32f4xx_ll_exti.o(.rrx_text), (6 bytes).
    Removing stm32f4xx_ll_exti.o(i.LL_EXTI_DeInit), (40 bytes).
    Removing stm32f4xx_ll_exti.o(i.LL_EXTI_Init), (160 bytes).
    Removing stm32f4xx_ll_exti.o(i.LL_EXTI_StructInit), (14 bytes).
    Removing stm32f4xx_hal_i2c.o(.rev16_text), (4 bytes).
    Removing stm32f4xx_hal_i2c.o(.revsh_text), (4 bytes).
    Removing stm32f4xx_hal_i2c.o(.rrx_text), (6 bytes).
    Removing stm32f4xx_hal_i2c.o(i.HAL_I2C_AbortCpltCallback), (2 bytes).
    Removing stm32f4xx_hal_i2c.o(i.HAL_I2C_AddrCallback), (2 bytes).
    Removing stm32f4xx_hal_i2c.o(i.HAL_I2C_DeInit), (50 bytes).
    Removing stm32f4xx_hal_i2c.o(i.HAL_I2C_DisableListen_IT), (68 bytes).
    Removing stm32f4xx_hal_i2c.o(i.HAL_I2C_ER_IRQHandler), (186 bytes).
    Removing stm32f4xx_hal_i2c.o(i.HAL_I2C_EV_IRQHandler), (614 bytes).
    Removing stm32f4xx_hal_i2c.o(i.HAL_I2C_EnableListen_IT), (58 bytes).
    Removing stm32f4xx_hal_i2c.o(i.HAL_I2C_ErrorCallback), (2 bytes).
    Removing stm32f4xx_hal_i2c.o(i.HAL_I2C_GetError), (4 bytes).
    Removing stm32f4xx_hal_i2c.o(i.HAL_I2C_GetMode), (6 bytes).
    Removing stm32f4xx_hal_i2c.o(i.HAL_I2C_GetState), (6 bytes).
    Removing stm32f4xx_hal_i2c.o(i.HAL_I2C_IsDeviceReady), (364 bytes).
    Removing stm32f4xx_hal_i2c.o(i.HAL_I2C_ListenCpltCallback), (2 bytes).
    Removing stm32f4xx_hal_i2c.o(i.HAL_I2C_MasterRxCpltCallback), (2 bytes).
    Removing stm32f4xx_hal_i2c.o(i.HAL_I2C_MasterTxCpltCallback), (2 bytes).
    Removing stm32f4xx_hal_i2c.o(i.HAL_I2C_Master_Abort_IT), (94 bytes).
    Removing stm32f4xx_hal_i2c.o(i.HAL_I2C_Master_Receive), (480 bytes).
    Removing stm32f4xx_hal_i2c.o(i.HAL_I2C_Master_Receive_DMA), (332 bytes).
    Removing stm32f4xx_hal_i2c.o(i.HAL_I2C_Master_Receive_IT), (200 bytes).
    Removing stm32f4xx_hal_i2c.o(i.HAL_I2C_Master_Seq_Receive_DMA), (488 bytes).
    Removing stm32f4xx_hal_i2c.o(i.HAL_I2C_Master_Seq_Receive_IT), (324 bytes).
    Removing stm32f4xx_hal_i2c.o(i.HAL_I2C_Master_Seq_Transmit_DMA), (436 bytes).
    Removing stm32f4xx_hal_i2c.o(i.HAL_I2C_Master_Seq_Transmit_IT), (216 bytes).
    Removing stm32f4xx_hal_i2c.o(i.HAL_I2C_Master_Transmit), (300 bytes).
    Removing stm32f4xx_hal_i2c.o(i.HAL_I2C_Master_Transmit_DMA), (332 bytes).
    Removing stm32f4xx_hal_i2c.o(i.HAL_I2C_Master_Transmit_IT), (188 bytes).
    Removing stm32f4xx_hal_i2c.o(i.HAL_I2C_MemRxCpltCallback), (2 bytes).
    Removing stm32f4xx_hal_i2c.o(i.HAL_I2C_MemTxCpltCallback), (2 bytes).
    Removing stm32f4xx_hal_i2c.o(i.HAL_I2C_Mem_Read_DMA), (440 bytes).
    Removing stm32f4xx_hal_i2c.o(i.HAL_I2C_Mem_Read_IT), (224 bytes).
    Removing stm32f4xx_hal_i2c.o(i.HAL_I2C_Mem_Write_DMA), (384 bytes).
    Removing stm32f4xx_hal_i2c.o(i.HAL_I2C_Mem_Write_IT), (212 bytes).
    Removing stm32f4xx_hal_i2c.o(i.HAL_I2C_MspDeInit), (2 bytes).
    Removing stm32f4xx_hal_i2c.o(i.HAL_I2C_MspInit), (2 bytes).
    Removing stm32f4xx_hal_i2c.o(i.HAL_I2C_SlaveRxCpltCallback), (2 bytes).
    Removing stm32f4xx_hal_i2c.o(i.HAL_I2C_SlaveTxCpltCallback), (2 bytes).
    Removing stm32f4xx_hal_i2c.o(i.HAL_I2C_Slave_Receive), (364 bytes).
    Removing stm32f4xx_hal_i2c.o(i.HAL_I2C_Slave_Receive_DMA), (212 bytes).
    Removing stm32f4xx_hal_i2c.o(i.HAL_I2C_Slave_Receive_IT), (124 bytes).
    Removing stm32f4xx_hal_i2c.o(i.HAL_I2C_Slave_Seq_Receive_DMA), (328 bytes).
    Removing stm32f4xx_hal_i2c.o(i.HAL_I2C_Slave_Seq_Receive_IT), (116 bytes).
    Removing stm32f4xx_hal_i2c.o(i.HAL_I2C_Slave_Seq_Transmit_DMA), (328 bytes).
    Removing stm32f4xx_hal_i2c.o(i.HAL_I2C_Slave_Seq_Transmit_IT), (116 bytes).
    Removing stm32f4xx_hal_i2c.o(i.HAL_I2C_Slave_Transmit), (348 bytes).
    Removing stm32f4xx_hal_i2c.o(i.HAL_I2C_Slave_Transmit_DMA), (212 bytes).
    Removing stm32f4xx_hal_i2c.o(i.HAL_I2C_Slave_Transmit_IT), (124 bytes).
    Removing stm32f4xx_hal_i2c.o(i.I2C_DMAAbort), (188 bytes).
    Removing stm32f4xx_hal_i2c.o(i.I2C_DMAError), (64 bytes).
    Removing stm32f4xx_hal_i2c.o(i.I2C_DMAXferCplt), (266 bytes).
    Removing stm32f4xx_hal_i2c.o(i.I2C_ITError), (344 bytes).
    Removing stm32f4xx_hal_i2c.o(i.I2C_MasterReceive_BTF), (210 bytes).
    Removing stm32f4xx_hal_i2c.o(i.I2C_MasterReceive_RXNE), (232 bytes).
    Removing stm32f4xx_hal_i2c.o(i.I2C_MasterRequestRead), (236 bytes).
    Removing stm32f4xx_hal_i2c.o(i.I2C_MasterRequestWrite), (156 bytes).
    Removing stm32f4xx_hal_i2c.o(i.I2C_MasterTransmit_BTF), (116 bytes).
    Removing stm32f4xx_hal_i2c.o(i.I2C_MasterTransmit_TXE), (182 bytes).
    Removing stm32f4xx_hal_i2c.o(i.I2C_Master_ADDR), (280 bytes).
    Removing stm32f4xx_hal_i2c.o(i.I2C_Master_SB), (140 bytes).
    Removing stm32f4xx_hal_i2c.o(i.I2C_MemoryTransmit_TXE_BTF), (160 bytes).
    Removing stm32f4xx_hal_i2c.o(i.I2C_Slave_AF), (132 bytes).
    Removing stm32f4xx_hal_i2c.o(i.I2C_Slave_STOPF), (348 bytes).
    Removing stm32f4xx_hal_i2c_ex.o(.rev16_text), (4 bytes).
    Removing stm32f4xx_hal_i2c_ex.o(.revsh_text), (4 bytes).
    Removing stm32f4xx_hal_i2c_ex.o(.rrx_text), (6 bytes).
    Removing stm32f4xx_hal_i2s.o(.rev16_text), (4 bytes).
    Removing stm32f4xx_hal_i2s.o(.revsh_text), (4 bytes).
    Removing stm32f4xx_hal_i2s.o(.rrx_text), (6 bytes).
    Removing stm32f4xx_hal_i2s.o(i.HAL_I2S_DMAPause), (128 bytes).
    Removing stm32f4xx_hal_i2s.o(i.HAL_I2S_DMAResume), (188 bytes).
    Removing stm32f4xx_hal_i2s.o(i.HAL_I2S_DMAStop), (576 bytes).
    Removing stm32f4xx_hal_i2s.o(i.HAL_I2S_DeInit), (46 bytes).
    Removing stm32f4xx_hal_i2s.o(i.HAL_I2S_ErrorCallback), (2 bytes).
    Removing stm32f4xx_hal_i2s.o(i.HAL_I2S_GetError), (4 bytes).
    Removing stm32f4xx_hal_i2s.o(i.HAL_I2S_GetState), (6 bytes).
    Removing stm32f4xx_hal_i2s.o(i.HAL_I2S_IRQHandler), (4 bytes).
    Removing stm32f4xx_hal_i2s.o(i.HAL_I2S_MspDeInit), (2 bytes).
    Removing stm32f4xx_hal_i2s.o(i.HAL_I2S_MspInit), (2 bytes).
    Removing stm32f4xx_hal_i2s.o(i.HAL_I2S_Receive), (218 bytes).
    Removing stm32f4xx_hal_i2s.o(i.HAL_I2S_Receive_DMA), (212 bytes).
    Removing stm32f4xx_hal_i2s.o(i.HAL_I2S_Receive_IT), (118 bytes).
    Removing stm32f4xx_hal_i2s.o(i.HAL_I2S_RxHalfCpltCallback), (2 bytes).
    Removing stm32f4xx_hal_i2s.o(i.HAL_I2S_Transmit), (244 bytes).
    Removing stm32f4xx_hal_i2s.o(i.HAL_I2S_Transmit_DMA), (192 bytes).
    Removing stm32f4xx_hal_i2s.o(i.HAL_I2S_Transmit_IT), (118 bytes).
    Removing stm32f4xx_hal_i2s.o(i.HAL_I2S_TxHalfCpltCallback), (2 bytes).
    Removing stm32f4xx_hal_i2s.o(i.I2S_DMAError), (40 bytes).
    Removing stm32f4xx_hal_i2s.o(i.I2S_DMARxCplt), (36 bytes).
    Removing stm32f4xx_hal_i2s.o(i.I2S_DMARxHalfCplt), (10 bytes).
    Removing stm32f4xx_hal_i2s.o(i.I2S_DMATxCplt), (36 bytes).
    Removing stm32f4xx_hal_i2s.o(i.I2S_DMATxHalfCplt), (10 bytes).
    Removing stm32f4xx_hal_i2s.o(i.I2S_WaitFlagStateUntilTimeout), (78 bytes).
    Removing stm32f4xx_hal_i2s_ex.o(.rev16_text), (4 bytes).
    Removing stm32f4xx_hal_i2s_ex.o(.revsh_text), (4 bytes).
    Removing stm32f4xx_hal_i2s_ex.o(.rrx_text), (6 bytes).
    Removing stm32f4xx_hal_i2s_ex.o(i.HAL_I2SEx_TransmitReceive), (696 bytes).
    Removing stm32f4xx_hal_i2s_ex.o(i.HAL_I2SEx_TransmitReceive_IT), (344 bytes).
    Removing stm32f4xx_hal_i2s_ex.o(i.HAL_I2SEx_TxRxHalfCpltCallback), (2 bytes).
    Removing stm32f4xx_hal_i2s_ex.o(i.I2SEx_FullDuplexWaitFlagStateUntilTimeout), (156 bytes).
    Removing stm32f4xx_hal_sai.o(.rev16_text), (4 bytes).
    Removing stm32f4xx_hal_sai.o(.revsh_text), (4 bytes).
    Removing stm32f4xx_hal_sai.o(.rrx_text), (6 bytes).
    Removing stm32f4xx_hal_sai.o(i.HAL_SAI_Abort), (166 bytes).
    Removing stm32f4xx_hal_sai.o(i.HAL_SAI_DMAPause), (38 bytes).
    Removing stm32f4xx_hal_sai.o(i.HAL_SAI_DMAResume), (54 bytes).
    Removing stm32f4xx_hal_sai.o(i.HAL_SAI_DMAStop), (146 bytes).
    Removing stm32f4xx_hal_sai.o(i.HAL_SAI_DeInit), (66 bytes).
    Removing stm32f4xx_hal_sai.o(i.HAL_SAI_DisableRxMuteMode), (28 bytes).
    Removing stm32f4xx_hal_sai.o(i.HAL_SAI_DisableTxMuteMode), (24 bytes).
    Removing stm32f4xx_hal_sai.o(i.HAL_SAI_EnableRxMuteMode), (48 bytes).
    Removing stm32f4xx_hal_sai.o(i.HAL_SAI_EnableTxMuteMode), (36 bytes).
    Removing stm32f4xx_hal_sai.o(i.HAL_SAI_ErrorCallback), (2 bytes).
    Removing stm32f4xx_hal_sai.o(i.HAL_SAI_GetState), (6 bytes).
    Removing stm32f4xx_hal_sai.o(i.HAL_SAI_IRQHandler), (288 bytes).
    Removing stm32f4xx_hal_sai.o(i.HAL_SAI_InitProtocol), (50 bytes).
    Removing stm32f4xx_hal_sai.o(i.HAL_SAI_MspDeInit), (2 bytes).
    Removing stm32f4xx_hal_sai.o(i.HAL_SAI_MspInit), (2 bytes).
    Removing stm32f4xx_hal_sai.o(i.HAL_SAI_Receive), (258 bytes).
    Removing stm32f4xx_hal_sai.o(i.HAL_SAI_Receive_IT), (144 bytes).
    Removing stm32f4xx_hal_sai.o(i.HAL_SAI_RxCpltCallback), (2 bytes).
    Removing stm32f4xx_hal_sai.o(i.HAL_SAI_RxHalfCpltCallback), (2 bytes).
    Removing stm32f4xx_hal_sai.o(i.HAL_SAI_Transmit), (268 bytes).
    Removing stm32f4xx_hal_sai.o(i.HAL_SAI_Transmit_IT), (148 bytes).
    Removing stm32f4xx_hal_sai.o(i.HAL_SAI_TxCpltCallback), (2 bytes).
    Removing stm32f4xx_hal_sai.o(i.HAL_SAI_TxHalfCpltCallback), (2 bytes).
    Removing stm32f4xx_hal_sai.o(i.SAI_DMAAbort), (68 bytes).
    Removing stm32f4xx_hal_sai.o(i.SAI_FillFifo), (86 bytes).
    Removing stm32f4xx_hal_sai.o(i.SAI_InitI2S), (154 bytes).
    Removing stm32f4xx_hal_sai.o(i.SAI_InitPCM), (112 bytes).
    Removing stm32f4xx_hal_sai.o(i.SAI_Receive_IT16Bit), (70 bytes).
    Removing stm32f4xx_hal_sai.o(i.SAI_Receive_IT32Bit), (70 bytes).
    Removing stm32f4xx_hal_sai.o(i.SAI_Receive_IT8Bit), (68 bytes).
    Removing stm32f4xx_hal_sai.o(i.SAI_Transmit_IT16Bit), (68 bytes).
    Removing stm32f4xx_hal_sai.o(i.SAI_Transmit_IT32Bit), (68 bytes).
    Removing stm32f4xx_hal_sai.o(i.SAI_Transmit_IT8Bit), (66 bytes).
    Removing stm32f4xx_hal_sai_ex.o(.rev16_text), (4 bytes).
    Removing stm32f4xx_hal_sai_ex.o(.revsh_text), (4 bytes).
    Removing stm32f4xx_hal_sai_ex.o(.rrx_text), (6 bytes).
    Removing stm32f4xx_hal_tim.o(.rev16_text), (4 bytes).
    Removing stm32f4xx_hal_tim.o(.revsh_text), (4 bytes).
    Removing stm32f4xx_hal_tim.o(.rrx_text), (6 bytes).
    Removing stm32f4xx_hal_tim_ex.o(.rev16_text), (4 bytes).
    Removing stm32f4xx_hal_tim_ex.o(.revsh_text), (4 bytes).
    Removing stm32f4xx_hal_tim_ex.o(.rrx_text), (6 bytes).
    Removing stm32f4xx_ll_usart.o(.rev16_text), (4 bytes).
    Removing stm32f4xx_ll_usart.o(.revsh_text), (4 bytes).
    Removing stm32f4xx_ll_usart.o(.rrx_text), (6 bytes).
    Removing stm32f4xx_ll_usart.o(i.LL_APB1_GRP1_ForceReset), (16 bytes).
    Removing stm32f4xx_ll_usart.o(i.LL_APB1_GRP1_ReleaseReset), (16 bytes).
    Removing stm32f4xx_ll_usart.o(i.LL_USART_ClockInit), (56 bytes).
    Removing stm32f4xx_ll_usart.o(i.LL_USART_ClockStructInit), (12 bytes).
    Removing stm32f4xx_ll_usart.o(i.LL_USART_DeInit), (176 bytes).
    Removing stm32f4xx_ll_usart.o(i.LL_USART_StructInit), (24 bytes).
    Removing stm32f4xx_ll_gpio.o(.rev16_text), (4 bytes).
    Removing stm32f4xx_ll_gpio.o(.revsh_text), (4 bytes).
    Removing stm32f4xx_ll_gpio.o(.rrx_text), (6 bytes).
    Removing stm32f4xx_ll_gpio.o(i.LL_AHB1_GRP1_ForceReset), (16 bytes).
    Removing stm32f4xx_ll_gpio.o(i.LL_AHB1_GRP1_ReleaseReset), (16 bytes).
    Removing stm32f4xx_ll_gpio.o(i.LL_GPIO_DeInit), (224 bytes).
    Removing stm32f4xx_ll_gpio.o(i.LL_GPIO_StructInit), (22 bytes).
    Removing stm32f4xx_ll_dma.o(.rev16_text), (4 bytes).
    Removing stm32f4xx_ll_dma.o(.revsh_text), (4 bytes).
    Removing stm32f4xx_ll_dma.o(.rrx_text), (6 bytes).
    Removing stm32f4xx_ll_dma.o(i.LL_DMA_DeInit), (368 bytes).
    Removing stm32f4xx_ll_dma.o(i.LL_DMA_Init), (156 bytes).
    Removing stm32f4xx_ll_dma.o(i.LL_DMA_SetChannelSelection), (20 bytes).
    Removing stm32f4xx_ll_dma.o(i.LL_DMA_StructInit), (34 bytes).
    Removing stm32f4xx_ll_dma.o(.constdata), (8 bytes).
    Removing system_stm32f4xx.o(.rev16_text), (4 bytes).
    Removing system_stm32f4xx.o(.revsh_text), (4 bytes).
    Removing system_stm32f4xx.o(.rrx_text), (6 bytes).
    Removing system_stm32f4xx.o(i.SystemCoreClockUpdate), (120 bytes).
    Removing dneg.o(.text), (6 bytes).

509 unused section(s) (total 37853 bytes) removed from the image.

==============================================================================

Image Symbol Table

    Local Symbols

    Symbol Name                              Value     Ov Type        Size  Object(Section)

    ../Drivers/STM32F4xx_HAL_Driver/Src/stm32f4xx_hal.c 0x00000000   Number         0  stm32f4xx_hal.o ABSOLUTE
    ../Drivers/STM32F4xx_HAL_Driver/Src/stm32f4xx_hal_adc.c 0x00000000   Number         0  stm32f4xx_hal_adc.o ABSOLUTE
    ../Drivers/STM32F4xx_HAL_Driver/Src/stm32f4xx_hal_adc_ex.c 0x00000000   Number         0  stm32f4xx_hal_adc_ex.o ABSOLUTE
    ../Drivers/STM32F4xx_HAL_Driver/Src/stm32f4xx_hal_cortex.c 0x00000000   Number         0  stm32f4xx_hal_cortex.o ABSOLUTE
    ../Drivers/STM32F4xx_HAL_Driver/Src/stm32f4xx_hal_dma.c 0x00000000   Number         0  stm32f4xx_hal_dma.o ABSOLUTE
    ../Drivers/STM32F4xx_HAL_Driver/Src/stm32f4xx_hal_dma_ex.c 0x00000000   Number         0  stm32f4xx_hal_dma_ex.o ABSOLUTE
    ../Drivers/STM32F4xx_HAL_Driver/Src/stm32f4xx_hal_exti.c 0x00000000   Number         0  stm32f4xx_hal_exti.o ABSOLUTE
    ../Drivers/STM32F4xx_HAL_Driver/Src/stm32f4xx_hal_flash.c 0x00000000   Number         0  stm32f4xx_hal_flash.o ABSOLUTE
    ../Drivers/STM32F4xx_HAL_Driver/Src/stm32f4xx_hal_flash_ex.c 0x00000000   Number         0  stm32f4xx_hal_flash_ex.o ABSOLUTE
    ../Drivers/STM32F4xx_HAL_Driver/Src/stm32f4xx_hal_flash_ramfunc.c 0x00000000   Number         0  stm32f4xx_hal_flash_ramfunc.o ABSOLUTE
    ../Drivers/STM32F4xx_HAL_Driver/Src/stm32f4xx_hal_gpio.c 0x00000000   Number         0  stm32f4xx_hal_gpio.o ABSOLUTE
    ../Drivers/STM32F4xx_HAL_Driver/Src/stm32f4xx_hal_i2c.c 0x00000000   Number         0  stm32f4xx_hal_i2c.o ABSOLUTE
    ../Drivers/STM32F4xx_HAL_Driver/Src/stm32f4xx_hal_i2c_ex.c 0x00000000   Number         0  stm32f4xx_hal_i2c_ex.o ABSOLUTE
    ../Drivers/STM32F4xx_HAL_Driver/Src/stm32f4xx_hal_i2s.c 0x00000000   Number         0  stm32f4xx_hal_i2s.o ABSOLUTE
    ../Drivers/STM32F4xx_HAL_Driver/Src/stm32f4xx_hal_i2s_ex.c 0x00000000   Number         0  stm32f4xx_hal_i2s_ex.o ABSOLUTE
    ../Drivers/STM32F4xx_HAL_Driver/Src/stm32f4xx_hal_pwr.c 0x00000000   Number         0  stm32f4xx_hal_pwr.o ABSOLUTE
    ../Drivers/STM32F4xx_HAL_Driver/Src/stm32f4xx_hal_pwr_ex.c 0x00000000   Number         0  stm32f4xx_hal_pwr_ex.o ABSOLUTE
    ../Drivers/STM32F4xx_HAL_Driver/Src/stm32f4xx_hal_rcc.c 0x00000000   Number         0  stm32f4xx_hal_rcc.o ABSOLUTE
    ../Drivers/STM32F4xx_HAL_Driver/Src/stm32f4xx_hal_rcc_ex.c 0x00000000   Number         0  stm32f4xx_hal_rcc_ex.o ABSOLUTE
    ../Drivers/STM32F4xx_HAL_Driver/Src/stm32f4xx_hal_sai.c 0x00000000   Number         0  stm32f4xx_hal_sai.o ABSOLUTE
    ../Drivers/STM32F4xx_HAL_Driver/Src/stm32f4xx_hal_sai_ex.c 0x00000000   Number         0  stm32f4xx_hal_sai_ex.o ABSOLUTE
    ../Drivers/STM32F4xx_HAL_Driver/Src/stm32f4xx_hal_tim.c 0x00000000   Number         0  stm32f4xx_hal_tim.o ABSOLUTE
    ../Drivers/STM32F4xx_HAL_Driver/Src/stm32f4xx_hal_tim_ex.c 0x00000000   Number         0  stm32f4xx_hal_tim_ex.o ABSOLUTE
    ../Drivers/STM32F4xx_HAL_Driver/Src/stm32f4xx_ll_dma.c 0x00000000   Number         0  stm32f4xx_ll_dma.o ABSOLUTE
    ../Drivers/STM32F4xx_HAL_Driver/Src/stm32f4xx_ll_exti.c 0x00000000   Number         0  stm32f4xx_ll_exti.o ABSOLUTE
    ../Drivers/STM32F4xx_HAL_Driver/Src/stm32f4xx_ll_gpio.c 0x00000000   Number         0  stm32f4xx_ll_gpio.o ABSOLUTE
    ../Drivers/STM32F4xx_HAL_Driver/Src/stm32f4xx_ll_rcc.c 0x00000000   Number         0  stm32f4xx_ll_rcc.o ABSOLUTE
    ../Drivers/STM32F4xx_HAL_Driver/Src/stm32f4xx_ll_usart.c 0x00000000   Number         0  stm32f4xx_ll_usart.o ABSOLUTE
    ../Drivers/STM32F4xx_HAL_Driver/Src/stm32f4xx_ll_utils.c 0x00000000   Number         0  stm32f4xx_ll_utils.o ABSOLUTE
    ../Src/main.c                            0x00000000   Number         0  main.o ABSOLUTE
    ../Src/stm32f4xx_hal_msp.c               0x00000000   Number         0  stm32f4xx_hal_msp.o ABSOLUTE
    ../Src/stm32f4xx_it.c                    0x00000000   Number         0  stm32f4xx_it.o ABSOLUTE
    ../Src/system_stm32f4xx.c                0x00000000   Number         0  system_stm32f4xx.o ABSOLUTE
    ../clib/../cmprslib/zerorunl2.c          0x00000000   Number         0  __dczerorl2.o ABSOLUTE
    ../clib/microlib/ctype/ctype.c           0x00000000   Number         0  isspace_c.o ABSOLUTE
    ../clib/microlib/ctype/ctype.c           0x00000000   Number         0  ctype_c.o ABSOLUTE
    ../clib/microlib/division.c              0x00000000   Number         0  uldiv.o ABSOLUTE
    ../clib/microlib/division.c              0x00000000   Number         0  uidiv.o ABSOLUTE
    ../clib/microlib/errno.c                 0x00000000   Number         0  errno.o ABSOLUTE
    ../clib/microlib/init/entry.s            0x00000000   Number         0  entry10a.o ABSOLUTE
    ../clib/microlib/init/entry.s            0x00000000   Number         0  entry5.o ABSOLUTE
    ../clib/microlib/init/entry.s            0x00000000   Number         0  entry7b.o ABSOLUTE
    ../clib/microlib/init/entry.s            0x00000000   Number         0  entry.o ABSOLUTE
    ../clib/microlib/init/entry.s            0x00000000   Number         0  entry9a.o ABSOLUTE
    ../clib/microlib/init/entry.s            0x00000000   Number         0  entry11b.o ABSOLUTE
    ../clib/microlib/init/entry.s            0x00000000   Number         0  entry7a.o ABSOLUTE
    ../clib/microlib/init/entry.s            0x00000000   Number         0  entry11a.o ABSOLUTE
    ../clib/microlib/init/entry.s            0x00000000   Number         0  entry10b.o ABSOLUTE
    ../clib/microlib/init/entry.s            0x00000000   Number         0  entry8b.o ABSOLUTE
    ../clib/microlib/init/entry.s            0x00000000   Number         0  entry8a.o ABSOLUTE
    ../clib/microlib/init/entry.s            0x00000000   Number         0  entry9b.o ABSOLUTE
    ../clib/microlib/init/entry.s            0x00000000   Number         0  entry2.o ABSOLUTE
    ../clib/microlib/longlong.c              0x00000000   Number         0  llushr.o ABSOLUTE
    ../clib/microlib/longlong.c              0x00000000   Number         0  llsshr.o ABSOLUTE
    ../clib/microlib/longlong.c              0x00000000   Number         0  llshl.o ABSOLUTE
    ../clib/microlib/printf/printf.c         0x00000000   Number         0  printf3.o ABSOLUTE
    ../clib/microlib/printf/printf.c         0x00000000   Number         0  printf0.o ABSOLUTE
    ../clib/microlib/printf/printf.c         0x00000000   Number         0  printfb.o ABSOLUTE
    ../clib/microlib/printf/printf.c         0x00000000   Number         0  printf5.o ABSOLUTE
    ../clib/microlib/printf/printf.c         0x00000000   Number         0  printf1.o ABSOLUTE
    ../clib/microlib/printf/printf.c         0x00000000   Number         0  printf8.o ABSOLUTE
    ../clib/microlib/printf/printf.c         0x00000000   Number         0  printf4.o ABSOLUTE
    ../clib/microlib/printf/printf.c         0x00000000   Number         0  printfa.o ABSOLUTE
    ../clib/microlib/printf/printf.c         0x00000000   Number         0  printf7.o ABSOLUTE
    ../clib/microlib/printf/printf.c         0x00000000   Number         0  printf6.o ABSOLUTE
    ../clib/microlib/printf/printf.c         0x00000000   Number         0  printf2.o ABSOLUTE
    ../clib/microlib/printf/stubs.s          0x00000000   Number         0  stubs.o ABSOLUTE
    ../clib/microlib/stdio/puts.c            0x00000000   Number         0  puts_e.o ABSOLUTE
    ../clib/microlib/stdio/puts.c            0x00000000   Number         0  puts.o ABSOLUTE
    ../clib/microlib/stdio/streams.c         0x00000000   Number         0  stdout.o ABSOLUTE
    ../clib/microlib/string/memcmp.c         0x00000000   Number         0  memcmp.o ABSOLUTE
    ../clib/microlib/string/memcpy.c         0x00000000   Number         0  memcpya.o ABSOLUTE
    ../clib/microlib/string/memcpy.c         0x00000000   Number         0  memmovea.o ABSOLUTE
    ../clib/microlib/string/memcpy.c         0x00000000   Number         0  memcpyb.o ABSOLUTE
    ../clib/microlib/string/memcpy.c         0x00000000   Number         0  memmoveb.o ABSOLUTE
    ../clib/microlib/string/memset.c         0x00000000   Number         0  memseta.o ABSOLUTE
    ../clib/microlib/string/strcpy.c         0x00000000   Number         0  strcpy.o ABSOLUTE
    ../clib/microlib/string/strncmp.c        0x00000000   Number         0  strncmp.o ABSOLUTE
    ../clib/microlib/string/strncpy.c        0x00000000   Number         0  strncpy.o ABSOLUTE
    ../clib/microlib/stubs.s                 0x00000000   Number         0  iusefp.o ABSOLUTE
    ../clib/scanf.c                          0x00000000   Number         0  _chval.o ABSOLUTE
    ../clib/scanf.c                          0x00000000   Number         0  scanf_char.o ABSOLUTE
    ../clib/scanf.c                          0x00000000   Number         0  _scanf.o ABSOLUTE
    ../clib/scanf.c                          0x00000000   Number         0  _sgetc.o ABSOLUTE
    ../clib/scanf.c                          0x00000000   Number         0  __0sscanf.o ABSOLUTE
    ../clib/scanf.c                          0x00000000   Number         0  _scanf_int.o ABSOLUTE
    ../clib/scanf.c                          0x00000000   Number         0  _scanf_str.o ABSOLUTE
    ../fplib/microlib/f2d.c                  0x00000000   Number         0  f2d.o ABSOLUTE
    ../fplib/microlib/fpadd.c                0x00000000   Number         0  dadd.o ABSOLUTE
    ../fplib/microlib/fpdiv.c                0x00000000   Number         0  ddiv.o ABSOLUTE
    ../fplib/microlib/fpepilogue.c           0x00000000   Number         0  depilogue.o ABSOLUTE
    ../fplib/microlib/fpfix.c                0x00000000   Number         0  dfixul.o ABSOLUTE
    ../fplib/microlib/fpfix.c                0x00000000   Number         0  dfixui.o ABSOLUTE
    ../fplib/microlib/fpflt.c                0x00000000   Number         0  dfltui.o ABSOLUTE
    ../fplib/microlib/fpmul.c                0x00000000   Number         0  dmul.o ABSOLUTE
    ../fplib/microlib/fpneg.c                0x00000000   Number         0  dneg.o ABSOLUTE
    ../fplib/microlib/fpstat.c               0x00000000   Number         0  fpstat.o ABSOLUTE
    ../mathlib/fpclassifyf.c                 0x00000000   Number         0  fpclassifyf.o ABSOLUTE
    ../mathlib/funder.c                      0x00000000   Number         0  funder.o ABSOLUTE
    ../mathlib/powf.c                        0x00000000   Number         0  powf.o ABSOLUTE
    ../mathlib/powf.c                        0x00000000   Number         0  powf_x.o ABSOLUTE
    ..\Drivers\STM32F4xx_HAL_Driver\Src\stm32f4xx_hal.c 0x00000000   Number         0  stm32f4xx_hal.o ABSOLUTE
    ..\Drivers\STM32F4xx_HAL_Driver\Src\stm32f4xx_hal_adc.c 0x00000000   Number         0  stm32f4xx_hal_adc.o ABSOLUTE
    ..\Drivers\STM32F4xx_HAL_Driver\Src\stm32f4xx_hal_adc_ex.c 0x00000000   Number         0  stm32f4xx_hal_adc_ex.o ABSOLUTE
    ..\Drivers\STM32F4xx_HAL_Driver\Src\stm32f4xx_hal_cortex.c 0x00000000   Number         0  stm32f4xx_hal_cortex.o ABSOLUTE
    ..\Drivers\STM32F4xx_HAL_Driver\Src\stm32f4xx_hal_dma.c 0x00000000   Number         0  stm32f4xx_hal_dma.o ABSOLUTE
    ..\Drivers\STM32F4xx_HAL_Driver\Src\stm32f4xx_hal_dma_ex.c 0x00000000   Number         0  stm32f4xx_hal_dma_ex.o ABSOLUTE
    ..\Drivers\STM32F4xx_HAL_Driver\Src\stm32f4xx_hal_exti.c 0x00000000   Number         0  stm32f4xx_hal_exti.o ABSOLUTE
    ..\Drivers\STM32F4xx_HAL_Driver\Src\stm32f4xx_hal_flash.c 0x00000000   Number         0  stm32f4xx_hal_flash.o ABSOLUTE
    ..\Drivers\STM32F4xx_HAL_Driver\Src\stm32f4xx_hal_flash_ex.c 0x00000000   Number         0  stm32f4xx_hal_flash_ex.o ABSOLUTE
    ..\Drivers\STM32F4xx_HAL_Driver\Src\stm32f4xx_hal_flash_ramfunc.c 0x00000000   Number         0  stm32f4xx_hal_flash_ramfunc.o ABSOLUTE
    ..\Drivers\STM32F4xx_HAL_Driver\Src\stm32f4xx_hal_gpio.c 0x00000000   Number         0  stm32f4xx_hal_gpio.o ABSOLUTE
    ..\Drivers\STM32F4xx_HAL_Driver\Src\stm32f4xx_hal_i2c.c 0x00000000   Number         0  stm32f4xx_hal_i2c.o ABSOLUTE
    ..\Drivers\STM32F4xx_HAL_Driver\Src\stm32f4xx_hal_i2c_ex.c 0x00000000   Number         0  stm32f4xx_hal_i2c_ex.o ABSOLUTE
    ..\Drivers\STM32F4xx_HAL_Driver\Src\stm32f4xx_hal_i2s.c 0x00000000   Number         0  stm32f4xx_hal_i2s.o ABSOLUTE
    ..\Drivers\STM32F4xx_HAL_Driver\Src\stm32f4xx_hal_i2s_ex.c 0x00000000   Number         0  stm32f4xx_hal_i2s_ex.o ABSOLUTE
    ..\Drivers\STM32F4xx_HAL_Driver\Src\stm32f4xx_hal_pwr.c 0x00000000   Number         0  stm32f4xx_hal_pwr.o ABSOLUTE
    ..\Drivers\STM32F4xx_HAL_Driver\Src\stm32f4xx_hal_pwr_ex.c 0x00000000   Number         0  stm32f4xx_hal_pwr_ex.o ABSOLUTE
    ..\Drivers\STM32F4xx_HAL_Driver\Src\stm32f4xx_hal_rcc.c 0x00000000   Number         0  stm32f4xx_hal_rcc.o ABSOLUTE
    ..\Drivers\STM32F4xx_HAL_Driver\Src\stm32f4xx_hal_rcc_ex.c 0x00000000   Number         0  stm32f4xx_hal_rcc_ex.o ABSOLUTE
    ..\Drivers\STM32F4xx_HAL_Driver\Src\stm32f4xx_hal_sai.c 0x00000000   Number         0  stm32f4xx_hal_sai.o ABSOLUTE
    ..\Drivers\STM32F4xx_HAL_Driver\Src\stm32f4xx_hal_sai_ex.c 0x00000000   Number         0  stm32f4xx_hal_sai_ex.o ABSOLUTE
    ..\Drivers\STM32F4xx_HAL_Driver\Src\stm32f4xx_hal_tim.c 0x00000000   Number         0  stm32f4xx_hal_tim.o ABSOLUTE
    ..\Drivers\STM32F4xx_HAL_Driver\Src\stm32f4xx_hal_tim_ex.c 0x00000000   Number         0  stm32f4xx_hal_tim_ex.o ABSOLUTE
    ..\Drivers\STM32F4xx_HAL_Driver\Src\stm32f4xx_ll_dma.c 0x00000000   Number         0  stm32f4xx_ll_dma.o ABSOLUTE
    ..\Drivers\STM32F4xx_HAL_Driver\Src\stm32f4xx_ll_exti.c 0x00000000   Number         0  stm32f4xx_ll_exti.o ABSOLUTE
    ..\Drivers\STM32F4xx_HAL_Driver\Src\stm32f4xx_ll_gpio.c 0x00000000   Number         0  stm32f4xx_ll_gpio.o ABSOLUTE
    ..\Drivers\STM32F4xx_HAL_Driver\Src\stm32f4xx_ll_rcc.c 0x00000000   Number         0  stm32f4xx_ll_rcc.o ABSOLUTE
    ..\Drivers\STM32F4xx_HAL_Driver\Src\stm32f4xx_ll_usart.c 0x00000000   Number         0  stm32f4xx_ll_usart.o ABSOLUTE
    ..\Drivers\STM32F4xx_HAL_Driver\Src\stm32f4xx_ll_utils.c 0x00000000   Number         0  stm32f4xx_ll_utils.o ABSOLUTE
    ..\Src\CRC-16_CCITT.c                    0x00000000   Number         0  crc-16_ccitt.o ABSOLUTE
    ..\Src\HDLC_Rx_low_level.c               0x00000000   Number         0  hdlc_rx_low_level.o ABSOLUTE
    ..\Src\HDLC_Tx.c                         0x00000000   Number         0  hdlc_tx.o ABSOLUTE
    ..\Src\HDLC_Tx_low_level.c               0x00000000   Number         0  hdlc_tx_low_level.o ABSOLUTE
    ..\Src\ST-BUS_SAI_in_out.c               0x00000000   Number         0  st-bus_sai_in_out.o ABSOLUTE
    ..\Src\audio_in_out.c                    0x00000000   Number         0  audio_in_out.o ABSOLUTE
    ..\Src\codec_TLV320AIC3100.c             0x00000000   Number         0  codec_tlv320aic3100.o ABSOLUTE
    ..\Src\dbg_uart.c                        0x00000000   Number         0  dbg_uart.o ABSOLUTE
    ..\Src\g711.c                            0x00000000   Number         0  g711.o ABSOLUTE
    ..\Src\main.c                            0x00000000   Number         0  main.o ABSOLUTE
    ..\Src\main_logic.c                      0x00000000   Number         0  main_logic.o ABSOLUTE
    ..\Src\potentiometer.c                   0x00000000   Number         0  potentiometer.o ABSOLUTE
    ..\Src\stm32f4xx_hal_msp.c               0x00000000   Number         0  stm32f4xx_hal_msp.o ABSOLUTE
    ..\Src\stm32f4xx_it.c                    0x00000000   Number         0  stm32f4xx_it.o ABSOLUTE
    ..\Src\system_stm32f4xx.c                0x00000000   Number         0  system_stm32f4xx.o ABSOLUTE
    ..\Src\tastature.c                       0x00000000   Number         0  tastature.o ABSOLUTE
    ..\Src\uart.c                            0x00000000   Number         0  uart.o ABSOLUTE
    ..\Src\volume_control.c                  0x00000000   Number         0  volume_control.o ABSOLUTE
    ..\\Src\\HDLC_Rx_low_level.c             0x00000000   Number         0  hdlc_rx_low_level.o ABSOLUTE
    ..\\Src\\HDLC_Tx.c                       0x00000000   Number         0  hdlc_tx.o ABSOLUTE
    ..\\Src\\HDLC_Tx_low_level.c             0x00000000   Number         0  hdlc_tx_low_level.o ABSOLUTE
    ..\\Src\\ST-BUS_SAI_in_out.c             0x00000000   Number         0  st-bus_sai_in_out.o ABSOLUTE
    ..\\Src\\audio_in_out.c                  0x00000000   Number         0  audio_in_out.o ABSOLUTE
    ..\\Src\\codec_TLV320AIC3100.c           0x00000000   Number         0  codec_tlv320aic3100.o ABSOLUTE
    ..\\Src\\dbg_uart.c                      0x00000000   Number         0  dbg_uart.o ABSOLUTE
    ..\\Src\\g711.c                          0x00000000   Number         0  g711.o ABSOLUTE
    ..\\Src\\main_logic.c                    0x00000000   Number         0  main_logic.o ABSOLUTE
    ..\\Src\\potentiometer.c                 0x00000000   Number         0  potentiometer.o ABSOLUTE
    ..\\Src\\tastature.c                     0x00000000   Number         0  tastature.o ABSOLUTE
    ..\\Src\\uart.c                          0x00000000   Number         0  uart.o ABSOLUTE
    ..\\Src\\volume_control.c                0x00000000   Number         0  volume_control.o ABSOLUTE
    cdcmple.s                                0x00000000   Number         0  cdcmple.o ABSOLUTE
    cdrcmple.s                               0x00000000   Number         0  cdrcmple.o ABSOLUTE
    dc.s                                     0x00000000   Number         0  dc.o ABSOLUTE
    handlers.s                               0x00000000   Number         0  handlers.o ABSOLUTE
    init.s                                   0x00000000   Number         0  init.o ABSOLUTE
    startup_stm32f429xx.s                    0x00000000   Number         0  startup_stm32f429xx.o ABSOLUTE
    RESET                                    0x08000000   Section      428  startup_stm32f429xx.o(RESET)
    .ARM.Collect$$$$00000000                 0x080001ac   Section        0  entry.o(.ARM.Collect$$$$00000000)
    .ARM.Collect$$$$00000001                 0x080001ac   Section        4  entry2.o(.ARM.Collect$$$$00000001)
    .ARM.Collect$$$$00000004                 0x080001b0   Section        4  entry5.o(.ARM.Collect$$$$00000004)
    .ARM.Collect$$$$00000008                 0x080001b4   Section        0  entry7b.o(.ARM.Collect$$$$00000008)
    .ARM.Collect$$$$0000000A                 0x080001b4   Section        0  entry8b.o(.ARM.Collect$$$$0000000A)
    .ARM.Collect$$$$0000000B                 0x080001b4   Section        8  entry9a.o(.ARM.Collect$$$$0000000B)
    .ARM.Collect$$$$0000000D                 0x080001bc   Section        0  entry10a.o(.ARM.Collect$$$$0000000D)
    .ARM.Collect$$$$0000000F                 0x080001bc   Section        0  entry11a.o(.ARM.Collect$$$$0000000F)
    .ARM.Collect$$$$00002712                 0x080001bc   Section        4  entry2.o(.ARM.Collect$$$$00002712)
    __lit__00000000                          0x080001bc   Data           4  entry2.o(.ARM.Collect$$$$00002712)
    .text                                    0x080001c0   Section       36  startup_stm32f429xx.o(.text)
    $v0                                      0x080001c0   Number         0  startup_stm32f429xx.o(.text)
    .text                                    0x080001e4   Section        0  uldiv.o(.text)
    .text                                    0x08000246   Section        0  memmovea.o(.text)
    .text                                    0x08000286   Section        0  memseta.o(.text)
    .text                                    0x080002aa   Section        0  strncpy.o(.text)
    .text                                    0x080002c2   Section        0  memcmp.o(.text)
    .text                                    0x080002dc   Section        0  strcpy.o(.text)
    .text                                    0x080002ee   Section        0  strncmp.o(.text)
    .text                                    0x0800030c   Section        0  __0sscanf.o(.text)
    .text                                    0x08000344   Section        0  _scanf_int.o(.text)
    .text                                    0x08000490   Section        0  _scanf_str.o(.text)
    .text                                    0x08000570   Section        0  dadd.o(.text)
    .text                                    0x080006be   Section        0  dmul.o(.text)
    .text                                    0x080007a2   Section        0  dfltui.o(.text)
    .text                                    0x080007bc   Section        0  dfixui.o(.text)
    .text                                    0x080007ee   Section        0  f2d.o(.text)
    .text                                    0x08000814   Section       48  cdcmple.o(.text)
    .text                                    0x08000844   Section       48  cdrcmple.o(.text)
    .text                                    0x08000874   Section        0  uidiv.o(.text)
    .text                                    0x080008a0   Section        0  llshl.o(.text)
    .text                                    0x080008be   Section        0  llushr.o(.text)
    .text                                    0x080008de   Section        0  llsshr.o(.text)
    .text                                    0x08000902   Section        0  _chval.o(.text)
    .text                                    0x08000920   Section        0  scanf_char.o(.text)
    _scanf_char_input                        0x08000921   Thumb Code    12  scanf_char.o(.text)
    .text                                    0x08000948   Section        0  _sgetc.o(.text)
    .text                                    0x08000988   Section        0  depilogue.o(.text)
    .text                                    0x08000988   Section        0  iusefp.o(.text)
    .text                                    0x08000a42   Section        0  ddiv.o(.text)
    .text                                    0x08000b20   Section        0  dfixul.o(.text)
    .text                                    0x08000b50   Section        0  fpstat.o(.text)
    .text                                    0x08000b54   Section       36  init.o(.text)
    .text                                    0x08000b78   Section        0  isspace_c.o(.text)
    .text                                    0x08000b84   Section        0  _scanf.o(.text)
    .text                                    0x08000eb0   Section        0  ctype_c.o(.text)
    .text                                    0x08000ed8   Section        0  __dczerorl2.o(.text)
    i.ADC_DMAConvCplt                        0x08000f2e   Section        0  stm32f4xx_hal_adc.o(i.ADC_DMAConvCplt)
    ADC_DMAConvCplt                          0x08000f2f   Thumb Code   110  stm32f4xx_hal_adc.o(i.ADC_DMAConvCplt)
    i.ADC_DMAError                           0x08000f9c   Section        0  stm32f4xx_hal_adc.o(i.ADC_DMAError)
    ADC_DMAError                             0x08000f9d   Thumb Code    22  stm32f4xx_hal_adc.o(i.ADC_DMAError)
    i.ADC_DMAHalfConvCplt                    0x08000fb2   Section        0  stm32f4xx_hal_adc.o(i.ADC_DMAHalfConvCplt)
    ADC_DMAHalfConvCplt                      0x08000fb3   Thumb Code    10  stm32f4xx_hal_adc.o(i.ADC_DMAHalfConvCplt)
    i.ADC_Init                               0x08000fbc   Section        0  stm32f4xx_hal_adc.o(i.ADC_Init)
    ADC_Init                                 0x08000fbd   Thumb Code   284  stm32f4xx_hal_adc.o(i.ADC_Init)
    i.AudioInOutInit                         0x080010e4   Section        0  audio_in_out.o(i.AudioInOutInit)
    i.AudioInPop                             0x080011a4   Section        0  audio_in_out.o(i.AudioInPop)
    i.AudioOutPush                           0x080011fc   Section        0  audio_in_out.o(i.AudioOutPush)
    i.AudioSamleFromADC                      0x08001218   Section        0  g711.o(i.AudioSamleFromADC)
    i.AudioSamleToDAC                        0x08001228   Section        0  g711.o(i.AudioSamleToDAC)
    i.BitRingInit                            0x080012d0   Section        0  hdlc_rx_low_level.o(i.BitRingInit)
    i.BitRingProcessBit                      0x0800130c   Section        0  hdlc_rx_low_level.o(i.BitRingProcessBit)
    i.BusFault_Handler                       0x080013f0   Section        0  stm32f4xx_it.o(i.BusFault_Handler)
    i.Crc16                                  0x080013f2   Section        0  crc-16_ccitt.o(i.Crc16)
    i.DMA1_Stream5_IRQHandler                0x08001440   Section        0  stm32f4xx_it.o(i.DMA1_Stream5_IRQHandler)
    i.DMA2_Stream0_IRQHandler                0x0800144c   Section        0  stm32f4xx_it.o(i.DMA2_Stream0_IRQHandler)
    i.DMA2_Stream4_IRQHandler                0x08001458   Section        0  stm32f4xx_it.o(i.DMA2_Stream4_IRQHandler)
    i.DMA_CalcBaseAndBitshift                0x08001464   Section        0  stm32f4xx_hal_dma.o(i.DMA_CalcBaseAndBitshift)
    DMA_CalcBaseAndBitshift                  0x08001465   Thumb Code    34  stm32f4xx_hal_dma.o(i.DMA_CalcBaseAndBitshift)
    i.DMA_CheckFifoParam                     0x0800148c   Section        0  stm32f4xx_hal_dma.o(i.DMA_CheckFifoParam)
    DMA_CheckFifoParam                       0x0800148d   Thumb Code    84  stm32f4xx_hal_dma.o(i.DMA_CheckFifoParam)
    i.DMA_SetConfig                          0x080014e0   Section        0  stm32f4xx_hal_dma.o(i.DMA_SetConfig)
    DMA_SetConfig                            0x080014e1   Thumb Code    40  stm32f4xx_hal_dma.o(i.DMA_SetConfig)
    i.DV_port_input_Init                     0x08001508   Section        0  st-bus_sai_in_out.o(i.DV_port_input_Init)
    i.DebugMon_Handler                       0x08001516   Section        0  stm32f4xx_it.o(i.DebugMon_Handler)
    i.Error_Handler                          0x08001518   Section        0  main.o(i.Error_Handler)
    i.Filter0                                0x0800151c   Section        0  potentiometer.o(i.Filter0)
    i.Filter1                                0x08001600   Section        0  potentiometer.o(i.Filter1)
    i.Filter2                                0x080016e4   Section        0  potentiometer.o(i.Filter2)
    i.Filter3                                0x080017c8   Section        0  potentiometer.o(i.Filter3)
    i.HAL_ADC_ConfigChannel                  0x080018ac   Section        0  stm32f4xx_hal_adc.o(i.HAL_ADC_ConfigChannel)
    i.HAL_ADC_ConvCallback                   0x08001a10   Section        0  potentiometer.o(i.HAL_ADC_ConvCallback)
    i.HAL_ADC_ConvCpltCallback               0x08001ad8   Section        0  potentiometer.o(i.HAL_ADC_ConvCpltCallback)
    i.HAL_ADC_ConvHalfCpltCallback           0x08001ade   Section        0  potentiometer.o(i.HAL_ADC_ConvHalfCpltCallback)
    i.HAL_ADC_ErrorCallback                  0x08001ae4   Section        0  stm32f4xx_hal_adc.o(i.HAL_ADC_ErrorCallback)
    i.HAL_ADC_Init                           0x08001ae6   Section        0  stm32f4xx_hal_adc.o(i.HAL_ADC_Init)
    i.HAL_ADC_MspInit                        0x08001b3c   Section        0  stm32f4xx_hal_msp.o(i.HAL_ADC_MspInit)
    i.HAL_ADC_Start_DMA                      0x08001bd4   Section        0  stm32f4xx_hal_adc.o(i.HAL_ADC_Start_DMA)
    i.HAL_DMA_IRQHandler                     0x08001d04   Section        0  stm32f4xx_hal_dma.o(i.HAL_DMA_IRQHandler)
    i.HAL_DMA_Init                           0x08001ea4   Section        0  stm32f4xx_hal_dma.o(i.HAL_DMA_Init)
    i.HAL_DMA_Start_IT                       0x08001f78   Section        0  stm32f4xx_hal_dma.o(i.HAL_DMA_Start_IT)
    i.HAL_Delay                              0x08001fe8   Section        0  stm32f4xx_hal.o(i.HAL_Delay)
    i.HAL_GPIO_Init                          0x0800200c   Section        0  stm32f4xx_hal_gpio.o(i.HAL_GPIO_Init)
    i.HAL_GPIO_ReadPin                       0x080021e0   Section        0  stm32f4xx_hal_gpio.o(i.HAL_GPIO_ReadPin)
    i.HAL_GPIO_TogglePin                     0x080021ea   Section        0  stm32f4xx_hal_gpio.o(i.HAL_GPIO_TogglePin)
    i.HAL_GPIO_WritePin                      0x080021f8   Section        0  stm32f4xx_hal_gpio.o(i.HAL_GPIO_WritePin)
    i.HAL_GetTick                            0x08002204   Section        0  stm32f4xx_hal.o(i.HAL_GetTick)
    i.HAL_I2CEx_ConfigAnalogFilter           0x08002210   Section        0  stm32f4xx_hal_i2c_ex.o(i.HAL_I2CEx_ConfigAnalogFilter)
    i.HAL_I2CEx_ConfigDigitalFilter          0x08002252   Section        0  stm32f4xx_hal_i2c_ex.o(i.HAL_I2CEx_ConfigDigitalFilter)
    i.HAL_I2C_Init                           0x08002290   Section        0  stm32f4xx_hal_i2c.o(i.HAL_I2C_Init)
    i.HAL_I2C_Mem_Read                       0x08002418   Section        0  stm32f4xx_hal_i2c.o(i.HAL_I2C_Mem_Read)
    i.HAL_I2C_Mem_Write                      0x08002610   Section        0  stm32f4xx_hal_i2c.o(i.HAL_I2C_Mem_Write)
    i.HAL_I2C_MspInit                        0x08002740   Section        0  stm32f4xx_hal_msp.o(i.HAL_I2C_MspInit)
    i.HAL_I2SEx_FullDuplex_IRQHandler        0x080027a8   Section        0  stm32f4xx_hal_i2s_ex.o(i.HAL_I2SEx_FullDuplex_IRQHandler)
    i.HAL_I2SEx_TransmitReceive_DMA          0x0800299c   Section        0  stm32f4xx_hal_i2s_ex.o(i.HAL_I2SEx_TransmitReceive_DMA)
    i.HAL_I2SEx_TxRxCpltAltCallback          0x08002b3c   Section        0  audio_in_out.o(i.HAL_I2SEx_TxRxCpltAltCallback)
    i.HAL_I2SEx_TxRxCpltCallback             0x08002b60   Section        0  stm32f4xx_hal_i2s_ex.o(i.HAL_I2SEx_TxRxCpltCallback)
    i.HAL_I2SEx_TxRxHalfCpltCallback         0x08002b64   Section        0  audio_in_out.o(i.HAL_I2SEx_TxRxHalfCpltCallback)
    i.HAL_I2S_ErrorCallback                  0x08002bf8   Section        0  audio_in_out.o(i.HAL_I2S_ErrorCallback)
    i.HAL_I2S_Init                           0x08002c14   Section        0  stm32f4xx_hal_i2s.o(i.HAL_I2S_Init)
    i.HAL_I2S_MspInit                        0x08002d88   Section        0  stm32f4xx_hal_msp.o(i.HAL_I2S_MspInit)
    i.HAL_I2S_RxCpltCallback                 0x08002ef0   Section        0  stm32f4xx_hal_i2s.o(i.HAL_I2S_RxCpltCallback)
    i.HAL_I2S_TxCpltCallback                 0x08002ef2   Section        0  stm32f4xx_hal_i2s.o(i.HAL_I2S_TxCpltCallback)
    i.HAL_IncTick                            0x08002ef4   Section        0  stm32f4xx_hal.o(i.HAL_IncTick)
    i.HAL_Init                               0x08002f04   Section        0  stm32f4xx_hal.o(i.HAL_Init)
    i.HAL_InitTick                           0x08002f38   Section        0  stm32f4xx_hal.o(i.HAL_InitTick)
    i.HAL_MspInit                            0x08002f78   Section        0  stm32f4xx_hal_msp.o(i.HAL_MspInit)
    i.HAL_NVIC_DisableIRQ                    0x08002fa8   Section        0  stm32f4xx_hal_cortex.o(i.HAL_NVIC_DisableIRQ)
    i.HAL_NVIC_EnableIRQ                     0x08002fca   Section        0  stm32f4xx_hal_cortex.o(i.HAL_NVIC_EnableIRQ)
    i.HAL_NVIC_SetPriority                   0x08002fe4   Section        0  stm32f4xx_hal_cortex.o(i.HAL_NVIC_SetPriority)
    i.HAL_NVIC_SetPriorityGrouping           0x08003024   Section        0  stm32f4xx_hal_cortex.o(i.HAL_NVIC_SetPriorityGrouping)
    i.HAL_PWREx_EnableOverDrive              0x08003048   Section        0  stm32f4xx_hal_pwr_ex.o(i.HAL_PWREx_EnableOverDrive)
    i.HAL_RCCEx_GetPeriphCLKFreq             0x080030b8   Section        0  stm32f4xx_hal_rcc_ex.o(i.HAL_RCCEx_GetPeriphCLKFreq)
    i.HAL_RCCEx_PeriphCLKConfig              0x08003114   Section        0  stm32f4xx_hal_rcc_ex.o(i.HAL_RCCEx_PeriphCLKConfig)
    i.HAL_RCC_ClockConfig                    0x08003368   Section        0  stm32f4xx_hal_rcc.o(i.HAL_RCC_ClockConfig)
    i.HAL_RCC_GetPCLK1Freq                   0x0800349c   Section        0  stm32f4xx_hal_rcc.o(i.HAL_RCC_GetPCLK1Freq)
    i.HAL_RCC_GetSysClockFreq                0x080034bc   Section        0  stm32f4xx_hal_rcc.o(i.HAL_RCC_GetSysClockFreq)
    i.HAL_RCC_OscConfig                      0x0800351c   Section        0  stm32f4xx_hal_rcc.o(i.HAL_RCC_OscConfig)
    i.HAL_SAI_ErrorCallback                  0x08003878   Section        0  st-bus_sai_in_out.o(i.HAL_SAI_ErrorCallback)
    i.HAL_SAI_GetError                       0x080038ac   Section        0  stm32f4xx_hal_sai.o(i.HAL_SAI_GetError)
    i.HAL_SAI_Init                           0x080038b4   Section        0  stm32f4xx_hal_sai.o(i.HAL_SAI_Init)
    i.HAL_SAI_MspInit                        0x08003a18   Section        0  stm32f4xx_hal_msp.o(i.HAL_SAI_MspInit)
    i.HAL_SAI_Receive_DMA                    0x08003b38   Section        0  stm32f4xx_hal_sai.o(i.HAL_SAI_Receive_DMA)
    i.HAL_SAI_RxCpltCallback                 0x08003be4   Section        0  st-bus_sai_in_out.o(i.HAL_SAI_RxCpltCallback)
    i.HAL_SAI_RxHalfCpltCallback             0x08003d30   Section        0  st-bus_sai_in_out.o(i.HAL_SAI_RxHalfCpltCallback)
    i.HAL_SAI_Transmit_DMA                   0x08003d34   Section        0  stm32f4xx_hal_sai.o(i.HAL_SAI_Transmit_DMA)
    i.HAL_SAI_TxCpltCallback                 0x08003de0   Section        0  st-bus_sai_in_out.o(i.HAL_SAI_TxCpltCallback)
    i.HAL_SAI_TxHalfCpltCallback             0x08003de2   Section        0  st-bus_sai_in_out.o(i.HAL_SAI_TxHalfCpltCallback)
    i.HAL_SYSTICK_Config                     0x08003de4   Section        0  stm32f4xx_hal_cortex.o(i.HAL_SYSTICK_Config)
    i.HDLC_ProcessTx                         0x08003e0c   Section        0  hdlc_tx.o(i.HDLC_ProcessTx)
    i.HardFault_Handler                      0x08003e24   Section        0  stm32f4xx_it.o(i.HardFault_Handler)
    i.HdlcBitStreamGetBit                    0x08003e50   Section        0  hdlc_tx_low_level.o(i.HdlcBitStreamGetBit)
    i.HexToChar                              0x08003e8c   Section        0  dbg_uart.o(i.HexToChar)
    i.I2C_IsAcknowledgeFailed                0x08003ed0   Section        0  stm32f4xx_hal_i2c.o(i.I2C_IsAcknowledgeFailed)
    I2C_IsAcknowledgeFailed                  0x08003ed1   Thumb Code    46  stm32f4xx_hal_i2c.o(i.I2C_IsAcknowledgeFailed)
    i.I2C_RequestMemoryRead                  0x08003f00   Section        0  stm32f4xx_hal_i2c.o(i.I2C_RequestMemoryRead)
    I2C_RequestMemoryRead                    0x08003f01   Thumb Code   246  stm32f4xx_hal_i2c.o(i.I2C_RequestMemoryRead)
    i.I2C_RequestMemoryWrite                 0x08003ffc   Section        0  stm32f4xx_hal_i2c.o(i.I2C_RequestMemoryWrite)
    I2C_RequestMemoryWrite                   0x08003ffd   Thumb Code   162  stm32f4xx_hal_i2c.o(i.I2C_RequestMemoryWrite)
    i.I2C_WaitOnBTFFlagUntilTimeout          0x080040a4   Section        0  stm32f4xx_hal_i2c.o(i.I2C_WaitOnBTFFlagUntilTimeout)
    I2C_WaitOnBTFFlagUntilTimeout            0x080040a5   Thumb Code    76  stm32f4xx_hal_i2c.o(i.I2C_WaitOnBTFFlagUntilTimeout)
    i.I2C_WaitOnFlagUntilTimeout             0x080040f0   Section        0  stm32f4xx_hal_i2c.o(i.I2C_WaitOnFlagUntilTimeout)
    I2C_WaitOnFlagUntilTimeout               0x080040f1   Thumb Code   104  stm32f4xx_hal_i2c.o(i.I2C_WaitOnFlagUntilTimeout)
    i.I2C_WaitOnMasterAddressFlagUntilTimeout 0x08004158   Section        0  stm32f4xx_hal_i2c.o(i.I2C_WaitOnMasterAddressFlagUntilTimeout)
    I2C_WaitOnMasterAddressFlagUntilTimeout  0x08004159   Thumb Code   150  stm32f4xx_hal_i2c.o(i.I2C_WaitOnMasterAddressFlagUntilTimeout)
    i.I2C_WaitOnRXNEFlagUntilTimeout         0x080041ee   Section        0  stm32f4xx_hal_i2c.o(i.I2C_WaitOnRXNEFlagUntilTimeout)
    I2C_WaitOnRXNEFlagUntilTimeout           0x080041ef   Thumb Code   102  stm32f4xx_hal_i2c.o(i.I2C_WaitOnRXNEFlagUntilTimeout)
    i.I2C_WaitOnTXEFlagUntilTimeout          0x08004254   Section        0  stm32f4xx_hal_i2c.o(i.I2C_WaitOnTXEFlagUntilTimeout)
    I2C_WaitOnTXEFlagUntilTimeout            0x08004255   Thumb Code    76  stm32f4xx_hal_i2c.o(i.I2C_WaitOnTXEFlagUntilTimeout)
    i.I2SEx_RxISR_I2SExt                     0x080042a0   Section        0  stm32f4xx_hal_i2s_ex.o(i.I2SEx_RxISR_I2SExt)
    I2SEx_RxISR_I2SExt                       0x080042a1   Thumb Code    88  stm32f4xx_hal_i2s_ex.o(i.I2SEx_RxISR_I2SExt)
    i.I2SEx_TxISR_I2SExt                     0x08004300   Section        0  stm32f4xx_hal_i2s_ex.o(i.I2SEx_TxISR_I2SExt)
    I2SEx_TxISR_I2SExt                       0x08004301   Thumb Code    88  stm32f4xx_hal_i2s_ex.o(i.I2SEx_TxISR_I2SExt)
    i.I2SEx_TxRxDMACplt                      0x08004360   Section        0  stm32f4xx_hal_i2s_ex.o(i.I2SEx_TxRxDMACplt)
    I2SEx_TxRxDMACplt                        0x08004361   Thumb Code   192  stm32f4xx_hal_i2s_ex.o(i.I2SEx_TxRxDMACplt)
    i.I2SEx_TxRxDMACpltAlt                   0x08004428   Section        0  audio_in_out.o(i.I2SEx_TxRxDMACpltAlt)
    i.I2SEx_TxRxDMAError                     0x08004434   Section        0  stm32f4xx_hal_i2s_ex.o(i.I2SEx_TxRxDMAError)
    I2SEx_TxRxDMAError                       0x08004435   Thumb Code    76  stm32f4xx_hal_i2s_ex.o(i.I2SEx_TxRxDMAError)
    i.I2SEx_TxRxDMAHalfCplt                  0x08004488   Section        0  stm32f4xx_hal_i2s_ex.o(i.I2SEx_TxRxDMAHalfCplt)
    I2SEx_TxRxDMAHalfCplt                    0x08004489   Thumb Code    10  stm32f4xx_hal_i2s_ex.o(i.I2SEx_TxRxDMAHalfCplt)
    i.I2S_IRQHandler                         0x08004492   Section        0  stm32f4xx_hal_i2s.o(i.I2S_IRQHandler)
    I2S_IRQHandler                           0x08004493   Thumb Code   242  stm32f4xx_hal_i2s.o(i.I2S_IRQHandler)
    i.Inc                                    0x08004584   Section        0  hdlc_rx_low_level.o(i.Inc)
    i.LL_AHB1_GRP1_EnableClock               0x08004590   Section        0  main.o(i.LL_AHB1_GRP1_EnableClock)
    LL_AHB1_GRP1_EnableClock                 0x08004591   Thumb Code    18  main.o(i.LL_AHB1_GRP1_EnableClock)
    i.LL_GPIO_Init                           0x080045a8   Section        0  stm32f4xx_ll_gpio.o(i.LL_GPIO_Init)
    i.LL_RCC_GetSystemClocksFreq             0x080046de   Section        0  stm32f4xx_ll_rcc.o(i.LL_RCC_GetSystemClocksFreq)
    i.LL_RCC_PLL_GetMainSource               0x08004700   Section        0  stm32f4xx_ll_rcc.o(i.LL_RCC_PLL_GetMainSource)
    LL_RCC_PLL_GetMainSource                 0x08004701   Thumb Code    10  stm32f4xx_ll_rcc.o(i.LL_RCC_PLL_GetMainSource)
    i.LL_USART_Init                          0x08004710   Section        0  stm32f4xx_ll_usart.o(i.LL_USART_Init)
    i.LL_USART_SetBaudRate                   0x080047c8   Section        0  stm32f4xx_ll_usart.o(i.LL_USART_SetBaudRate)
    LL_USART_SetBaudRate                     0x080047c9   Thumb Code   176  stm32f4xx_ll_usart.o(i.LL_USART_SetBaudRate)
    i.MX_ADC1_Init                           0x08004878   Section        0  main.o(i.MX_ADC1_Init)
    MX_ADC1_Init                             0x08004879   Thumb Code   122  main.o(i.MX_ADC1_Init)
    i.MX_DMA_Init                            0x08004900   Section        0  main.o(i.MX_DMA_Init)
    MX_DMA_Init                              0x08004901   Thumb Code    88  main.o(i.MX_DMA_Init)
    i.MX_GPIO_Init                           0x0800495c   Section        0  main.o(i.MX_GPIO_Init)
    MX_GPIO_Init                             0x0800495d   Thumb Code   370  main.o(i.MX_GPIO_Init)
    i.MX_I2C1_Init                           0x08004ae8   Section        0  main.o(i.MX_I2C1_Init)
    MX_I2C1_Init                             0x08004ae9   Thumb Code    56  main.o(i.MX_I2C1_Init)
    i.MX_SAI1_Init                           0x08004b2c   Section        0  main.o(i.MX_SAI1_Init)
    MX_SAI1_Init                             0x08004b2d   Thumb Code   122  main.o(i.MX_SAI1_Init)
    i.MX_USART1_UART_Init                    0x08004bb0   Section        0  main.o(i.MX_USART1_UART_Init)
    MX_USART1_UART_Init                      0x08004bb1   Thumb Code   164  main.o(i.MX_USART1_UART_Init)
    i.MX_USART3_UART_Init                    0x08004c64   Section        0  main.o(i.MX_USART3_UART_Init)
    MX_USART3_UART_Init                      0x08004c65   Thumb Code   164  main.o(i.MX_USART3_UART_Init)
    i.MemManage_Handler                      0x08004d18   Section        0  stm32f4xx_it.o(i.MemManage_Handler)
    i.NMI_Handler                            0x08004d1a   Section        0  stm32f4xx_it.o(i.NMI_Handler)
    i.NVIC_EncodePriority                    0x08004d1c   Section        0  main.o(i.NVIC_EncodePriority)
    NVIC_EncodePriority                      0x08004d1d   Thumb Code    50  main.o(i.NVIC_EncodePriority)
    i.PendSV_Handler                         0x08004d4e   Section        0  stm32f4xx_it.o(i.PendSV_Handler)
    i.RCC_GetHCLKClockFreq                   0x08004d50   Section        0  stm32f4xx_ll_rcc.o(i.RCC_GetHCLKClockFreq)
    i.RCC_GetPCLK1ClockFreq                  0x08004d6c   Section        0  stm32f4xx_ll_rcc.o(i.RCC_GetPCLK1ClockFreq)
    i.RCC_GetPCLK2ClockFreq                  0x08004d88   Section        0  stm32f4xx_ll_rcc.o(i.RCC_GetPCLK2ClockFreq)
    i.RCC_GetSystemClockFreq                 0x08004da4   Section        0  stm32f4xx_ll_rcc.o(i.RCC_GetSystemClockFreq)
    i.RCC_PLL_GetFreqDomain_SYS              0x08004dd0   Section        0  stm32f4xx_ll_rcc.o(i.RCC_PLL_GetFreqDomain_SYS)
    i.SAI_BlockSynchroConfig                 0x08004e1c   Section        0  stm32f4xx_hal_sai_ex.o(i.SAI_BlockSynchroConfig)
    i.SAI_DMAError                           0x08004e3c   Section        0  stm32f4xx_hal_sai.o(i.SAI_DMAError)
    SAI_DMAError                             0x08004e3d   Thumb Code    68  stm32f4xx_hal_sai.o(i.SAI_DMAError)
    i.SAI_DMARxCplt                          0x08004e80   Section        0  stm32f4xx_hal_sai.o(i.SAI_DMARxCplt)
    SAI_DMARxCplt                            0x08004e81   Thumb Code    60  stm32f4xx_hal_sai.o(i.SAI_DMARxCplt)
    i.SAI_DMARxHalfCplt                      0x08004ebc   Section        0  stm32f4xx_hal_sai.o(i.SAI_DMARxHalfCplt)
    SAI_DMARxHalfCplt                        0x08004ebd   Thumb Code    10  stm32f4xx_hal_sai.o(i.SAI_DMARxHalfCplt)
    i.SAI_DMATxCplt                          0x08004ec6   Section        0  stm32f4xx_hal_sai.o(i.SAI_DMATxCplt)
    SAI_DMATxCplt                            0x08004ec7   Thumb Code    60  stm32f4xx_hal_sai.o(i.SAI_DMATxCplt)
    i.SAI_DMATxHalfCplt                      0x08004f02   Section        0  stm32f4xx_hal_sai.o(i.SAI_DMATxHalfCplt)
    SAI_DMATxHalfCplt                        0x08004f03   Thumb Code    10  stm32f4xx_hal_sai.o(i.SAI_DMATxHalfCplt)
    i.SAI_DMA_Init                           0x08004f0c   Section        0  st-bus_sai_in_out.o(i.SAI_DMA_Init)
    i.SAI_Disable                            0x08004f48   Section        0  stm32f4xx_hal_sai.o(i.SAI_Disable)
    SAI_Disable                              0x08004f49   Thumb Code    58  stm32f4xx_hal_sai.o(i.SAI_Disable)
    i.SAI_GetInputClock                      0x08004f88   Section        0  stm32f4xx_hal_sai_ex.o(i.SAI_GetInputClock)
    i.SAI_InterruptFlag                      0x08005034   Section        0  stm32f4xx_hal_sai.o(i.SAI_InterruptFlag)
    SAI_InterruptFlag                        0x08005035   Thumb Code    48  stm32f4xx_hal_sai.o(i.SAI_InterruptFlag)
    i.SVC_Handler                            0x08005064   Section        0  stm32f4xx_it.o(i.SVC_Handler)
    i.SysTick_Handler                        0x08005066   Section        0  stm32f4xx_it.o(i.SysTick_Handler)
    i.SystemClock_Config                     0x08005078   Section        0  main.o(i.SystemClock_Config)
    i.SystemInit                             0x08005130   Section        0  system_stm32f4xx.o(i.SystemInit)
    i.USART1_IRQHandler                      0x0800514c   Section        0  dbg_uart.o(i.USART1_IRQHandler)
    i.USART3_IRQHandler                      0x080051b0   Section        0  uart.o(i.USART3_IRQHandler)
    i.UsageFault_Handler                     0x08005270   Section        0  stm32f4xx_it.o(i.UsageFault_Handler)
    i.__0printf                              0x08005274   Section        0  printfa.o(i.__0printf)
    i.__0sprintf                             0x08005294   Section        0  printfa.o(i.__0sprintf)
    i.__ARM_fpclassifyf                      0x080052bc   Section        0  fpclassifyf.o(i.__ARM_fpclassifyf)
    i.__NVIC_EnableIRQ                       0x080052e2   Section        0  main.o(i.__NVIC_EnableIRQ)
    __NVIC_EnableIRQ                         0x080052e3   Thumb Code    26  main.o(i.__NVIC_EnableIRQ)
    i.__NVIC_SetPriority                     0x080052fc   Section        0  main.o(i.__NVIC_SetPriority)
    __NVIC_SetPriority                       0x080052fd   Thumb Code    32  main.o(i.__NVIC_SetPriority)
    i.__NVIC_SetPriority                     0x0800531c   Section        0  stm32f4xx_hal_cortex.o(i.__NVIC_SetPriority)
    __NVIC_SetPriority                       0x0800531d   Thumb Code    32  stm32f4xx_hal_cortex.o(i.__NVIC_SetPriority)
    i.__hardfp_powf                          0x0800533c   Section        0  powf.o(i.__hardfp_powf)
    i.__mathlib_flt_divzero                  0x080059a0   Section        0  funder.o(i.__mathlib_flt_divzero)
    i.__mathlib_flt_infnan2                  0x080059b4   Section        0  funder.o(i.__mathlib_flt_infnan2)
    i.__mathlib_flt_invalid                  0x080059bc   Section        0  funder.o(i.__mathlib_flt_invalid)
    i.__mathlib_flt_overflow                 0x080059cc   Section        0  funder.o(i.__mathlib_flt_overflow)
    i.__mathlib_flt_underflow                0x080059dc   Section        0  funder.o(i.__mathlib_flt_underflow)
    i.__scatterload_copy                     0x080059ec   Section       14  handlers.o(i.__scatterload_copy)
    i.__scatterload_null                     0x080059fa   Section        2  handlers.o(i.__scatterload_null)
    i.__scatterload_zeroinit                 0x080059fc   Section       14  handlers.o(i.__scatterload_zeroinit)
    i.__set_errno                            0x08005a0c   Section        0  errno.o(i.__set_errno)
    i._fp_digits                             0x08005a18   Section        0  printfa.o(i._fp_digits)
    _fp_digits                               0x08005a19   Thumb Code   366  printfa.o(i._fp_digits)
    i._printf_core                           0x08005b9c   Section        0  printfa.o(i._printf_core)
    _printf_core                             0x08005b9d   Thumb Code  1744  printfa.o(i._printf_core)
    i._printf_post_padding                   0x08006278   Section        0  printfa.o(i._printf_post_padding)
    _printf_post_padding                     0x08006279   Thumb Code    36  printfa.o(i._printf_post_padding)
    i._printf_pre_padding                    0x0800629c   Section        0  printfa.o(i._printf_pre_padding)
    _printf_pre_padding                      0x0800629d   Thumb Code    46  printfa.o(i._printf_pre_padding)
    i._sputc                                 0x080062ca   Section        0  printfa.o(i._sputc)
    _sputc                                   0x080062cb   Thumb Code    10  printfa.o(i._sputc)
    i.addByteToBitStream                     0x080062d4   Section        0  hdlc_tx_low_level.o(i.addByteToBitStream)
    i.addFlagToBitStream                     0x08006328   Section        0  hdlc_tx_low_level.o(i.addFlagToBitStream)
    i.alaw2linear                            0x08006358   Section        0  g711.o(i.alaw2linear)
    i.checkDelay                             0x08006380   Section        0  main_logic.o(i.checkDelay)
    i.checkTimeout                           0x0800639c   Section        0  main_logic.o(i.checkTimeout)
    i.codecInit                              0x080063b8   Section        0  codec_tlv320aic3100.o(i.codecInit)
    i.createHdlcBitStream                    0x08006610   Section        0  hdlc_tx_low_level.o(i.createHdlcBitStream)
    i.dbgUartPutchar                         0x08006670   Section        0  dbg_uart.o(i.dbgUartPutchar)
    i.dbgUartPutsArray                       0x080066a4   Section        0  dbg_uart.o(i.dbgUartPutsArray)
    i.doMainLogic                            0x080066bc   Section        0  main_logic.o(i.doMainLogic)
    i.doRegistration                         0x080066dc   Section        0  main_logic.o(i.doRegistration)
    i.doTastature                            0x08006d00   Section        0  tastature.o(i.doTastature)
    i.doVolumeControl                        0x08006f70   Section        0  volume_control.o(i.doVolumeControl)
    i.fputc                                  0x08006fcc   Section        0  dbg_uart.o(i.fputc)
    i.getPotValue                            0x08006fdc   Section        0  potentiometer.o(i.getPotValue)
    i.handsetButtonsService                  0x08006fe8   Section        0  tastature.o(i.handsetButtonsService)
    i.haveWorkingKeypad                      0x080070b0   Section        0  tastature.o(i.haveWorkingKeypad)
    i.initMainLogic                          0x080070cc   Section        0  main_logic.o(i.initMainLogic)
    i.initTastature                          0x080070e0   Section        0  tastature.o(i.initTastature)
    i.isHdlcFifoEmpty                        0x08007174   Section        0  hdlc_tx.o(i.isHdlcFifoEmpty)
    i.linear2alaw                            0x0800718c   Section        0  g711.o(i.linear2alaw)
    i.main                                   0x080071d8   Section        0  main.o(i.main)
    i.muteHlt                                0x0800729c   Section        0  codec_tlv320aic3100.o(i.muteHlt)
    i.muteLoudspeaker                        0x080072d4   Section        0  codec_tlv320aic3100.o(i.muteLoudspeaker)
    i.potInit                                0x0800730c   Section        0  potentiometer.o(i.potInit)
    i.processHdlcFrame                       0x08007320   Section        0  hdlc_rx_low_level.o(i.processHdlcFrame)
    i.processKeys                            0x080074b0   Section        0  main_logic.o(i.processKeys)
    i.processNonRegistrativeTelegrams        0x08007590   Section        0  main_logic.o(i.processNonRegistrativeTelegrams)
    i.puts                                   0x08007be0   Section        0  puts.o(i.puts)
    i.readFromPosition                       0x08007c04   Section        0  hdlc_rx_low_level.o(i.readFromPosition)
    i.readReg                                0x08007c38   Section        0  codec_tlv320aic3100.o(i.readReg)
    readReg                                  0x08007c39   Thumb Code    48  codec_tlv320aic3100.o(i.readReg)
    i.reflect                                0x08007c94   Section        0  crc-16_ccitt.o(i.reflect)
    i.regReset                               0x08007cb4   Section        0  main_logic.o(i.regReset)
    i.search                                 0x08007cdc   Section        0  g711.o(i.search)
    search                                   0x08007cdd   Thumb Code    26  g711.o(i.search)
    i.selectHandsetMic                       0x08007cf8   Section        0  codec_tlv320aic3100.o(i.selectHandsetMic)
    i.selectLoudspeakMic                     0x08007d18   Section        0  codec_tlv320aic3100.o(i.selectLoudspeakMic)
    i.sendTelegram                           0x08007d38   Section        0  main_logic.o(i.sendTelegram)
    i.sendTelegramKeepAlive                  0x08007dd8   Section        0  main_logic.o(i.sendTelegramKeepAlive)
    i.setDelay                               0x08007e00   Section        0  main_logic.o(i.setDelay)
    i.setHltVol                              0x08007e14   Section        0  codec_tlv320aic3100.o(i.setHltVol)
    i.setMicVol                              0x08007e8c   Section        0  codec_tlv320aic3100.o(i.setMicVol)
    i.setSpeakerVol                          0x08007f18   Section        0  codec_tlv320aic3100.o(i.setSpeakerVol)
    i.setTimeout                             0x08007f90   Section        0  main_logic.o(i.setTimeout)
    i.signalGeneration                       0x08007fa4   Section        0  main_logic.o(i.signalGeneration)
    i.startHdlcTransmition                   0x08008024   Section        0  hdlc_tx.o(i.startHdlcTransmition)
    i.tastCheckPresence                      0x080080a8   Section        0  tastature.o(i.tastCheckPresence)
    i.tastCmdLeds                            0x0800816c   Section        0  tastature.o(i.tastCmdLeds)
    i.tastCmdReadKeys                        0x080081a0   Section        0  tastature.o(i.tastCmdReadKeys)
    i.tastLedTestOff                         0x080081e0   Section        0  tastature.o(i.tastLedTestOff)
    i.tastLedTestOn                          0x0800821c   Section        0  tastature.o(i.tastLedTestOn)
    i.tastSetIndication                      0x08008258   Section        0  tastature.o(i.tastSetIndication)
    i.uartBytesReceived                      0x080082b4   Section        0  uart.o(i.uartBytesReceived)
    i.uartGetchar                            0x080082c8   Section        0  uart.o(i.uartGetchar)
    i.uartInit                               0x080082e0   Section        0  uart.o(i.uartInit)
    i.uartPutchar                            0x08008308   Section        0  uart.o(i.uartPutchar)
    i.uartPuts                               0x08008340   Section        0  uart.o(i.uartPuts)
    i.uartRS485TxBusy                        0x08008358   Section        0  uart.o(i.uartRS485TxBusy)
    i.uartReceiveStart                       0x08008364   Section        0  uart.o(i.uartReceiveStart)
    i.uartRxFifoFlush                        0x0800838c   Section        0  uart.o(i.uartRxFifoFlush)
    i.unmuteHlt                              0x0800839c   Section        0  codec_tlv320aic3100.o(i.unmuteHlt)
    i.unmuteLoudspeaker                      0x080083dc   Section        0  codec_tlv320aic3100.o(i.unmuteLoudspeaker)
    i.volumeControlInit                      0x0800841c   Section        0  volume_control.o(i.volumeControlInit)
    i.writeHdlcTxFifo                        0x08008420   Section        0  hdlc_tx.o(i.writeHdlcTxFifo)
    i.writeReg                               0x08008438   Section        0  codec_tlv320aic3100.o(i.writeReg)
    writeReg                                 0x08008439   Thumb Code    46  codec_tlv320aic3100.o(i.writeReg)
    .constdata                               0x08008494   Section       24  hdlc_rx_low_level.o(.constdata)
    flag_pattern                             0x08008494   Data           8  hdlc_rx_low_level.o(.constdata)
    idle_pattern                             0x0800849c   Data           8  hdlc_rx_low_level.o(.constdata)
    abort_pattern                            0x080084a4   Data           8  hdlc_rx_low_level.o(.constdata)
    .constdata                               0x080084ac   Section      272  g711.o(.constdata)
    .constdata                               0x080085bc   Section        8  stm32f4xx_hal_dma.o(.constdata)
    flagBitshiftOffset                       0x080085bc   Data           8  stm32f4xx_hal_dma.o(.constdata)
    .constdata                               0x080085c4   Section       16  system_stm32f4xx.o(.constdata)
    .constdata                               0x080085d4   Section        8  system_stm32f4xx.o(.constdata)
    .constdata                               0x080085dc   Section      320  powf.o(.constdata)
    table                                    0x080085dc   Data         128  powf.o(.constdata)
    powersof2to1over16top                    0x0800865c   Data          64  powf.o(.constdata)
    powersof2to1over16bot                    0x0800869c   Data          64  powf.o(.constdata)
    powersof2to1over16all                    0x080086dc   Data          64  powf.o(.constdata)
    .constdata                               0x0800871c   Section       64  ctype_c.o(.constdata)
    .data                                    0x20000000   Section        5  st-bus_sai_in_out.o(.data)
    prev_in_c_channel                        0x20000002   Data           1  st-bus_sai_in_out.o(.data)
    prev_out_c_channel                       0x20000003   Data           1  st-bus_sai_in_out.o(.data)
    prev_sync_bit                            0x20000004   Data           1  st-bus_sai_in_out.o(.data)
    .data                                    0x20000006   Section       20  hdlc_rx_low_level.o(.data)
    start_flag_received                      0x20000006   Data           1  hdlc_rx_low_level.o(.data)
    flag_hdlc_frame_received                 0x20000007   Data           1  hdlc_rx_low_level.o(.data)
    current_index                            0x2000000a   Data           2  hdlc_rx_low_level.o(.data)
    start_flag_index                         0x2000000c   Data           2  hdlc_rx_low_level.o(.data)
    num_bits_in_frame                        0x2000000e   Data           2  hdlc_rx_low_level.o(.data)
    idle_state_counter                       0x20000010   Data           2  hdlc_rx_low_level.o(.data)
    flag_string                              0x20000012   Data           8  hdlc_rx_low_level.o(.data)
    .data                                    0x2000001a   Section        1  hdlc_tx.o(.data)
    .data                                    0x2000001c   Section        8  hdlc_tx_low_level.o(.data)
    .data                                    0x20000024   Section        1  dbg_uart.o(.data)
    .data                                    0x20000028   Section       64  main_logic.o(.data)
    Pulse_nPause                             0x20000031   Data           1  main_logic.o(.data)
    key_sended                               0x20000032   Data           1  main_logic.o(.data)
    attempt                                  0x20000033   Data           1  main_logic.o(.data)
    tmr                                      0x2000004c   Data           4  main_logic.o(.data)
    tmr2                                     0x20000050   Data           4  main_logic.o(.data)
    prev_step                                0x20000054   Data           4  main_logic.o(.data)
    prev_sync_bit                            0x20000058   Data           4  main_logic.o(.data)
    timeout_time                             0x2000005c   Data           4  main_logic.o(.data)
    .data                                    0x20000068   Section        1  main_logic.o(.data)
    .data                                    0x20000069   Section        1  main_logic.o(.data)
    .data                                    0x2000006a   Section        2  uart.o(.data)
    blink_counter                            0x2000006a   Data           2  uart.o(.data)
    .data                                    0x2000006c   Section       20  tastature.o(.data)
    ind_blink                                0x2000006c   Data           1  tastature.o(.data)
    current_keypad                           0x2000006f   Data           1  tastature.o(.data)
    j                                        0x20000070   Data           1  tastature.o(.data)
    prev_st_but                              0x20000071   Data           1  tastature.o(.data)
    prev_st_hook                             0x20000072   Data           1  tastature.o(.data)
    debounce1                                0x20000073   Data           1  tastature.o(.data)
    debounce2                                0x20000074   Data           1  tastature.o(.data)
    ind_mode                                 0x20000076   Data           2  tastature.o(.data)
    key_tmr                                  0x20000078   Data           4  tastature.o(.data)
    ind_tmr                                  0x2000007c   Data           4  tastature.o(.data)
    .data                                    0x20000080   Section       16  codec_tlv320aic3100.o(.data)
    prev_percent                             0x20000082   Data           1  codec_tlv320aic3100.o(.data)
    percent                                  0x20000083   Data           1  codec_tlv320aic3100.o(.data)
    percent                                  0x20000084   Data           1  codec_tlv320aic3100.o(.data)
    prev_percent                             0x20000085   Data           1  codec_tlv320aic3100.o(.data)
    percent                                  0x20000086   Data           1  codec_tlv320aic3100.o(.data)
    prev_percent                             0x20000087   Data           2  codec_tlv320aic3100.o(.data)
    .data                                    0x20000090   Section      206  audio_in_out.o(.data)
    i                                        0x20000094   Data           2  audio_in_out.o(.data)
    .data                                    0x20000160   Section       16  g711.o(.data)
    idx                                      0x20000164   Data           2  g711.o(.data)
    swap                                     0x2000016c   Data           4  g711.o(.data)
    .data                                    0x20000170   Section       64  potentiometer.o(.data)
    state                                    0x20000170   Data           8  potentiometer.o(.data)
    prev_state                               0x20000178   Data           8  potentiometer.o(.data)
    state                                    0x20000180   Data           8  potentiometer.o(.data)
    prev_state                               0x20000188   Data           8  potentiometer.o(.data)
    state                                    0x20000190   Data           8  potentiometer.o(.data)
    prev_state                               0x20000198   Data           8  potentiometer.o(.data)
    state                                    0x200001a0   Data           8  potentiometer.o(.data)
    prev_state                               0x200001a8   Data           8  potentiometer.o(.data)
    .data                                    0x200001b0   Section        4  volume_control.o(.data)
    tmr_vol                                  0x200001b0   Data           4  volume_control.o(.data)
    .data                                    0x200001b4   Section        4  main.o(.data)
    tmr                                      0x200001b4   Data           4  main.o(.data)
    .data                                    0x200001b8   Section        4  stm32f4xx_hal_msp.o(.data)
    SAI1_client                              0x200001b8   Data           4  stm32f4xx_hal_msp.o(.data)
    .data                                    0x200001bc   Section       12  stm32f4xx_hal.o(.data)
    .data                                    0x200001c8   Section        4  system_stm32f4xx.o(.data)
    .data                                    0x200001cc   Section        4  stdout.o(.data)
    .data                                    0x200001d0   Section        4  errno.o(.data)
    _errno                                   0x200001d0   Data           4  errno.o(.data)
    .bss                                     0x200001d4   Section      128  st-bus_sai_in_out.o(.bss)
    str                                      0x20000214   Data          64  st-bus_sai_in_out.o(.bss)
    .bss                                     0x20000254   Section     2240  hdlc_rx_low_level.o(.bss)
    bit_ring                                 0x20000254   Data        1024  hdlc_rx_low_level.o(.bss)
    hdlc_frame_bit_sequence                  0x20000654   Data        1024  hdlc_rx_low_level.o(.bss)
    hdlc_frame_bytes                         0x20000a54   Data         128  hdlc_rx_low_level.o(.bss)
    .bss                                     0x20000b14   Section       68  hdlc_tx.o(.bss)
    .bss                                     0x20000b58   Section      512  hdlc_tx_low_level.o(.bss)
    .bss                                     0x20000d58   Section     4100  dbg_uart.o(.bss)
    .bss                                     0x20001d5c   Section       32  main_logic.o(.bss)
    tel_payload                              0x20001d5c   Data          16  main_logic.o(.bss)
    .bss                                     0x20001d7c   Section     1032  uart.o(.bss)
    .bss                                     0x20002184   Section      626  tastature.o(.bss)
    t_str                                    0x20002194   Data          16  tastature.o(.bss)
    keypad_present                           0x200021a4   Data           9  tastature.o(.bss)
    .bss                                     0x200023f6   Section      520  audio_in_out.o(.bss)
    .bss                                     0x20002600   Section     2080  potentiometer.o(.bss)
    .bss                                     0x20002e20   Section      528  main.o(.bss)
    .bss                                     0x20003030   Section       96  main.o(.bss)
    .bss                                     0x20003090   Section       96  main.o(.bss)
    .bss                                     0x200030f0   Section       96  main.o(.bss)
    .bss                                     0x20003150   Section       96  main.o(.bss)
    .bss                                     0x200031b0   Section       96  main.o(.bss)
    STACK                                    0x20003210   Section      512  startup_stm32f429xx.o(STACK)

    Global Symbols

    Symbol Name                              Value     Ov Type        Size  Object(Section)

    BuildAttributes$$THM_ISAv4$E$P$D$K$B$S$7EM$VFPi3$EXTD16$VFPS$VFMA$PE$A:L22UL41UL21$X:L11$S22US41US21$IEEE1$IW$USESV6$~STKCKD$USESV7$~SHL$OTIME$ROPI$IEEEX$EBA8$MICROLIB$REQ8$PRES8$EABIv2 0x00000000   Number         0  anon$$obj.o ABSOLUTE
    __ARM_use_no_argv                        0x00000000   Number         0  main.o ABSOLUTE
    _printf_a                                0x00000000   Number         0  stubs.o ABSOLUTE
    _printf_c                                0x00000000   Number         0  stubs.o ABSOLUTE
    _printf_charcount                        0x00000000   Number         0  stubs.o ABSOLUTE
    _printf_d                                0x00000000   Number         0  stubs.o ABSOLUTE
    _printf_e                                0x00000000   Number         0  stubs.o ABSOLUTE
    _printf_f                                0x00000000   Number         0  stubs.o ABSOLUTE
    _printf_flags                            0x00000000   Number         0  stubs.o ABSOLUTE
    _printf_fp_dec                           0x00000000   Number         0  stubs.o ABSOLUTE
    _printf_fp_hex                           0x00000000   Number         0  stubs.o ABSOLUTE
    _printf_g                                0x00000000   Number         0  stubs.o ABSOLUTE
    _printf_i                                0x00000000   Number         0  stubs.o ABSOLUTE
    _printf_int_dec                          0x00000000   Number         0  stubs.o ABSOLUTE
    _printf_l                                0x00000000   Number         0  stubs.o ABSOLUTE
    _printf_lc                               0x00000000   Number         0  stubs.o ABSOLUTE
    _printf_ll                               0x00000000   Number         0  stubs.o ABSOLUTE
    _printf_lld                              0x00000000   Number         0  stubs.o ABSOLUTE
    _printf_lli                              0x00000000   Number         0  stubs.o ABSOLUTE
    _printf_llo                              0x00000000   Number         0  stubs.o ABSOLUTE
    _printf_llu                              0x00000000   Number         0  stubs.o ABSOLUTE
    _printf_llx                              0x00000000   Number         0  stubs.o ABSOLUTE
    _printf_longlong_dec                     0x00000000   Number         0  stubs.o ABSOLUTE
    _printf_longlong_hex                     0x00000000   Number         0  stubs.o ABSOLUTE
    _printf_longlong_oct                     0x00000000   Number         0  stubs.o ABSOLUTE
    _printf_ls                               0x00000000   Number         0  stubs.o ABSOLUTE
    _printf_mbtowc                           0x00000000   Number         0  stubs.o ABSOLUTE
    _printf_n                                0x00000000   Number         0  stubs.o ABSOLUTE
    _printf_o                                0x00000000   Number         0  stubs.o ABSOLUTE
    _printf_p                                0x00000000   Number         0  stubs.o ABSOLUTE
    _printf_percent                          0x00000000   Number         0  stubs.o ABSOLUTE
    _printf_pre_padding                      0x00000000   Number         0  stubs.o ABSOLUTE
    _printf_return_value                     0x00000000   Number         0  stubs.o ABSOLUTE
    _printf_s                                0x00000000   Number         0  stubs.o ABSOLUTE
    _printf_sizespec                         0x00000000   Number         0  stubs.o ABSOLUTE
    _printf_str                              0x00000000   Number         0  stubs.o ABSOLUTE
    _printf_truncate_signed                  0x00000000   Number         0  stubs.o ABSOLUTE
    _printf_truncate_unsigned                0x00000000   Number         0  stubs.o ABSOLUTE
    _printf_u                                0x00000000   Number         0  stubs.o ABSOLUTE
    _printf_wc                               0x00000000   Number         0  stubs.o ABSOLUTE
    _printf_wctomb                           0x00000000   Number         0  stubs.o ABSOLUTE
    _printf_widthprec                        0x00000000   Number         0  stubs.o ABSOLUTE
    _printf_x                                0x00000000   Number         0  stubs.o ABSOLUTE
    __cpp_initialize__aeabi_                  - Undefined Weak Reference
    __cxa_finalize                            - Undefined Weak Reference
    _clock_init                               - Undefined Weak Reference
    _microlib_exit                            - Undefined Weak Reference
    _scanf_longlong                           - Undefined Weak Reference
    _scanf_real                               - Undefined Weak Reference
    __Vectors_Size                           0x000001ac   Number         0  startup_stm32f429xx.o ABSOLUTE
    __Vectors                                0x08000000   Data           4  startup_stm32f429xx.o(RESET)
    __Vectors_End                            0x080001ac   Data           0  startup_stm32f429xx.o(RESET)
    __main                                   0x080001ad   Thumb Code     0  entry.o(.ARM.Collect$$$$00000000)
    _main_stk                                0x080001ad   Thumb Code     0  entry2.o(.ARM.Collect$$$$00000001)
    _main_scatterload                        0x080001b1   Thumb Code     0  entry5.o(.ARM.Collect$$$$00000004)
    __main_after_scatterload                 0x080001b5   Thumb Code     0  entry5.o(.ARM.Collect$$$$00000004)
    _main_clock                              0x080001b5   Thumb Code     0  entry7b.o(.ARM.Collect$$$$00000008)
    _main_cpp_init                           0x080001b5   Thumb Code     0  entry8b.o(.ARM.Collect$$$$0000000A)
    _main_init                               0x080001b5   Thumb Code     0  entry9a.o(.ARM.Collect$$$$0000000B)
    __rt_final_cpp                           0x080001bd   Thumb Code     0  entry10a.o(.ARM.Collect$$$$0000000D)
    __rt_final_exit                          0x080001bd   Thumb Code     0  entry11a.o(.ARM.Collect$$$$0000000F)
    Reset_Handler                            0x080001c1   Thumb Code     8  startup_stm32f429xx.o(.text)
    ADC_IRQHandler                           0x080001db   Thumb Code     0  startup_stm32f429xx.o(.text)
    CAN1_RX0_IRQHandler                      0x080001db   Thumb Code     0  startup_stm32f429xx.o(.text)
    CAN1_RX1_IRQHandler                      0x080001db   Thumb Code     0  startup_stm32f429xx.o(.text)
    CAN1_SCE_IRQHandler                      0x080001db   Thumb Code     0  startup_stm32f429xx.o(.text)
    CAN1_TX_IRQHandler                       0x080001db   Thumb Code     0  startup_stm32f429xx.o(.text)
    CAN2_RX0_IRQHandler                      0x080001db   Thumb Code     0  startup_stm32f429xx.o(.text)
    CAN2_RX1_IRQHandler                      0x080001db   Thumb Code     0  startup_stm32f429xx.o(.text)
    CAN2_SCE_IRQHandler                      0x080001db   Thumb Code     0  startup_stm32f429xx.o(.text)
    CAN2_TX_IRQHandler                       0x080001db   Thumb Code     0  startup_stm32f429xx.o(.text)
    DCMI_IRQHandler                          0x080001db   Thumb Code     0  startup_stm32f429xx.o(.text)
    DMA1_Stream0_IRQHandler                  0x080001db   Thumb Code     0  startup_stm32f429xx.o(.text)
    DMA1_Stream1_IRQHandler                  0x080001db   Thumb Code     0  startup_stm32f429xx.o(.text)
    DMA1_Stream2_IRQHandler                  0x080001db   Thumb Code     0  startup_stm32f429xx.o(.text)
    DMA1_Stream3_IRQHandler                  0x080001db   Thumb Code     0  startup_stm32f429xx.o(.text)
    DMA1_Stream4_IRQHandler                  0x080001db   Thumb Code     0  startup_stm32f429xx.o(.text)
    DMA1_Stream6_IRQHandler                  0x080001db   Thumb Code     0  startup_stm32f429xx.o(.text)
    DMA1_Stream7_IRQHandler                  0x080001db   Thumb Code     0  startup_stm32f429xx.o(.text)
    DMA2D_IRQHandler                         0x080001db   Thumb Code     0  startup_stm32f429xx.o(.text)
    DMA2_Stream1_IRQHandler                  0x080001db   Thumb Code     0  startup_stm32f429xx.o(.text)
    DMA2_Stream2_IRQHandler                  0x080001db   Thumb Code     0  startup_stm32f429xx.o(.text)
    DMA2_Stream3_IRQHandler                  0x080001db   Thumb Code     0  startup_stm32f429xx.o(.text)
    DMA2_Stream5_IRQHandler                  0x080001db   Thumb Code     0  startup_stm32f429xx.o(.text)
    DMA2_Stream6_IRQHandler                  0x080001db   Thumb Code     0  startup_stm32f429xx.o(.text)
    DMA2_Stream7_IRQHandler                  0x080001db   Thumb Code     0  startup_stm32f429xx.o(.text)
    ETH_IRQHandler                           0x080001db   Thumb Code     0  startup_stm32f429xx.o(.text)
    ETH_WKUP_IRQHandler                      0x080001db   Thumb Code     0  startup_stm32f429xx.o(.text)
    EXTI0_IRQHandler                         0x080001db   Thumb Code     0  startup_stm32f429xx.o(.text)
    EXTI15_10_IRQHandler                     0x080001db   Thumb Code     0  startup_stm32f429xx.o(.text)
    EXTI1_IRQHandler                         0x080001db   Thumb Code     0  startup_stm32f429xx.o(.text)
    EXTI2_IRQHandler                         0x080001db   Thumb Code     0  startup_stm32f429xx.o(.text)
    EXTI3_IRQHandler                         0x080001db   Thumb Code     0  startup_stm32f429xx.o(.text)
    EXTI4_IRQHandler                         0x080001db   Thumb Code     0  startup_stm32f429xx.o(.text)
    EXTI9_5_IRQHandler                       0x080001db   Thumb Code     0  startup_stm32f429xx.o(.text)
    FLASH_IRQHandler                         0x080001db   Thumb Code     0  startup_stm32f429xx.o(.text)
    FMC_IRQHandler                           0x080001db   Thumb Code     0  startup_stm32f429xx.o(.text)
    FPU_IRQHandler                           0x080001db   Thumb Code     0  startup_stm32f429xx.o(.text)
    HASH_RNG_IRQHandler                      0x080001db   Thumb Code     0  startup_stm32f429xx.o(.text)
    I2C1_ER_IRQHandler                       0x080001db   Thumb Code     0  startup_stm32f429xx.o(.text)
    I2C1_EV_IRQHandler                       0x080001db   Thumb Code     0  startup_stm32f429xx.o(.text)
    I2C2_ER_IRQHandler                       0x080001db   Thumb Code     0  startup_stm32f429xx.o(.text)
    I2C2_EV_IRQHandler                       0x080001db   Thumb Code     0  startup_stm32f429xx.o(.text)
    I2C3_ER_IRQHandler                       0x080001db   Thumb Code     0  startup_stm32f429xx.o(.text)
    I2C3_EV_IRQHandler                       0x080001db   Thumb Code     0  startup_stm32f429xx.o(.text)
    LTDC_ER_IRQHandler                       0x080001db   Thumb Code     0  startup_stm32f429xx.o(.text)
    LTDC_IRQHandler                          0x080001db   Thumb Code     0  startup_stm32f429xx.o(.text)
    OTG_FS_IRQHandler                        0x080001db   Thumb Code     0  startup_stm32f429xx.o(.text)
    OTG_FS_WKUP_IRQHandler                   0x080001db   Thumb Code     0  startup_stm32f429xx.o(.text)
    OTG_HS_EP1_IN_IRQHandler                 0x080001db   Thumb Code     0  startup_stm32f429xx.o(.text)
    OTG_HS_EP1_OUT_IRQHandler                0x080001db   Thumb Code     0  startup_stm32f429xx.o(.text)
    OTG_HS_IRQHandler                        0x080001db   Thumb Code     0  startup_stm32f429xx.o(.text)
    OTG_HS_WKUP_IRQHandler                   0x080001db   Thumb Code     0  startup_stm32f429xx.o(.text)
    PVD_IRQHandler                           0x080001db   Thumb Code     0  startup_stm32f429xx.o(.text)
    RCC_IRQHandler                           0x080001db   Thumb Code     0  startup_stm32f429xx.o(.text)
    RTC_Alarm_IRQHandler                     0x080001db   Thumb Code     0  startup_stm32f429xx.o(.text)
    RTC_WKUP_IRQHandler                      0x080001db   Thumb Code     0  startup_stm32f429xx.o(.text)
    SAI1_IRQHandler                          0x080001db   Thumb Code     0  startup_stm32f429xx.o(.text)
    SDIO_IRQHandler                          0x080001db   Thumb Code     0  startup_stm32f429xx.o(.text)
    SPI1_IRQHandler                          0x080001db   Thumb Code     0  startup_stm32f429xx.o(.text)
    SPI2_IRQHandler                          0x080001db   Thumb Code     0  startup_stm32f429xx.o(.text)
    SPI3_IRQHandler                          0x080001db   Thumb Code     0  startup_stm32f429xx.o(.text)
    SPI4_IRQHandler                          0x080001db   Thumb Code     0  startup_stm32f429xx.o(.text)
    SPI5_IRQHandler                          0x080001db   Thumb Code     0  startup_stm32f429xx.o(.text)
    SPI6_IRQHandler                          0x080001db   Thumb Code     0  startup_stm32f429xx.o(.text)
    TAMP_STAMP_IRQHandler                    0x080001db   Thumb Code     0  startup_stm32f429xx.o(.text)
    TIM1_BRK_TIM9_IRQHandler                 0x080001db   Thumb Code     0  startup_stm32f429xx.o(.text)
    TIM1_CC_IRQHandler                       0x080001db   Thumb Code     0  startup_stm32f429xx.o(.text)
    TIM1_TRG_COM_TIM11_IRQHandler            0x080001db   Thumb Code     0  startup_stm32f429xx.o(.text)
    TIM1_UP_TIM10_IRQHandler                 0x080001db   Thumb Code     0  startup_stm32f429xx.o(.text)
    TIM2_IRQHandler                          0x080001db   Thumb Code     0  startup_stm32f429xx.o(.text)
    TIM3_IRQHandler                          0x080001db   Thumb Code     0  startup_stm32f429xx.o(.text)
    TIM4_IRQHandler                          0x080001db   Thumb Code     0  startup_stm32f429xx.o(.text)
    TIM5_IRQHandler                          0x080001db   Thumb Code     0  startup_stm32f429xx.o(.text)
    TIM6_DAC_IRQHandler                      0x080001db   Thumb Code     0  startup_stm32f429xx.o(.text)
    TIM7_IRQHandler                          0x080001db   Thumb Code     0  startup_stm32f429xx.o(.text)
    TIM8_BRK_TIM12_IRQHandler                0x080001db   Thumb Code     0  startup_stm32f429xx.o(.text)
    TIM8_CC_IRQHandler                       0x080001db   Thumb Code     0  startup_stm32f429xx.o(.text)
    TIM8_TRG_COM_TIM14_IRQHandler            0x080001db   Thumb Code     0  startup_stm32f429xx.o(.text)
    TIM8_UP_TIM13_IRQHandler                 0x080001db   Thumb Code     0  startup_stm32f429xx.o(.text)
    UART4_IRQHandler                         0x080001db   Thumb Code     0  startup_stm32f429xx.o(.text)
    UART5_IRQHandler                         0x080001db   Thumb Code     0  startup_stm32f429xx.o(.text)
    UART7_IRQHandler                         0x080001db   Thumb Code     0  startup_stm32f429xx.o(.text)
    UART8_IRQHandler                         0x080001db   Thumb Code     0  startup_stm32f429xx.o(.text)
    USART2_IRQHandler                        0x080001db   Thumb Code     0  startup_stm32f429xx.o(.text)
    USART6_IRQHandler                        0x080001db   Thumb Code     0  startup_stm32f429xx.o(.text)
    WWDG_IRQHandler                          0x080001db   Thumb Code     0  startup_stm32f429xx.o(.text)
    __aeabi_uldivmod                         0x080001e5   Thumb Code    98  uldiv.o(.text)
    ___aeabi_memcpy8$move                    0x08000247   Thumb Code     0  memmovea.o(.text)
    __aeabi_memcpy                           0x08000247   Thumb Code    64  memmovea.o(.text)
    __aeabi_memcpy4                          0x08000247   Thumb Code     0  memmovea.o(.text)
    __aeabi_memmove                          0x08000247   Thumb Code     0  memmovea.o(.text)
    __aeabi_memmove4                         0x08000247   Thumb Code     0  memmovea.o(.text)
    __aeabi_memmove8                         0x08000247   Thumb Code     0  memmovea.o(.text)
    __aeabi_memset                           0x08000287   Thumb Code    14  memseta.o(.text)
    __aeabi_memset4                          0x08000287   Thumb Code     0  memseta.o(.text)
    __aeabi_memset8                          0x08000287   Thumb Code     0  memseta.o(.text)
    __aeabi_memclr                           0x08000295   Thumb Code     4  memseta.o(.text)
    __aeabi_memclr4                          0x08000295   Thumb Code     0  memseta.o(.text)
    __aeabi_memclr8                          0x08000295   Thumb Code     0  memseta.o(.text)
    _memset$wrapper                          0x08000299   Thumb Code    18  memseta.o(.text)
    strncpy                                  0x080002ab   Thumb Code    24  strncpy.o(.text)
    memcmp                                   0x080002c3   Thumb Code    26  memcmp.o(.text)
    strcpy                                   0x080002dd   Thumb Code    18  strcpy.o(.text)
    strncmp                                  0x080002ef   Thumb Code    30  strncmp.o(.text)
    __0sscanf                                0x0800030d   Thumb Code    48  __0sscanf.o(.text)
    _scanf_int                               0x08000345   Thumb Code   332  _scanf_int.o(.text)
    _scanf_string                            0x08000491   Thumb Code   224  _scanf_str.o(.text)
    __aeabi_dadd                             0x08000571   Thumb Code   322  dadd.o(.text)
    __aeabi_dsub                             0x080006b3   Thumb Code     6  dadd.o(.text)
    __aeabi_drsub                            0x080006b9   Thumb Code     6  dadd.o(.text)
    __aeabi_dmul                             0x080006bf   Thumb Code   228  dmul.o(.text)
    __aeabi_ui2d                             0x080007a3   Thumb Code    26  dfltui.o(.text)
    __aeabi_d2uiz                            0x080007bd   Thumb Code    50  dfixui.o(.text)
    __aeabi_f2d                              0x080007ef   Thumb Code    38  f2d.o(.text)
    __aeabi_cdcmpeq                          0x08000815   Thumb Code     0  cdcmple.o(.text)
    __aeabi_cdcmple                          0x08000815   Thumb Code    48  cdcmple.o(.text)
    __aeabi_cdrcmple                         0x08000845   Thumb Code    48  cdrcmple.o(.text)
    __aeabi_uidiv                            0x08000875   Thumb Code     0  uidiv.o(.text)
    __aeabi_uidivmod                         0x08000875   Thumb Code    44  uidiv.o(.text)
    __aeabi_llsl                             0x080008a1   Thumb Code    30  llshl.o(.text)
    _ll_shift_l                              0x080008a1   Thumb Code     0  llshl.o(.text)
    __aeabi_llsr                             0x080008bf   Thumb Code    32  llushr.o(.text)
    _ll_ushift_r                             0x080008bf   Thumb Code     0  llushr.o(.text)
    __aeabi_lasr                             0x080008df   Thumb Code    36  llsshr.o(.text)
    _ll_sshift_r                             0x080008df   Thumb Code     0  llsshr.o(.text)
    _chval                                   0x08000903   Thumb Code    28  _chval.o(.text)
    __vfscanf_char                           0x0800092d   Thumb Code    20  scanf_char.o(.text)
    _sgetc                                   0x08000949   Thumb Code    30  _sgetc.o(.text)
    _sbackspace                              0x08000967   Thumb Code    34  _sgetc.o(.text)
    __I$use$fp                               0x08000989   Thumb Code     0  iusefp.o(.text)
    _double_round                            0x08000989   Thumb Code    30  depilogue.o(.text)
    _double_epilogue                         0x080009a7   Thumb Code   156  depilogue.o(.text)
    __aeabi_ddiv                             0x08000a43   Thumb Code   222  ddiv.o(.text)
    __aeabi_d2ulz                            0x08000b21   Thumb Code    48  dfixul.o(.text)
    __fp_status                              0x08000b51   Thumb Code     4  fpstat.o(.text)
    __ieee_status                            0x08000b51   Thumb Code     0  fpstat.o(.text)
    __scatterload                            0x08000b55   Thumb Code    28  init.o(.text)
    __scatterload_rt2                        0x08000b55   Thumb Code     0  init.o(.text)
    isspace                                  0x08000b79   Thumb Code    10  isspace_c.o(.text)
    __vfscanf                                0x08000b85   Thumb Code   808  _scanf.o(.text)
    __ctype_lookup                           0x08000eb1   Thumb Code    34  ctype_c.o(.text)
    __decompress                             0x08000ed9   Thumb Code     0  __dczerorl2.o(.text)
    __decompress1                            0x08000ed9   Thumb Code    86  __dczerorl2.o(.text)
    AudioInOutInit                           0x080010e5   Thumb Code   136  audio_in_out.o(i.AudioInOutInit)
    AudioInPop                               0x080011a5   Thumb Code    48  audio_in_out.o(i.AudioInPop)
    AudioOutPush                             0x080011fd   Thumb Code    22  audio_in_out.o(i.AudioOutPush)
    AudioSamleFromADC                        0x08001219   Thumb Code    14  g711.o(i.AudioSamleFromADC)
    AudioSamleToDAC                          0x08001229   Thumb Code   160  g711.o(i.AudioSamleToDAC)
    BitRingInit                              0x080012d1   Thumb Code    32  hdlc_rx_low_level.o(i.BitRingInit)
    BitRingProcessBit                        0x0800130d   Thumb Code   212  hdlc_rx_low_level.o(i.BitRingProcessBit)
    BusFault_Handler                         0x080013f1   Thumb Code     2  stm32f4xx_it.o(i.BusFault_Handler)
    Crc16                                    0x080013f3   Thumb Code    76  crc-16_ccitt.o(i.Crc16)
    DMA1_Stream5_IRQHandler                  0x08001441   Thumb Code     6  stm32f4xx_it.o(i.DMA1_Stream5_IRQHandler)
    DMA2_Stream0_IRQHandler                  0x0800144d   Thumb Code     6  stm32f4xx_it.o(i.DMA2_Stream0_IRQHandler)
    DMA2_Stream4_IRQHandler                  0x08001459   Thumb Code     6  stm32f4xx_it.o(i.DMA2_Stream4_IRQHandler)
    DV_port_input_Init                       0x08001509   Thumb Code    14  st-bus_sai_in_out.o(i.DV_port_input_Init)
    DebugMon_Handler                         0x08001517   Thumb Code     2  stm32f4xx_it.o(i.DebugMon_Handler)
    Error_Handler                            0x08001519   Thumb Code     2  main.o(i.Error_Handler)
    Filter0                                  0x0800151d   Thumb Code   190  potentiometer.o(i.Filter0)
    Filter1                                  0x08001601   Thumb Code   190  potentiometer.o(i.Filter1)
    Filter2                                  0x080016e5   Thumb Code   190  potentiometer.o(i.Filter2)
    Filter3                                  0x080017c9   Thumb Code   190  potentiometer.o(i.Filter3)
    HAL_ADC_ConfigChannel                    0x080018ad   Thumb Code   334  stm32f4xx_hal_adc.o(i.HAL_ADC_ConfigChannel)
    HAL_ADC_ConvCallback                     0x08001a11   Thumb Code   194  potentiometer.o(i.HAL_ADC_ConvCallback)
    HAL_ADC_ConvCpltCallback                 0x08001ad9   Thumb Code     6  potentiometer.o(i.HAL_ADC_ConvCpltCallback)
    HAL_ADC_ConvHalfCpltCallback             0x08001adf   Thumb Code     6  potentiometer.o(i.HAL_ADC_ConvHalfCpltCallback)
    HAL_ADC_ErrorCallback                    0x08001ae5   Thumb Code     2  stm32f4xx_hal_adc.o(i.HAL_ADC_ErrorCallback)
    HAL_ADC_Init                             0x08001ae7   Thumb Code    84  stm32f4xx_hal_adc.o(i.HAL_ADC_Init)
    HAL_ADC_MspInit                          0x08001b3d   Thumb Code   132  stm32f4xx_hal_msp.o(i.HAL_ADC_MspInit)
    HAL_ADC_Start_DMA                        0x08001bd5   Thumb Code   268  stm32f4xx_hal_adc.o(i.HAL_ADC_Start_DMA)
    HAL_DMA_IRQHandler                       0x08001d05   Thumb Code   412  stm32f4xx_hal_dma.o(i.HAL_DMA_IRQHandler)
    HAL_DMA_Init                             0x08001ea5   Thumb Code   206  stm32f4xx_hal_dma.o(i.HAL_DMA_Init)
    HAL_DMA_Start_IT                         0x08001f79   Thumb Code   110  stm32f4xx_hal_dma.o(i.HAL_DMA_Start_IT)
    HAL_Delay                                0x08001fe9   Thumb Code    32  stm32f4xx_hal.o(i.HAL_Delay)
    HAL_GPIO_Init                            0x0800200d   Thumb Code   414  stm32f4xx_hal_gpio.o(i.HAL_GPIO_Init)
    HAL_GPIO_ReadPin                         0x080021e1   Thumb Code    10  stm32f4xx_hal_gpio.o(i.HAL_GPIO_ReadPin)
    HAL_GPIO_TogglePin                       0x080021eb   Thumb Code    14  stm32f4xx_hal_gpio.o(i.HAL_GPIO_TogglePin)
    HAL_GPIO_WritePin                        0x080021f9   Thumb Code    10  stm32f4xx_hal_gpio.o(i.HAL_GPIO_WritePin)
    HAL_GetTick                              0x08002205   Thumb Code     6  stm32f4xx_hal.o(i.HAL_GetTick)
    HAL_I2CEx_ConfigAnalogFilter             0x08002211   Thumb Code    66  stm32f4xx_hal_i2c_ex.o(i.HAL_I2CEx_ConfigAnalogFilter)
    HAL_I2CEx_ConfigDigitalFilter            0x08002253   Thumb Code    62  stm32f4xx_hal_i2c_ex.o(i.HAL_I2CEx_ConfigDigitalFilter)
    HAL_I2C_Init                             0x08002291   Thumb Code   376  stm32f4xx_hal_i2c.o(i.HAL_I2C_Init)
    HAL_I2C_Mem_Read                         0x08002419   Thumb Code   490  stm32f4xx_hal_i2c.o(i.HAL_I2C_Mem_Read)
    HAL_I2C_Mem_Write                        0x08002611   Thumb Code   294  stm32f4xx_hal_i2c.o(i.HAL_I2C_Mem_Write)
    HAL_I2C_MspInit                          0x08002741   Thumb Code    92  stm32f4xx_hal_msp.o(i.HAL_I2C_MspInit)
    HAL_I2SEx_FullDuplex_IRQHandler          0x080027a9   Thumb Code   492  stm32f4xx_hal_i2s_ex.o(i.HAL_I2SEx_FullDuplex_IRQHandler)
    HAL_I2SEx_TransmitReceive_DMA            0x0800299d   Thumb Code   394  stm32f4xx_hal_i2s_ex.o(i.HAL_I2SEx_TransmitReceive_DMA)
    HAL_I2SEx_TxRxCpltAltCallback            0x08002b3d   Thumb Code    26  audio_in_out.o(i.HAL_I2SEx_TxRxCpltAltCallback)
    HAL_I2SEx_TxRxCpltCallback               0x08002b61   Thumb Code     2  stm32f4xx_hal_i2s_ex.o(i.HAL_I2SEx_TxRxCpltCallback)
    HAL_I2SEx_TxRxHalfCpltCallback           0x08002b65   Thumb Code    98  audio_in_out.o(i.HAL_I2SEx_TxRxHalfCpltCallback)
    HAL_I2S_ErrorCallback                    0x08002bf9   Thumb Code    24  audio_in_out.o(i.HAL_I2S_ErrorCallback)
    HAL_I2S_Init                             0x08002c15   Thumb Code   354  stm32f4xx_hal_i2s.o(i.HAL_I2S_Init)
    HAL_I2S_MspInit                          0x08002d89   Thumb Code   328  stm32f4xx_hal_msp.o(i.HAL_I2S_MspInit)
    HAL_I2S_RxCpltCallback                   0x08002ef1   Thumb Code     2  stm32f4xx_hal_i2s.o(i.HAL_I2S_RxCpltCallback)
    HAL_I2S_TxCpltCallback                   0x08002ef3   Thumb Code     2  stm32f4xx_hal_i2s.o(i.HAL_I2S_TxCpltCallback)
    HAL_IncTick                              0x08002ef5   Thumb Code    12  stm32f4xx_hal.o(i.HAL_IncTick)
    HAL_Init                                 0x08002f05   Thumb Code    48  stm32f4xx_hal.o(i.HAL_Init)
    HAL_InitTick                             0x08002f39   Thumb Code    54  stm32f4xx_hal.o(i.HAL_InitTick)
    HAL_MspInit                              0x08002f79   Thumb Code    42  stm32f4xx_hal_msp.o(i.HAL_MspInit)
    HAL_NVIC_DisableIRQ                      0x08002fa9   Thumb Code    34  stm32f4xx_hal_cortex.o(i.HAL_NVIC_DisableIRQ)
    HAL_NVIC_EnableIRQ                       0x08002fcb   Thumb Code    26  stm32f4xx_hal_cortex.o(i.HAL_NVIC_EnableIRQ)
    HAL_NVIC_SetPriority                     0x08002fe5   Thumb Code    60  stm32f4xx_hal_cortex.o(i.HAL_NVIC_SetPriority)
    HAL_NVIC_SetPriorityGrouping             0x08003025   Thumb Code    26  stm32f4xx_hal_cortex.o(i.HAL_NVIC_SetPriorityGrouping)
    HAL_PWREx_EnableOverDrive                0x08003049   Thumb Code    98  stm32f4xx_hal_pwr_ex.o(i.HAL_PWREx_EnableOverDrive)
    HAL_RCCEx_GetPeriphCLKFreq               0x080030b9   Thumb Code    78  stm32f4xx_hal_rcc_ex.o(i.HAL_RCCEx_GetPeriphCLKFreq)
    HAL_RCCEx_PeriphCLKConfig                0x08003115   Thumb Code   560  stm32f4xx_hal_rcc_ex.o(i.HAL_RCCEx_PeriphCLKConfig)
    HAL_RCC_ClockConfig                      0x08003369   Thumb Code   288  stm32f4xx_hal_rcc.o(i.HAL_RCC_ClockConfig)
    HAL_RCC_GetPCLK1Freq                     0x0800349d   Thumb Code    20  stm32f4xx_hal_rcc.o(i.HAL_RCC_GetPCLK1Freq)
    HAL_RCC_GetSysClockFreq                  0x080034bd   Thumb Code    88  stm32f4xx_hal_rcc.o(i.HAL_RCC_GetSysClockFreq)
    HAL_RCC_OscConfig                        0x0800351d   Thumb Code   840  stm32f4xx_hal_rcc.o(i.HAL_RCC_OscConfig)
    HAL_SAI_ErrorCallback                    0x08003879   Thumb Code    30  st-bus_sai_in_out.o(i.HAL_SAI_ErrorCallback)
    HAL_SAI_GetError                         0x080038ad   Thumb Code     6  stm32f4xx_hal_sai.o(i.HAL_SAI_GetError)
    HAL_SAI_Init                             0x080038b5   Thumb Code   346  stm32f4xx_hal_sai.o(i.HAL_SAI_Init)
    HAL_SAI_MspInit                          0x08003a19   Thumb Code   260  stm32f4xx_hal_msp.o(i.HAL_SAI_MspInit)
    HAL_SAI_Receive_DMA                      0x08003b39   Thumb Code   158  stm32f4xx_hal_sai.o(i.HAL_SAI_Receive_DMA)
    HAL_SAI_RxCpltCallback                   0x08003be5   Thumb Code   278  st-bus_sai_in_out.o(i.HAL_SAI_RxCpltCallback)
    HAL_SAI_RxHalfCpltCallback               0x08003d31   Thumb Code     2  st-bus_sai_in_out.o(i.HAL_SAI_RxHalfCpltCallback)
    HAL_SAI_Transmit_DMA                     0x08003d35   Thumb Code   158  stm32f4xx_hal_sai.o(i.HAL_SAI_Transmit_DMA)
    HAL_SAI_TxCpltCallback                   0x08003de1   Thumb Code     2  st-bus_sai_in_out.o(i.HAL_SAI_TxCpltCallback)
    HAL_SAI_TxHalfCpltCallback               0x08003de3   Thumb Code     2  st-bus_sai_in_out.o(i.HAL_SAI_TxHalfCpltCallback)
    HAL_SYSTICK_Config                       0x08003de5   Thumb Code    40  stm32f4xx_hal_cortex.o(i.HAL_SYSTICK_Config)
    HDLC_ProcessTx                           0x08003e0d   Thumb Code    18  hdlc_tx.o(i.HDLC_ProcessTx)
    HardFault_Handler                        0x08003e25   Thumb Code    34  stm32f4xx_it.o(i.HardFault_Handler)
    HdlcBitStreamGetBit                      0x08003e51   Thumb Code    48  hdlc_tx_low_level.o(i.HdlcBitStreamGetBit)
    HexToChar                                0x08003e8d   Thumb Code    46  dbg_uart.o(i.HexToChar)
    I2SEx_TxRxDMACpltAlt                     0x08004429   Thumb Code    12  audio_in_out.o(i.I2SEx_TxRxDMACpltAlt)
    Inc                                      0x08004585   Thumb Code    12  hdlc_rx_low_level.o(i.Inc)
    LL_GPIO_Init                             0x080045a9   Thumb Code   310  stm32f4xx_ll_gpio.o(i.LL_GPIO_Init)
    LL_RCC_GetSystemClocksFreq               0x080046df   Thumb Code    32  stm32f4xx_ll_rcc.o(i.LL_RCC_GetSystemClocksFreq)
    LL_USART_Init                            0x08004711   Thumb Code   152  stm32f4xx_ll_usart.o(i.LL_USART_Init)
    MemManage_Handler                        0x08004d19   Thumb Code     2  stm32f4xx_it.o(i.MemManage_Handler)
    NMI_Handler                              0x08004d1b   Thumb Code     2  stm32f4xx_it.o(i.NMI_Handler)
    PendSV_Handler                           0x08004d4f   Thumb Code     2  stm32f4xx_it.o(i.PendSV_Handler)
    RCC_GetHCLKClockFreq                     0x08004d51   Thumb Code    18  stm32f4xx_ll_rcc.o(i.RCC_GetHCLKClockFreq)
    RCC_GetPCLK1ClockFreq                    0x08004d6d   Thumb Code    20  stm32f4xx_ll_rcc.o(i.RCC_GetPCLK1ClockFreq)
    RCC_GetPCLK2ClockFreq                    0x08004d89   Thumb Code    20  stm32f4xx_ll_rcc.o(i.RCC_GetPCLK2ClockFreq)
    RCC_GetSystemClockFreq                   0x08004da5   Thumb Code    30  stm32f4xx_ll_rcc.o(i.RCC_GetSystemClockFreq)
    RCC_PLL_GetFreqDomain_SYS                0x08004dd1   Thumb Code    68  stm32f4xx_ll_rcc.o(i.RCC_PLL_GetFreqDomain_SYS)
    SAI_BlockSynchroConfig                   0x08004e1d   Thumb Code    28  stm32f4xx_hal_sai_ex.o(i.SAI_BlockSynchroConfig)
    SAI_DMA_Init                             0x08004f0d   Thumb Code    34  st-bus_sai_in_out.o(i.SAI_DMA_Init)
    SAI_GetInputClock                        0x08004f89   Thumb Code   152  stm32f4xx_hal_sai_ex.o(i.SAI_GetInputClock)
    SVC_Handler                              0x08005065   Thumb Code     2  stm32f4xx_it.o(i.SVC_Handler)
    SysTick_Handler                          0x08005067   Thumb Code    18  stm32f4xx_it.o(i.SysTick_Handler)
    SystemClock_Config                       0x08005079   Thumb Code   176  main.o(i.SystemClock_Config)
    SystemInit                               0x08005131   Thumb Code    22  system_stm32f4xx.o(i.SystemInit)
    USART1_IRQHandler                        0x0800514d   Thumb Code    90  dbg_uart.o(i.USART1_IRQHandler)
    USART3_IRQHandler                        0x080051b1   Thumb Code   172  uart.o(i.USART3_IRQHandler)
    UsageFault_Handler                       0x08005271   Thumb Code     2  stm32f4xx_it.o(i.UsageFault_Handler)
    __0printf                                0x08005275   Thumb Code    22  printfa.o(i.__0printf)
    __1printf                                0x08005275   Thumb Code     0  printfa.o(i.__0printf)
    __2printf                                0x08005275   Thumb Code     0  printfa.o(i.__0printf)
    __c89printf                              0x08005275   Thumb Code     0  printfa.o(i.__0printf)
    printf                                   0x08005275   Thumb Code     0  printfa.o(i.__0printf)
    __0sprintf                               0x08005295   Thumb Code    34  printfa.o(i.__0sprintf)
    __1sprintf                               0x08005295   Thumb Code     0  printfa.o(i.__0sprintf)
    __2sprintf                               0x08005295   Thumb Code     0  printfa.o(i.__0sprintf)
    __c89sprintf                             0x08005295   Thumb Code     0  printfa.o(i.__0sprintf)
    sprintf                                  0x08005295   Thumb Code     0  printfa.o(i.__0sprintf)
    __ARM_fpclassifyf                        0x080052bd   Thumb Code    38  fpclassifyf.o(i.__ARM_fpclassifyf)
    __hardfp_powf                            0x0800533d   Thumb Code  1606  powf.o(i.__hardfp_powf)
    __mathlib_powf                           0x0800533d   Thumb Code     0  powf.o(i.__hardfp_powf)
    __mathlib_flt_divzero                    0x080059a1   Thumb Code    14  funder.o(i.__mathlib_flt_divzero)
    __mathlib_flt_infnan2                    0x080059b5   Thumb Code     6  funder.o(i.__mathlib_flt_infnan2)
    __mathlib_flt_invalid                    0x080059bd   Thumb Code    10  funder.o(i.__mathlib_flt_invalid)
    __mathlib_flt_overflow                   0x080059cd   Thumb Code    10  funder.o(i.__mathlib_flt_overflow)
    __mathlib_flt_underflow                  0x080059dd   Thumb Code    10  funder.o(i.__mathlib_flt_underflow)
    __scatterload_copy                       0x080059ed   Thumb Code    14  handlers.o(i.__scatterload_copy)
    __scatterload_null                       0x080059fb   Thumb Code     2  handlers.o(i.__scatterload_null)
    __scatterload_zeroinit                   0x080059fd   Thumb Code    14  handlers.o(i.__scatterload_zeroinit)
    __set_errno                              0x08005a0d   Thumb Code     6  errno.o(i.__set_errno)
    addByteToBitStream                       0x080062d5   Thumb Code    76  hdlc_tx_low_level.o(i.addByteToBitStream)
    addFlagToBitStream                       0x08006329   Thumb Code    38  hdlc_tx_low_level.o(i.addFlagToBitStream)
    alaw2linear                              0x08006359   Thumb Code    38  g711.o(i.alaw2linear)
    checkDelay                               0x08006381   Thumb Code    24  main_logic.o(i.checkDelay)
    checkTimeout                             0x0800639d   Thumb Code    24  main_logic.o(i.checkTimeout)
    codecInit                                0x080063b9   Thumb Code   544  codec_tlv320aic3100.o(i.codecInit)
    createHdlcBitStream                      0x08006611   Thumb Code    90  hdlc_tx_low_level.o(i.createHdlcBitStream)
    dbgUartPutchar                           0x08006671   Thumb Code    38  dbg_uart.o(i.dbgUartPutchar)
    dbgUartPutsArray                         0x080066a5   Thumb Code    24  dbg_uart.o(i.dbgUartPutsArray)
    doMainLogic                              0x080066bd   Thumb Code    30  main_logic.o(i.doMainLogic)
    doRegistration                           0x080066dd   Thumb Code   930  main_logic.o(i.doRegistration)
    doTastature                              0x08006d01   Thumb Code   484  tastature.o(i.doTastature)
    doVolumeControl                          0x08006f71   Thumb Code    82  volume_control.o(i.doVolumeControl)
    fputc                                    0x08006fcd   Thumb Code    14  dbg_uart.o(i.fputc)
    getPotValue                              0x08006fdd   Thumb Code     8  potentiometer.o(i.getPotValue)
    handsetButtonsService                    0x08006fe9   Thumb Code   176  tastature.o(i.handsetButtonsService)
    haveWorkingKeypad                        0x080070b1   Thumb Code    24  tastature.o(i.haveWorkingKeypad)
    initMainLogic                            0x080070cd   Thumb Code    14  main_logic.o(i.initMainLogic)
    initTastature                            0x080070e1   Thumb Code   112  tastature.o(i.initTastature)
    isHdlcFifoEmpty                          0x08007175   Thumb Code    20  hdlc_tx.o(i.isHdlcFifoEmpty)
    linear2alaw                              0x0800718d   Thumb Code    70  g711.o(i.linear2alaw)
    main                                     0x080071d9   Thumb Code   136  main.o(i.main)
    muteHlt                                  0x0800729d   Thumb Code    40  codec_tlv320aic3100.o(i.muteHlt)
    muteLoudspeaker                          0x080072d5   Thumb Code    32  codec_tlv320aic3100.o(i.muteLoudspeaker)
    potInit                                  0x0800730d   Thumb Code    12  potentiometer.o(i.potInit)
    processHdlcFrame                         0x08007321   Thumb Code   324  hdlc_rx_low_level.o(i.processHdlcFrame)
    processKeys                              0x080074b1   Thumb Code   164  main_logic.o(i.processKeys)
    processNonRegistrativeTelegrams          0x08007591   Thumb Code   874  main_logic.o(i.processNonRegistrativeTelegrams)
    puts                                     0x08007be1   Thumb Code    30  puts.o(i.puts)
    readFromPosition                         0x08007c05   Thumb Code    48  hdlc_rx_low_level.o(i.readFromPosition)
    reflect                                  0x08007c95   Thumb Code    32  crc-16_ccitt.o(i.reflect)
    regReset                                 0x08007cb5   Thumb Code    26  main_logic.o(i.regReset)
    selectHandsetMic                         0x08007cf9   Thumb Code    26  codec_tlv320aic3100.o(i.selectHandsetMic)
    selectLoudspeakMic                       0x08007d19   Thumb Code    28  codec_tlv320aic3100.o(i.selectLoudspeakMic)
    sendTelegram                             0x08007d39   Thumb Code   110  main_logic.o(i.sendTelegram)
    sendTelegramKeepAlive                    0x08007dd9   Thumb Code    28  main_logic.o(i.sendTelegramKeepAlive)
    setDelay                                 0x08007e01   Thumb Code    16  main_logic.o(i.setDelay)
    setHltVol                                0x08007e15   Thumb Code    94  codec_tlv320aic3100.o(i.setHltVol)
    setMicVol                                0x08007e8d   Thumb Code   104  codec_tlv320aic3100.o(i.setMicVol)
    setSpeakerVol                            0x08007f19   Thumb Code    94  codec_tlv320aic3100.o(i.setSpeakerVol)
    setTimeout                               0x08007f91   Thumb Code    16  main_logic.o(i.setTimeout)
    signalGeneration                         0x08007fa5   Thumb Code   118  main_logic.o(i.signalGeneration)
    startHdlcTransmition                     0x08008025   Thumb Code   102  hdlc_tx.o(i.startHdlcTransmition)
    tastCheckPresence                        0x080080a9   Thumb Code   110  tastature.o(i.tastCheckPresence)
    tastCmdLeds                              0x0800816d   Thumb Code    48  tastature.o(i.tastCmdLeds)
    tastCmdReadKeys                          0x080081a1   Thumb Code    54  tastature.o(i.tastCmdReadKeys)
    tastLedTestOff                           0x080081e1   Thumb Code    30  tastature.o(i.tastLedTestOff)
    tastLedTestOn                            0x0800821d   Thumb Code    30  tastature.o(i.tastLedTestOn)
    tastSetIndication                        0x08008259   Thumb Code    62  tastature.o(i.tastSetIndication)
    uartBytesReceived                        0x080082b5   Thumb Code    14  uart.o(i.uartBytesReceived)
    uartGetchar                              0x080082c9   Thumb Code    18  uart.o(i.uartGetchar)
    uartInit                                 0x080082e1   Thumb Code    30  uart.o(i.uartInit)
    uartPutchar                              0x08008309   Thumb Code    44  uart.o(i.uartPutchar)
    uartPuts                                 0x08008341   Thumb Code    22  uart.o(i.uartPuts)
    uartRS485TxBusy                          0x08008359   Thumb Code     8  uart.o(i.uartRS485TxBusy)
    uartReceiveStart                         0x08008365   Thumb Code    32  uart.o(i.uartReceiveStart)
    uartRxFifoFlush                          0x0800838d   Thumb Code    10  uart.o(i.uartRxFifoFlush)
    unmuteHlt                                0x0800839d   Thumb Code    42  codec_tlv320aic3100.o(i.unmuteHlt)
    unmuteLoudspeaker                        0x080083dd   Thumb Code    34  codec_tlv320aic3100.o(i.unmuteLoudspeaker)
    volumeControlInit                        0x0800841d   Thumb Code     4  volume_control.o(i.volumeControlInit)
    writeHdlcTxFifo                          0x08008421   Thumb Code    20  hdlc_tx.o(i.writeHdlcTxFifo)
    seg_end                                  0x080084ac   Data          16  g711.o(.constdata)
    _u2a                                     0x080084bc   Data         128  g711.o(.constdata)
    _a2u                                     0x0800853c   Data         128  g711.o(.constdata)
    AHBPrescTable                            0x080085c4   Data          16  system_stm32f4xx.o(.constdata)
    APBPrescTable                            0x080085d4   Data           8  system_stm32f4xx.o(.constdata)
    __ctype_categories                       0x0800871c   Data          64  ctype_c.o(.constdata)
    Region$$Table$$Base                      0x0800875c   Number         0  anon$$obj.o(Region$$Table)
    Region$$Table$$Limit                     0x0800877c   Number         0  anon$$obj.o(Region$$Table)
    C_channel_out                            0x20000000   Data           1  st-bus_sai_in_out.o(.data)
    sync_bit                                 0x20000001   Data           1  st-bus_sai_in_out.o(.data)
    telegram_len                             0x20000008   Data           1  hdlc_rx_low_level.o(.data)
    flag_telegram_received                   0x20000009   Data           1  hdlc_rx_low_level.o(.data)
    flag_HDLC_transmitter_busy               0x2000001a   Data           1  hdlc_tx.o(.data)
    flag_HDLC_bitstream_ready                0x2000001c   Data           1  hdlc_tx_low_level.o(.data)
    flag_start_hdlc_transmission             0x2000001d   Data           1  hdlc_tx_low_level.o(.data)
    bit_stream_length                        0x2000001e   Data           2  hdlc_tx_low_level.o(.data)
    current_bit                              0x20000020   Data           2  hdlc_tx_low_level.o(.data)
    ones_counter                             0x20000022   Data           2  hdlc_tx_low_level.o(.data)
    flag_tx_enabled                          0x20000024   Data           1  dbg_uart.o(.data)
    flag_abon_registered                     0x20000028   Data           1  main_logic.o(.data)
    abonent_status                           0x20000029   Data           1  main_logic.o(.data)
    sound_channel                            0x2000002a   Data           1  main_logic.o(.data)
    dialtone_generation_en                   0x2000002b   Data           1  main_logic.o(.data)
    short_busytone_generation_en             0x2000002c   Data           1  main_logic.o(.data)
    handset_support_en                       0x2000002d   Data           1  main_logic.o(.data)
    handset_poll_en                          0x2000002e   Data           1  main_logic.o(.data)
    handset_hook_inverse                     0x2000002f   Data           1  main_logic.o(.data)
    flag_sound_en                            0x20000030   Data           1  main_logic.o(.data)
    hook_key_number                          0x20000034   Data           3  main_logic.o(.data)
    our_addr                                 0x20000037   Data           3  main_logic.o(.data)
    dest_addr                                0x2000003a   Data           3  main_logic.o(.data)
    reg_step                                 0x20000040   Data           4  main_logic.o(.data)
    vcr_att_dB                               0x20000044   Data           4  main_logic.o(.data)
    vcr_att                                  0x20000048   Data           4  main_logic.o(.data)
    tmr                                      0x20000060   Data           4  main_logic.o(.data)
    delay                                    0x20000064   Data           4  main_logic.o(.data)
    loud_speaker_en                          0x20000068   Data           1  main_logic.o(.data)
    handset_speaker_en                       0x20000069   Data           1  main_logic.o(.data)
    handset_is_off                           0x2000006d   Data           1  tastature.o(.data)
    led_test_enabled                         0x2000006e   Data           1  tastature.o(.data)
    flag_codec_init_err                      0x20000080   Data           1  codec_tlv320aic3100.o(.data)
    selected_mic                             0x20000081   Data           1  codec_tlv320aic3100.o(.data)
    vol_timer                                0x2000008c   Data           4  codec_tlv320aic3100.o(.data)
    flag_audio_OK                            0x20000090   Data           1  audio_in_out.o(.data)
    audio_out_sample                         0x20000092   Data           2  audio_in_out.o(.data)
    audio_out_DMA_Buffer                     0x20000096   Data           4  audio_in_out.o(.data)
    audio_in_DMA_Buffer                      0x2000009a   Data           4  audio_in_out.o(.data)
    sinebuf1                                 0x2000009e   Data         192  audio_in_out.o(.data)
    DAC_mode                                 0x20000160   Data           1  g711.o(.data)
    warble_rate                              0x20000161   Data           1  g711.o(.data)
    tone_coef_1                              0x20000162   Data           1  g711.o(.data)
    tone_coef_2                              0x20000163   Data           1  g711.o(.data)
    att                                      0x20000168   Data           4  g711.o(.data)
    uwTickFreq                               0x200001bc   Data           1  stm32f4xx_hal.o(.data)
    uwTickPrio                               0x200001c0   Data           4  stm32f4xx_hal.o(.data)
    uwTick                                   0x200001c4   Data           4  stm32f4xx_hal.o(.data)
    SystemCoreClock                          0x200001c8   Data           4  system_stm32f4xx.o(.data)
    __stdout                                 0x200001cc   Data           4  stdout.o(.data)
    SAI_DMA_input_buffer                     0x200001d4   Data          32  st-bus_sai_in_out.o(.bss)
    SAI_DMA_output_buffer                    0x200001f4   Data          32  st-bus_sai_in_out.o(.bss)
    telegram_string                          0x20000ad4   Data          64  hdlc_rx_low_level.o(.bss)
    tx_fifo                                  0x20000b14   Data          36  hdlc_tx.o(.bss)
    hdlc_packet_data                         0x20000b38   Data          32  hdlc_tx.o(.bss)
    tx_hdlc_packet_bit_stream                0x20000b58   Data         512  hdlc_tx_low_level.o(.bss)
    dbg_uart_tx_fifo                         0x20000d58   Data        4100  dbg_uart.o(.bss)
    vcr_grp_addr                             0x20001d6c   Data          16  main_logic.o(.bss)
    uart_tx_fifo                             0x20001d7c   Data         516  uart.o(.bss)
    uart_rx_fifo                             0x20001f80   Data         516  uart.o(.bss)
    key_event_str                            0x20002184   Data          16  tastature.o(.bss)
    tast_cmd_fifo                            0x200021ae   Data         516  tastature.o(.bss)
    handset_evnt_fifo                        0x200023b2   Data          68  tastature.o(.bss)
    audio_out_fifo                           0x200023f6   Data         260  audio_in_out.o(.bss)
    audio_in_fifo                            0x200024fa   Data         260  audio_in_out.o(.bss)
    adc1_aver_val                            0x20002600   Data          16  potentiometer.o(.bss)
    pot_value                                0x20002610   Data          16  potentiometer.o(.bss)
    adc1_val_buf                             0x20002620   Data        2048  potentiometer.o(.bss)
    hadc1                                    0x20002e20   Data          72  main.o(.bss)
    hi2c1                                    0x20002e68   Data          84  main.o(.bss)
    hi2s3                                    0x20002ebc   Data          72  main.o(.bss)
    hsai_BlockA1                             0x20002f04   Data         136  main.o(.bss)
    hsai_BlockB1                             0x20002f8c   Data         136  main.o(.bss)
    Fuses                                    0x20003014   Data          28  main.o(.bss)
    hdma_adc1                                0x20003030   Data          96  main.o(.bss)
    hdma_spi3_tx                             0x20003090   Data          96  main.o(.bss)
    hdma_i2s3_ext_rx                         0x200030f0   Data          96  main.o(.bss)
    hdma_sai1_b                              0x20003150   Data          96  main.o(.bss)
    hdma_sai1_a                              0x200031b0   Data          96  main.o(.bss)
    __initial_sp                             0x20003410   Data           0  startup_stm32f429xx.o(STACK)



==============================================================================

Memory Map of the image

  Image Entry point : 0x080001ad

  Load Region LR_IROM1 (Base: 0x08000000, Size: 0x00008950, Max: 0x00100000, ABSOLUTE, COMPRESSED[0x0000883c])

    Execution Region ER_IROM1 (Exec base: 0x08000000, Load base: 0x08000000, Size: 0x0000877c, Max: 0x00100000, ABSOLUTE)

    Exec Addr    Load Addr    Size         Type   Attr      Idx    E Section Name        Object

    0x08000000   0x08000000   0x000001ac   Data   RO            3    RESET               startup_stm32f429xx.o
    0x080001ac   0x080001ac   0x00000000   Code   RO         4637  * .ARM.Collect$$$$00000000  mc_w.l(entry.o)
    0x080001ac   0x080001ac   0x00000004   Code   RO         4963    .ARM.Collect$$$$00000001  mc_w.l(entry2.o)
    0x080001b0   0x080001b0   0x00000004   Code   RO         4966    .ARM.Collect$$$$00000004  mc_w.l(entry5.o)
    0x080001b4   0x080001b4   0x00000000   Code   RO         4968    .ARM.Collect$$$$00000008  mc_w.l(entry7b.o)
    0x080001b4   0x080001b4   0x00000000   Code   RO         4970    .ARM.Collect$$$$0000000A  mc_w.l(entry8b.o)
    0x080001b4   0x080001b4   0x00000008   Code   RO         4971    .ARM.Collect$$$$0000000B  mc_w.l(entry9a.o)
    0x080001bc   0x080001bc   0x00000000   Code   RO         4973    .ARM.Collect$$$$0000000D  mc_w.l(entry10a.o)
    0x080001bc   0x080001bc   0x00000000   Code   RO         4975    .ARM.Collect$$$$0000000F  mc_w.l(entry11a.o)
    0x080001bc   0x080001bc   0x00000004   Code   RO         4964    .ARM.Collect$$$$00002712  mc_w.l(entry2.o)
    0x080001c0   0x080001c0   0x00000024   Code   RO            4    .text               startup_stm32f429xx.o
    0x080001e4   0x080001e4   0x00000062   Code   RO         4644    .text               mc_w.l(uldiv.o)
    0x08000246   0x08000246   0x00000040   Code   RO         4648    .text               mc_w.l(memmovea.o)
    0x08000286   0x08000286   0x00000024   Code   RO         4650    .text               mc_w.l(memseta.o)
    0x080002aa   0x080002aa   0x00000018   Code   RO         4652    .text               mc_w.l(strncpy.o)
    0x080002c2   0x080002c2   0x0000001a   Code   RO         4654    .text               mc_w.l(memcmp.o)
    0x080002dc   0x080002dc   0x00000012   Code   RO         4656    .text               mc_w.l(strcpy.o)
    0x080002ee   0x080002ee   0x0000001e   Code   RO         4658    .text               mc_w.l(strncmp.o)
    0x0800030c   0x0800030c   0x00000038   Code   RO         4925    .text               mc_w.l(__0sscanf.o)
    0x08000344   0x08000344   0x0000014c   Code   RO         4927    .text               mc_w.l(_scanf_int.o)
    0x08000490   0x08000490   0x000000e0   Code   RO         4929    .text               mc_w.l(_scanf_str.o)
    0x08000570   0x08000570   0x0000014e   Code   RO         4931    .text               mf_w.l(dadd.o)
    0x080006be   0x080006be   0x000000e4   Code   RO         4933    .text               mf_w.l(dmul.o)
    0x080007a2   0x080007a2   0x0000001a   Code   RO         4937    .text               mf_w.l(dfltui.o)
    0x080007bc   0x080007bc   0x00000032   Code   RO         4939    .text               mf_w.l(dfixui.o)
    0x080007ee   0x080007ee   0x00000026   Code   RO         4941    .text               mf_w.l(f2d.o)
    0x08000814   0x08000814   0x00000030   Code   RO         4943    .text               mf_w.l(cdcmple.o)
    0x08000844   0x08000844   0x00000030   Code   RO         4945    .text               mf_w.l(cdrcmple.o)
    0x08000874   0x08000874   0x0000002c   Code   RO         4978    .text               mc_w.l(uidiv.o)
    0x080008a0   0x080008a0   0x0000001e   Code   RO         4980    .text               mc_w.l(llshl.o)
    0x080008be   0x080008be   0x00000020   Code   RO         4982    .text               mc_w.l(llushr.o)
    0x080008de   0x080008de   0x00000024   Code   RO         4984    .text               mc_w.l(llsshr.o)
    0x08000902   0x08000902   0x0000001c   Code   RO         4993    .text               mc_w.l(_chval.o)
    0x0800091e   0x0800091e   0x00000002   PAD
    0x08000920   0x08000920   0x00000028   Code   RO         4995    .text               mc_w.l(scanf_char.o)
    0x08000948   0x08000948   0x00000040   Code   RO         4997    .text               mc_w.l(_sgetc.o)
    0x08000988   0x08000988   0x00000000   Code   RO         4999    .text               mc_w.l(iusefp.o)
    0x08000988   0x08000988   0x000000ba   Code   RO         5000    .text               mf_w.l(depilogue.o)
    0x08000a42   0x08000a42   0x000000de   Code   RO         5002    .text               mf_w.l(ddiv.o)
    0x08000b20   0x08000b20   0x00000030   Code   RO         5004    .text               mf_w.l(dfixul.o)
    0x08000b50   0x08000b50   0x00000004   Code   RO         5006    .text               mf_w.l(fpstat.o)
    0x08000b54   0x08000b54   0x00000024   Code   RO         5008    .text               mc_w.l(init.o)
    0x08000b78   0x08000b78   0x0000000a   Code   RO         5010    .text               mc_w.l(isspace_c.o)
    0x08000b82   0x08000b82   0x00000002   PAD
    0x08000b84   0x08000b84   0x0000032c   Code   RO         5012    .text               mc_w.l(_scanf.o)
    0x08000eb0   0x08000eb0   0x00000028   Code   RO         5014    .text               mc_w.l(ctype_c.o)
    0x08000ed8   0x08000ed8   0x00000056   Code   RO         5025    .text               mc_w.l(__dczerorl2.o)
    0x08000f2e   0x08000f2e   0x0000006e   Code   RO         1619    i.ADC_DMAConvCplt   stm32f4xx_hal_adc.o
    0x08000f9c   0x08000f9c   0x00000016   Code   RO         1620    i.ADC_DMAError      stm32f4xx_hal_adc.o
    0x08000fb2   0x08000fb2   0x0000000a   Code   RO         1621    i.ADC_DMAHalfConvCplt  stm32f4xx_hal_adc.o
    0x08000fbc   0x08000fbc   0x00000128   Code   RO         1622    i.ADC_Init          stm32f4xx_hal_adc.o
    0x080010e4   0x080010e4   0x000000c0   Code   RO         1024    i.AudioInOutInit    audio_in_out.o
    0x080011a4   0x080011a4   0x00000058   Code   RO         1025    i.AudioInPop        audio_in_out.o
    0x080011fc   0x080011fc   0x0000001c   Code   RO         1026    i.AudioOutPush      audio_in_out.o
    0x08001218   0x08001218   0x0000000e   Code   RO         1096    i.AudioSamleFromADC  g711.o
    0x08001226   0x08001226   0x00000002   PAD
    0x08001228   0x08001228   0x000000a8   Code   RO         1097    i.AudioSamleToDAC   g711.o
    0x080012d0   0x080012d0   0x0000003c   Code   RO          259    i.BitRingInit       hdlc_rx_low_level.o
    0x0800130c   0x0800130c   0x000000e4   Code   RO          260    i.BitRingProcessBit  hdlc_rx_low_level.o
    0x080013f0   0x080013f0   0x00000002   Code   RO         1450    i.BusFault_Handler  stm32f4xx_it.o
    0x080013f2   0x080013f2   0x0000004c   Code   RO          453    i.Crc16             crc-16_ccitt.o
    0x0800143e   0x0800143e   0x00000002   PAD
    0x08001440   0x08001440   0x0000000c   Code   RO         1451    i.DMA1_Stream5_IRQHandler  stm32f4xx_it.o
    0x0800144c   0x0800144c   0x0000000c   Code   RO         1452    i.DMA2_Stream0_IRQHandler  stm32f4xx_it.o
    0x08001458   0x08001458   0x0000000c   Code   RO         1453    i.DMA2_Stream4_IRQHandler  stm32f4xx_it.o
    0x08001464   0x08001464   0x00000028   Code   RO         2405    i.DMA_CalcBaseAndBitshift  stm32f4xx_hal_dma.o
    0x0800148c   0x0800148c   0x00000054   Code   RO         2406    i.DMA_CheckFifoParam  stm32f4xx_hal_dma.o
    0x080014e0   0x080014e0   0x00000028   Code   RO         2407    i.DMA_SetConfig     stm32f4xx_hal_dma.o
    0x08001508   0x08001508   0x0000000e   Code   RO           13    i.DV_port_input_Init  st-bus_sai_in_out.o
    0x08001516   0x08001516   0x00000002   Code   RO         1454    i.DebugMon_Handler  stm32f4xx_it.o
    0x08001518   0x08001518   0x00000002   Code   RO         1294    i.Error_Handler     main.o
    0x0800151a   0x0800151a   0x00000002   PAD
    0x0800151c   0x0800151c   0x000000e4   Code   RO         1183    i.Filter0           potentiometer.o
    0x08001600   0x08001600   0x000000e4   Code   RO         1184    i.Filter1           potentiometer.o
    0x080016e4   0x080016e4   0x000000e4   Code   RO         1185    i.Filter2           potentiometer.o
    0x080017c8   0x080017c8   0x000000e4   Code   RO         1186    i.Filter3           potentiometer.o
    0x080018ac   0x080018ac   0x00000164   Code   RO         1624    i.HAL_ADC_ConfigChannel  stm32f4xx_hal_adc.o
    0x08001a10   0x08001a10   0x000000c8   Code   RO         1187    i.HAL_ADC_ConvCallback  potentiometer.o
    0x08001ad8   0x08001ad8   0x00000006   Code   RO         1188    i.HAL_ADC_ConvCpltCallback  potentiometer.o
    0x08001ade   0x08001ade   0x00000006   Code   RO         1189    i.HAL_ADC_ConvHalfCpltCallback  potentiometer.o
    0x08001ae4   0x08001ae4   0x00000002   Code   RO         1628    i.HAL_ADC_ErrorCallback  stm32f4xx_hal_adc.o
    0x08001ae6   0x08001ae6   0x00000054   Code   RO         1633    i.HAL_ADC_Init      stm32f4xx_hal_adc.o
    0x08001b3a   0x08001b3a   0x00000002   PAD
    0x08001b3c   0x08001b3c   0x00000098   Code   RO         1545    i.HAL_ADC_MspInit   stm32f4xx_hal_msp.o
    0x08001bd4   0x08001bd4   0x00000130   Code   RO         1640    i.HAL_ADC_Start_DMA  stm32f4xx_hal_adc.o
    0x08001d04   0x08001d04   0x000001a0   Code   RO         2413    i.HAL_DMA_IRQHandler  stm32f4xx_hal_dma.o
    0x08001ea4   0x08001ea4   0x000000d4   Code   RO         2414    i.HAL_DMA_Init      stm32f4xx_hal_dma.o
    0x08001f78   0x08001f78   0x0000006e   Code   RO         2418    i.HAL_DMA_Start_IT  stm32f4xx_hal_dma.o
    0x08001fe6   0x08001fe6   0x00000002   PAD
    0x08001fe8   0x08001fe8   0x00000024   Code   RO         2845    i.HAL_Delay         stm32f4xx_hal.o
    0x0800200c   0x0800200c   0x000001d4   Code   RO         2301    i.HAL_GPIO_Init     stm32f4xx_hal_gpio.o
    0x080021e0   0x080021e0   0x0000000a   Code   RO         2303    i.HAL_GPIO_ReadPin  stm32f4xx_hal_gpio.o
    0x080021ea   0x080021ea   0x0000000e   Code   RO         2304    i.HAL_GPIO_TogglePin  stm32f4xx_hal_gpio.o
    0x080021f8   0x080021f8   0x0000000a   Code   RO         2305    i.HAL_GPIO_WritePin  stm32f4xx_hal_gpio.o
    0x08002202   0x08002202   0x00000002   PAD
    0x08002204   0x08002204   0x0000000c   Code   RO         2853    i.HAL_GetTick       stm32f4xx_hal.o
    0x08002210   0x08002210   0x00000042   Code   RO         3797    i.HAL_I2CEx_ConfigAnalogFilter  stm32f4xx_hal_i2c_ex.o
    0x08002252   0x08002252   0x0000003e   Code   RO         3798    i.HAL_I2CEx_ConfigDigitalFilter  stm32f4xx_hal_i2c_ex.o
    0x08002290   0x08002290   0x00000188   Code   RO         3381    i.HAL_I2C_Init      stm32f4xx_hal_i2c.o
    0x08002418   0x08002418   0x000001f8   Code   RO         3399    i.HAL_I2C_Mem_Read  stm32f4xx_hal_i2c.o
    0x08002610   0x08002610   0x00000130   Code   RO         3402    i.HAL_I2C_Mem_Write  stm32f4xx_hal_i2c.o
    0x08002740   0x08002740   0x00000068   Code   RO         1547    i.HAL_I2C_MspInit   stm32f4xx_hal_msp.o
    0x080027a8   0x080027a8   0x000001f4   Code   RO         4006    i.HAL_I2SEx_FullDuplex_IRQHandler  stm32f4xx_hal_i2s_ex.o
    0x0800299c   0x0800299c   0x000001a0   Code   RO         4008    i.HAL_I2SEx_TransmitReceive_DMA  stm32f4xx_hal_i2s_ex.o
    0x08002b3c   0x08002b3c   0x00000024   Code   RO         1027    i.HAL_I2SEx_TxRxCpltAltCallback  audio_in_out.o
    0x08002b60   0x08002b60   0x00000002   Code   RO         4010    i.HAL_I2SEx_TxRxCpltCallback  stm32f4xx_hal_i2s_ex.o
    0x08002b62   0x08002b62   0x00000002   PAD
    0x08002b64   0x08002b64   0x00000094   Code   RO         1028    i.HAL_I2SEx_TxRxHalfCpltCallback  audio_in_out.o
    0x08002bf8   0x08002bf8   0x0000001c   Code   RO         1029    i.HAL_I2S_ErrorCallback  audio_in_out.o
    0x08002c14   0x08002c14   0x00000174   Code   RO         3835    i.HAL_I2S_Init      stm32f4xx_hal_i2s.o
    0x08002d88   0x08002d88   0x00000168   Code   RO         1549    i.HAL_I2S_MspInit   stm32f4xx_hal_msp.o
    0x08002ef0   0x08002ef0   0x00000002   Code   RO         3841    i.HAL_I2S_RxCpltCallback  stm32f4xx_hal_i2s.o
    0x08002ef2   0x08002ef2   0x00000002   Code   RO         3846    i.HAL_I2S_TxCpltCallback  stm32f4xx_hal_i2s.o
    0x08002ef4   0x08002ef4   0x00000010   Code   RO         2859    i.HAL_IncTick       stm32f4xx_hal.o
    0x08002f04   0x08002f04   0x00000034   Code   RO         2860    i.HAL_Init          stm32f4xx_hal.o
    0x08002f38   0x08002f38   0x00000040   Code   RO         2861    i.HAL_InitTick      stm32f4xx_hal.o
    0x08002f78   0x08002f78   0x00000030   Code   RO         1550    i.HAL_MspInit       stm32f4xx_hal_msp.o
    0x08002fa8   0x08002fa8   0x00000022   Code   RO         2707    i.HAL_NVIC_DisableIRQ  stm32f4xx_hal_cortex.o
    0x08002fca   0x08002fca   0x0000001a   Code   RO         2708    i.HAL_NVIC_EnableIRQ  stm32f4xx_hal_cortex.o
    0x08002fe4   0x08002fe4   0x00000040   Code   RO         2714    i.HAL_NVIC_SetPriority  stm32f4xx_hal_cortex.o
    0x08003024   0x08003024   0x00000024   Code   RO         2715    i.HAL_NVIC_SetPriorityGrouping  stm32f4xx_hal_cortex.o
    0x08003048   0x08003048   0x00000070   Code   RO         2637    i.HAL_PWREx_EnableOverDrive  stm32f4xx_hal_pwr_ex.o
    0x080030b8   0x080030b8   0x0000005c   Code   RO         2001    i.HAL_RCCEx_GetPeriphCLKFreq  stm32f4xx_hal_rcc_ex.o
    0x08003114   0x08003114   0x00000254   Code   RO         2002    i.HAL_RCCEx_PeriphCLKConfig  stm32f4xx_hal_rcc_ex.o
    0x08003368   0x08003368   0x00000134   Code   RO         1895    i.HAL_RCC_ClockConfig  stm32f4xx_hal_rcc.o
    0x0800349c   0x0800349c   0x00000020   Code   RO         1902    i.HAL_RCC_GetPCLK1Freq  stm32f4xx_hal_rcc.o
    0x080034bc   0x080034bc   0x00000060   Code   RO         1904    i.HAL_RCC_GetSysClockFreq  stm32f4xx_hal_rcc.o
    0x0800351c   0x0800351c   0x0000035c   Code   RO         1907    i.HAL_RCC_OscConfig  stm32f4xx_hal_rcc.o
    0x08003878   0x08003878   0x00000034   Code   RO           14    i.HAL_SAI_ErrorCallback  st-bus_sai_in_out.o
    0x080038ac   0x080038ac   0x00000006   Code   RO         4100    i.HAL_SAI_GetError  stm32f4xx_hal_sai.o
    0x080038b2   0x080038b2   0x00000002   PAD
    0x080038b4   0x080038b4   0x00000164   Code   RO         4103    i.HAL_SAI_Init      stm32f4xx_hal_sai.o
    0x08003a18   0x08003a18   0x00000120   Code   RO         1552    i.HAL_SAI_MspInit   stm32f4xx_hal_msp.o
    0x08003b38   0x08003b38   0x000000ac   Code   RO         4108    i.HAL_SAI_Receive_DMA  stm32f4xx_hal_sai.o
    0x08003be4   0x08003be4   0x0000014c   Code   RO           15    i.HAL_SAI_RxCpltCallback  st-bus_sai_in_out.o
    0x08003d30   0x08003d30   0x00000002   Code   RO           16    i.HAL_SAI_RxHalfCpltCallback  st-bus_sai_in_out.o
    0x08003d32   0x08003d32   0x00000002   PAD
    0x08003d34   0x08003d34   0x000000ac   Code   RO         4113    i.HAL_SAI_Transmit_DMA  stm32f4xx_hal_sai.o
    0x08003de0   0x08003de0   0x00000002   Code   RO           17    i.HAL_SAI_TxCpltCallback  st-bus_sai_in_out.o
    0x08003de2   0x08003de2   0x00000002   Code   RO           18    i.HAL_SAI_TxHalfCpltCallback  st-bus_sai_in_out.o
    0x08003de4   0x08003de4   0x00000028   Code   RO         2719    i.HAL_SYSTICK_Config  stm32f4xx_hal_cortex.o
    0x08003e0c   0x08003e0c   0x00000018   Code   RO          345    i.HDLC_ProcessTx    hdlc_tx.o
    0x08003e24   0x08003e24   0x0000002c   Code   RO         1455    i.HardFault_Handler  stm32f4xx_it.o
    0x08003e50   0x08003e50   0x0000003c   Code   RO          403    i.HdlcBitStreamGetBit  hdlc_tx_low_level.o
    0x08003e8c   0x08003e8c   0x00000044   Code   RO          474    i.HexToChar         dbg_uart.o
    0x08003ed0   0x08003ed0   0x0000002e   Code   RO         3423    i.I2C_IsAcknowledgeFailed  stm32f4xx_hal_i2c.o
    0x08003efe   0x08003efe   0x00000002   PAD
    0x08003f00   0x08003f00   0x000000fc   Code   RO         3433    i.I2C_RequestMemoryRead  stm32f4xx_hal_i2c.o
    0x08003ffc   0x08003ffc   0x000000a8   Code   RO         3434    i.I2C_RequestMemoryWrite  stm32f4xx_hal_i2c.o
    0x080040a4   0x080040a4   0x0000004c   Code   RO         3437    i.I2C_WaitOnBTFFlagUntilTimeout  stm32f4xx_hal_i2c.o
    0x080040f0   0x080040f0   0x00000068   Code   RO         3438    i.I2C_WaitOnFlagUntilTimeout  stm32f4xx_hal_i2c.o
    0x08004158   0x08004158   0x00000096   Code   RO         3439    i.I2C_WaitOnMasterAddressFlagUntilTimeout  stm32f4xx_hal_i2c.o
    0x080041ee   0x080041ee   0x00000066   Code   RO         3440    i.I2C_WaitOnRXNEFlagUntilTimeout  stm32f4xx_hal_i2c.o
    0x08004254   0x08004254   0x0000004c   Code   RO         3441    i.I2C_WaitOnTXEFlagUntilTimeout  stm32f4xx_hal_i2c.o
    0x080042a0   0x080042a0   0x00000060   Code   RO         4013    i.I2SEx_RxISR_I2SExt  stm32f4xx_hal_i2s_ex.o
    0x08004300   0x08004300   0x00000060   Code   RO         4014    i.I2SEx_TxISR_I2SExt  stm32f4xx_hal_i2s_ex.o
    0x08004360   0x08004360   0x000000c8   Code   RO         4015    i.I2SEx_TxRxDMACplt  stm32f4xx_hal_i2s_ex.o
    0x08004428   0x08004428   0x0000000c   Code   RO         1030    i.I2SEx_TxRxDMACpltAlt  audio_in_out.o
    0x08004434   0x08004434   0x00000054   Code   RO         4016    i.I2SEx_TxRxDMAError  stm32f4xx_hal_i2s_ex.o
    0x08004488   0x08004488   0x0000000a   Code   RO         4017    i.I2SEx_TxRxDMAHalfCplt  stm32f4xx_hal_i2s_ex.o
    0x08004492   0x08004492   0x000000f2   Code   RO         3853    i.I2S_IRQHandler    stm32f4xx_hal_i2s.o
    0x08004584   0x08004584   0x0000000c   Code   RO          262    i.Inc               hdlc_rx_low_level.o
    0x08004590   0x08004590   0x00000018   Code   RO         1295    i.LL_AHB1_GRP1_EnableClock  main.o
    0x080045a8   0x080045a8   0x00000136   Code   RO         4493    i.LL_GPIO_Init      stm32f4xx_ll_gpio.o
    0x080046de   0x080046de   0x00000020   Code   RO         3114    i.LL_RCC_GetSystemClocksFreq  stm32f4xx_ll_rcc.o
    0x080046fe   0x080046fe   0x00000002   PAD
    0x08004700   0x08004700   0x00000010   Code   RO         3116    i.LL_RCC_PLL_GetMainSource  stm32f4xx_ll_rcc.o
    0x08004710   0x08004710   0x000000b8   Code   RO         4426    i.LL_USART_Init     stm32f4xx_ll_usart.o
    0x080047c8   0x080047c8   0x000000b0   Code   RO         4427    i.LL_USART_SetBaudRate  stm32f4xx_ll_usart.o
    0x08004878   0x08004878   0x00000088   Code   RO         1296    i.MX_ADC1_Init      main.o
    0x08004900   0x08004900   0x0000005c   Code   RO         1297    i.MX_DMA_Init       main.o
    0x0800495c   0x0800495c   0x0000018c   Code   RO         1298    i.MX_GPIO_Init      main.o
    0x08004ae8   0x08004ae8   0x00000044   Code   RO         1299    i.MX_I2C1_Init      main.o
    0x08004b2c   0x08004b2c   0x00000084   Code   RO         1300    i.MX_SAI1_Init      main.o
    0x08004bb0   0x08004bb0   0x000000b4   Code   RO         1301    i.MX_USART1_UART_Init  main.o
    0x08004c64   0x08004c64   0x000000b4   Code   RO         1302    i.MX_USART3_UART_Init  main.o
    0x08004d18   0x08004d18   0x00000002   Code   RO         1456    i.MemManage_Handler  stm32f4xx_it.o
    0x08004d1a   0x08004d1a   0x00000002   Code   RO         1457    i.NMI_Handler       stm32f4xx_it.o
    0x08004d1c   0x08004d1c   0x00000032   Code   RO         1303    i.NVIC_EncodePriority  main.o
    0x08004d4e   0x08004d4e   0x00000002   Code   RO         1458    i.PendSV_Handler    stm32f4xx_it.o
    0x08004d50   0x08004d50   0x0000001c   Code   RO         3118    i.RCC_GetHCLKClockFreq  stm32f4xx_ll_rcc.o
    0x08004d6c   0x08004d6c   0x0000001c   Code   RO         3119    i.RCC_GetPCLK1ClockFreq  stm32f4xx_ll_rcc.o
    0x08004d88   0x08004d88   0x0000001c   Code   RO         3120    i.RCC_GetPCLK2ClockFreq  stm32f4xx_ll_rcc.o
    0x08004da4   0x08004da4   0x0000002c   Code   RO         3121    i.RCC_GetSystemClockFreq  stm32f4xx_ll_rcc.o
    0x08004dd0   0x08004dd0   0x0000004c   Code   RO         3127    i.RCC_PLL_GetFreqDomain_SYS  stm32f4xx_ll_rcc.o
    0x08004e1c   0x08004e1c   0x00000020   Code   RO         4355    i.SAI_BlockSynchroConfig  stm32f4xx_hal_sai_ex.o
    0x08004e3c   0x08004e3c   0x00000044   Code   RO         4118    i.SAI_DMAError      stm32f4xx_hal_sai.o
    0x08004e80   0x08004e80   0x0000003c   Code   RO         4119    i.SAI_DMARxCplt     stm32f4xx_hal_sai.o
    0x08004ebc   0x08004ebc   0x0000000a   Code   RO         4120    i.SAI_DMARxHalfCplt  stm32f4xx_hal_sai.o
    0x08004ec6   0x08004ec6   0x0000003c   Code   RO         4121    i.SAI_DMATxCplt     stm32f4xx_hal_sai.o
    0x08004f02   0x08004f02   0x0000000a   Code   RO         4122    i.SAI_DMATxHalfCplt  stm32f4xx_hal_sai.o
    0x08004f0c   0x08004f0c   0x0000003c   Code   RO           19    i.SAI_DMA_Init      st-bus_sai_in_out.o
    0x08004f48   0x08004f48   0x00000040   Code   RO         4123    i.SAI_Disable       stm32f4xx_hal_sai.o
    0x08004f88   0x08004f88   0x000000ac   Code   RO         4356    i.SAI_GetInputClock  stm32f4xx_hal_sai_ex.o
    0x08005034   0x08005034   0x00000030   Code   RO         4127    i.SAI_InterruptFlag  stm32f4xx_hal_sai.o
    0x08005064   0x08005064   0x00000002   Code   RO         1459    i.SVC_Handler       stm32f4xx_it.o
    0x08005066   0x08005066   0x00000012   Code   RO         1460    i.SysTick_Handler   stm32f4xx_it.o
    0x08005078   0x08005078   0x000000b8   Code   RO         1305    i.SystemClock_Config  main.o
    0x08005130   0x08005130   0x0000001c   Code   RO         4589    i.SystemInit        system_stm32f4xx.o
    0x0800514c   0x0800514c   0x00000064   Code   RO          475    i.USART1_IRQHandler  dbg_uart.o
    0x080051b0   0x080051b0   0x000000c0   Code   RO          735    i.USART3_IRQHandler  uart.o
    0x08005270   0x08005270   0x00000002   Code   RO         1461    i.UsageFault_Handler  stm32f4xx_it.o
    0x08005272   0x08005272   0x00000002   PAD
    0x08005274   0x08005274   0x00000020   Code   RO         4897    i.__0printf         mc_w.l(printfa.o)
    0x08005294   0x08005294   0x00000028   Code   RO         4899    i.__0sprintf        mc_w.l(printfa.o)
    0x080052bc   0x080052bc   0x00000026   Code   RO         4947    i.__ARM_fpclassifyf  m_wm.l(fpclassifyf.o)
    0x080052e2   0x080052e2   0x0000001a   Code   RO         1306    i.__NVIC_EnableIRQ  main.o
    0x080052fc   0x080052fc   0x00000020   Code   RO         1307    i.__NVIC_SetPriority  main.o
    0x0800531c   0x0800531c   0x00000020   Code   RO         2721    i.__NVIC_SetPriority  stm32f4xx_hal_cortex.o
    0x0800533c   0x0800533c   0x00000664   Code   RO         4623    i.__hardfp_powf     m_wm.l(powf.o)
    0x080059a0   0x080059a0   0x00000014   Code   RO         4949    i.__mathlib_flt_divzero  m_wm.l(funder.o)
    0x080059b4   0x080059b4   0x00000006   Code   RO         4951    i.__mathlib_flt_infnan2  m_wm.l(funder.o)
    0x080059ba   0x080059ba   0x00000002   PAD
    0x080059bc   0x080059bc   0x00000010   Code   RO         4952    i.__mathlib_flt_invalid  m_wm.l(funder.o)
    0x080059cc   0x080059cc   0x00000010   Code   RO         4953    i.__mathlib_flt_overflow  m_wm.l(funder.o)
    0x080059dc   0x080059dc   0x00000010   Code   RO         4955    i.__mathlib_flt_underflow  m_wm.l(funder.o)
    0x080059ec   0x080059ec   0x0000000e   Code   RO         5019    i.__scatterload_copy  mc_w.l(handlers.o)
    0x080059fa   0x080059fa   0x00000002   Code   RO         5020    i.__scatterload_null  mc_w.l(handlers.o)
    0x080059fc   0x080059fc   0x0000000e   Code   RO         5021    i.__scatterload_zeroinit  mc_w.l(handlers.o)
    0x08005a0a   0x08005a0a   0x00000002   PAD
    0x08005a0c   0x08005a0c   0x0000000c   Code   RO         4988    i.__set_errno       mc_w.l(errno.o)
    0x08005a18   0x08005a18   0x00000184   Code   RO         4904    i._fp_digits        mc_w.l(printfa.o)
    0x08005b9c   0x08005b9c   0x000006dc   Code   RO         4905    i._printf_core      mc_w.l(printfa.o)
    0x08006278   0x08006278   0x00000024   Code   RO         4906    i._printf_post_padding  mc_w.l(printfa.o)
    0x0800629c   0x0800629c   0x0000002e   Code   RO         4907    i._printf_pre_padding  mc_w.l(printfa.o)
    0x080062ca   0x080062ca   0x0000000a   Code   RO         4909    i._sputc            mc_w.l(printfa.o)
    0x080062d4   0x080062d4   0x00000054   Code   RO          404    i.addByteToBitStream  hdlc_tx_low_level.o
    0x08006328   0x08006328   0x00000030   Code   RO          405    i.addFlagToBitStream  hdlc_tx_low_level.o
    0x08006358   0x08006358   0x00000026   Code   RO         1098    i.alaw2linear       g711.o
    0x0800637e   0x0800637e   0x00000002   PAD
    0x08006380   0x08006380   0x0000001c   Code   RO          594    i.checkDelay        main_logic.o
    0x0800639c   0x0800639c   0x0000001c   Code   RO          595    i.checkTimeout      main_logic.o
    0x080063b8   0x080063b8   0x00000258   Code   RO          931    i.codecInit         codec_tlv320aic3100.o
    0x08006610   0x08006610   0x00000060   Code   RO          406    i.createHdlcBitStream  hdlc_tx_low_level.o
    0x08006670   0x08006670   0x00000034   Code   RO          479    i.dbgUartPutchar    dbg_uart.o
    0x080066a4   0x080066a4   0x00000018   Code   RO          481    i.dbgUartPutsArray  dbg_uart.o
    0x080066bc   0x080066bc   0x0000001e   Code   RO          596    i.doMainLogic       main_logic.o
    0x080066da   0x080066da   0x00000002   PAD
    0x080066dc   0x080066dc   0x00000624   Code   RO          597    i.doRegistration    main_logic.o
    0x08006d00   0x08006d00   0x00000270   Code   RO          846    i.doTastature       tastature.o
    0x08006f70   0x08006f70   0x0000005c   Code   RO         1263    i.doVolumeControl   volume_control.o
    0x08006fcc   0x08006fcc   0x0000000e   Code   RO          487    i.fputc             dbg_uart.o
    0x08006fda   0x08006fda   0x00000002   PAD
    0x08006fdc   0x08006fdc   0x0000000c   Code   RO         1190    i.getPotValue       potentiometer.o
    0x08006fe8   0x08006fe8   0x000000c8   Code   RO          847    i.handsetButtonsService  tastature.o
    0x080070b0   0x080070b0   0x0000001c   Code   RO          848    i.haveWorkingKeypad  tastature.o
    0x080070cc   0x080070cc   0x00000014   Code   RO          598    i.initMainLogic     main_logic.o
    0x080070e0   0x080070e0   0x00000094   Code   RO          849    i.initTastature     tastature.o
    0x08007174   0x08007174   0x00000018   Code   RO          346    i.isHdlcFifoEmpty   hdlc_tx.o
    0x0800718c   0x0800718c   0x0000004c   Code   RO         1100    i.linear2alaw       g711.o
    0x080071d8   0x080071d8   0x000000c4   Code   RO         1308    i.main              main.o
    0x0800729c   0x0800729c   0x00000038   Code   RO          932    i.muteHlt           codec_tlv320aic3100.o
    0x080072d4   0x080072d4   0x00000038   Code   RO          933    i.muteLoudspeaker   codec_tlv320aic3100.o
    0x0800730c   0x0800730c   0x00000014   Code   RO         1191    i.potInit           potentiometer.o
    0x08007320   0x08007320   0x00000190   Code   RO          264    i.processHdlcFrame  hdlc_rx_low_level.o
    0x080074b0   0x080074b0   0x000000e0   Code   RO          599    i.processKeys       main_logic.o
    0x08007590   0x08007590   0x00000650   Code   RO          600    i.processNonRegistrativeTelegrams  main_logic.o
    0x08007be0   0x08007be0   0x00000024   Code   RO         4640    i.puts              mc_w.l(puts.o)
    0x08007c04   0x08007c04   0x00000034   Code   RO          265    i.readFromPosition  hdlc_rx_low_level.o
    0x08007c38   0x08007c38   0x0000005c   Code   RO          934    i.readReg           codec_tlv320aic3100.o
    0x08007c94   0x08007c94   0x00000020   Code   RO          454    i.reflect           crc-16_ccitt.o
    0x08007cb4   0x08007cb4   0x00000028   Code   RO          601    i.regReset          main_logic.o
    0x08007cdc   0x08007cdc   0x0000001a   Code   RO         1102    i.search            g711.o
    0x08007cf6   0x08007cf6   0x00000002   PAD
    0x08007cf8   0x08007cf8   0x00000020   Code   RO          935    i.selectHandsetMic  codec_tlv320aic3100.o
    0x08007d18   0x08007d18   0x00000020   Code   RO          936    i.selectLoudspeakMic  codec_tlv320aic3100.o
    0x08007d38   0x08007d38   0x000000a0   Code   RO          602    i.sendTelegram      main_logic.o
    0x08007dd8   0x08007dd8   0x00000028   Code   RO          603    i.sendTelegramKeepAlive  main_logic.o
    0x08007e00   0x08007e00   0x00000014   Code   RO          605    i.setDelay          main_logic.o
    0x08007e14   0x08007e14   0x00000078   Code   RO          937    i.setHltVol         codec_tlv320aic3100.o
    0x08007e8c   0x08007e8c   0x0000008c   Code   RO          938    i.setMicVol         codec_tlv320aic3100.o
    0x08007f18   0x08007f18   0x00000078   Code   RO          939    i.setSpeakerVol     codec_tlv320aic3100.o
    0x08007f90   0x08007f90   0x00000014   Code   RO          606    i.setTimeout        main_logic.o
    0x08007fa4   0x08007fa4   0x00000080   Code   RO          607    i.signalGeneration  main_logic.o
    0x08008024   0x08008024   0x00000084   Code   RO          348    i.startHdlcTransmition  hdlc_tx.o
    0x080080a8   0x080080a8   0x000000c4   Code   RO          850    i.tastCheckPresence  tastature.o
    0x0800816c   0x0800816c   0x00000034   Code   RO          851    i.tastCmdLeds       tastature.o
    0x080081a0   0x080081a0   0x00000040   Code   RO          852    i.tastCmdReadKeys   tastature.o
    0x080081e0   0x080081e0   0x0000003c   Code   RO          853    i.tastLedTestOff    tastature.o
    0x0800821c   0x0800821c   0x0000003c   Code   RO          854    i.tastLedTestOn     tastature.o
    0x08008258   0x08008258   0x0000005c   Code   RO          855    i.tastSetIndication  tastature.o
    0x080082b4   0x080082b4   0x00000014   Code   RO          738    i.uartBytesReceived  uart.o
    0x080082c8   0x080082c8   0x00000018   Code   RO          739    i.uartGetchar       uart.o
    0x080082e0   0x080082e0   0x00000028   Code   RO          740    i.uartInit          uart.o
    0x08008308   0x08008308   0x00000038   Code   RO          741    i.uartPutchar       uart.o
    0x08008340   0x08008340   0x00000016   Code   RO          742    i.uartPuts          uart.o
    0x08008356   0x08008356   0x00000002   PAD
    0x08008358   0x08008358   0x0000000c   Code   RO          744    i.uartRS485TxBusy   uart.o
    0x08008364   0x08008364   0x00000028   Code   RO          745    i.uartReceiveStart  uart.o
    0x0800838c   0x0800838c   0x00000010   Code   RO          747    i.uartRxFifoFlush   uart.o
    0x0800839c   0x0800839c   0x00000040   Code   RO          940    i.unmuteHlt         codec_tlv320aic3100.o
    0x080083dc   0x080083dc   0x00000040   Code   RO          941    i.unmuteLoudspeaker  codec_tlv320aic3100.o
    0x0800841c   0x0800841c   0x00000004   Code   RO         1264    i.volumeControlInit  volume_control.o
    0x08008420   0x08008420   0x00000018   Code   RO          349    i.writeHdlcTxFifo   hdlc_tx.o
    0x08008438   0x08008438   0x0000005c   Code   RO          942    i.writeReg          codec_tlv320aic3100.o
    0x08008494   0x08008494   0x00000018   Data   RO          268    .constdata          hdlc_rx_low_level.o
    0x080084ac   0x080084ac   0x00000110   Data   RO         1106    .constdata          g711.o
    0x080085bc   0x080085bc   0x00000008   Data   RO         2420    .constdata          stm32f4xx_hal_dma.o
    0x080085c4   0x080085c4   0x00000010   Data   RO         4590    .constdata          system_stm32f4xx.o
    0x080085d4   0x080085d4   0x00000008   Data   RO         4591    .constdata          system_stm32f4xx.o
    0x080085dc   0x080085dc   0x00000140   Data   RO         4626    .constdata          m_wm.l(powf.o)
    0x0800871c   0x0800871c   0x00000040   Data   RO         5015    .constdata          mc_w.l(ctype_c.o)
    0x0800875c   0x0800875c   0x00000020   Data   RO         5017    Region$$Table       anon$$obj.o


    Execution Region RW_IRAM2 (Exec base: 0x10000000, Load base: 0x0800883c, Size: 0x00000000, Max: 0x00010000, ABSOLUTE)

    **** No section assigned to this execution region ****


    Execution Region RW_IRAM1 (Exec base: 0x20000000, Load base: 0x0800877c, Size: 0x00003410, Max: 0x00030000, ABSOLUTE, COMPRESSED[0x000000c0])

    Exec Addr    Load Addr    Size         Type   Attr      Idx    E Section Name        Object

    0x20000000   COMPRESSED   0x00000005   Data   RW           22    .data               st-bus_sai_in_out.o
    0x20000005   COMPRESSED   0x00000001   PAD
    0x20000006   COMPRESSED   0x00000014   Data   RW          269    .data               hdlc_rx_low_level.o
    0x2000001a   COMPRESSED   0x00000001   Data   RW          351    .data               hdlc_tx.o
    0x2000001b   COMPRESSED   0x00000001   PAD
    0x2000001c   COMPRESSED   0x00000008   Data   RW          408    .data               hdlc_tx_low_level.o
    0x20000024   COMPRESSED   0x00000001   Data   RW          490    .data               dbg_uart.o
    0x20000025   COMPRESSED   0x00000003   PAD
    0x20000028   COMPRESSED   0x00000040   Data   RW          611    .data               main_logic.o
    0x20000068   COMPRESSED   0x00000001   Data   RW          612    .data               main_logic.o
    0x20000069   COMPRESSED   0x00000001   Data   RW          613    .data               main_logic.o
    0x2000006a   COMPRESSED   0x00000002   Data   RW          750    .data               uart.o
    0x2000006c   COMPRESSED   0x00000014   Data   RW          857    .data               tastature.o
    0x20000080   COMPRESSED   0x00000010   Data   RW          943    .data               codec_tlv320aic3100.o
    0x20000090   COMPRESSED   0x000000ce   Data   RW         1032    .data               audio_in_out.o
    0x2000015e   COMPRESSED   0x00000002   PAD
    0x20000160   COMPRESSED   0x00000010   Data   RW         1107    .data               g711.o
    0x20000170   COMPRESSED   0x00000040   Data   RW         1194    .data               potentiometer.o
    0x200001b0   COMPRESSED   0x00000004   Data   RW         1265    .data               volume_control.o
    0x200001b4   COMPRESSED   0x00000004   Data   RW         1315    .data               main.o
    0x200001b8   COMPRESSED   0x00000004   Data   RW         1553    .data               stm32f4xx_hal_msp.o
    0x200001bc   COMPRESSED   0x0000000c   Data   RW         2867    .data               stm32f4xx_hal.o
    0x200001c8   COMPRESSED   0x00000004   Data   RW         4592    .data               system_stm32f4xx.o
    0x200001cc   COMPRESSED   0x00000004   Data   RW         4977    .data               mc_w.l(stdout.o)
    0x200001d0   COMPRESSED   0x00000004   Data   RW         4989    .data               mc_w.l(errno.o)
    0x200001d4        -       0x00000080   Zero   RW           21    .bss                st-bus_sai_in_out.o
    0x20000254        -       0x000008c0   Zero   RW          267    .bss                hdlc_rx_low_level.o
    0x20000b14        -       0x00000044   Zero   RW          350    .bss                hdlc_tx.o
    0x20000b58        -       0x00000200   Zero   RW          407    .bss                hdlc_tx_low_level.o
    0x20000d58        -       0x00001004   Zero   RW          488    .bss                dbg_uart.o
    0x20001d5c        -       0x00000020   Zero   RW          610    .bss                main_logic.o
    0x20001d7c        -       0x00000408   Zero   RW          749    .bss                uart.o
    0x20002184        -       0x00000272   Zero   RW          856    .bss                tastature.o
    0x200023f6        -       0x00000208   Zero   RW         1031    .bss                audio_in_out.o
    0x200025fe   COMPRESSED   0x00000002   PAD
    0x20002600        -       0x00000820   Zero   RW         1192    .bss                potentiometer.o
    0x20002e20        -       0x00000210   Zero   RW         1309    .bss                main.o
    0x20003030        -       0x00000060   Zero   RW         1310    .bss                main.o
    0x20003090        -       0x00000060   Zero   RW         1311    .bss                main.o
    0x200030f0        -       0x00000060   Zero   RW         1312    .bss                main.o
    0x20003150        -       0x00000060   Zero   RW         1313    .bss                main.o
    0x200031b0        -       0x00000060   Zero   RW         1314    .bss                main.o
    0x20003210        -       0x00000200   Zero   RW            1    STACK               startup_stm32f429xx.o


==============================================================================

Image component sizes


      Code (inc. data)   RO Data    RW Data    ZI Data      Debug   Object Name

       532        166          0        206        520      35546   audio_in_out.o
      1468        336          0         16          0       8409   codec_tlv320aic3100.o
       108          0          0          0          0       1874   crc-16_ccitt.o
       258         46          0          1       4100      17785   dbg_uart.o
       322         14        272         16          0       5155   g711.o
       752        124         24         20       2240       5014   hdlc_rx_low_level.o
       204         44          0          1         68       3054   hdlc_tx.o
       288         36          0          8        512       3696   hdlc_tx_low_level.o
      1698        172          0          4       1008      58683   main.o
      3926       1564          0         66         32      12609   main_logic.o
      1156        170          0         64       2080       6566   potentiometer.o
       464        102          0          5        128     802150   st-bus_sai_in_out.o
        36          8        428          0        512        860   startup_stm32f429xx.o
       180         28          0         12          0       9741   stm32f4xx_hal.o
      1184         70          0          0          0       6511   stm32f4xx_hal_adc.o
       232         14          0          0          0      34813   stm32f4xx_hal_cortex.o
       902         16          8          0          0       5971   stm32f4xx_hal_dma.o
       502         54          0          0          0       3812   stm32f4xx_hal_gpio.o
      2174         52          0          0          0      13230   stm32f4xx_hal_i2c.o
       128          0          0          0          0       1931   stm32f4xx_hal_i2c_ex.o
       618         18          0          0          0       3757   stm32f4xx_hal_i2s.o
      1404         62          0          0          0       7383   stm32f4xx_hal_i2s_ex.o
       952         98          0          4          0       4696   stm32f4xx_hal_msp.o
       112         14          0          0          0       1336   stm32f4xx_hal_pwr_ex.o
      1296         60          0          0          0       4753   stm32f4xx_hal_rcc.o
       688         50          0          0          0       2577   stm32f4xx_hal_rcc_ex.o
      1026         44          0          0          0       8487   stm32f4xx_hal_sai.o
       204         24          0          0          0       1957   stm32f4xx_hal_sai_ex.o
       112         28          0          0          0       6393   stm32f4xx_it.o
       310          0          0          0          0       7235   stm32f4xx_ll_gpio.o
       252         54          0          0          0      43411   stm32f4xx_ll_rcc.o
       360         32          0          0          0      16188   stm32f4xx_ll_usart.o
        28          6         24          4          0       1203   system_stm32f4xx.o
      1524        394          0         20        626       8475   tastature.o
       422         72          0          2       1032      19051   uart.o
        96         10          0          4          0       1082   volume_control.o

    ----------------------------------------------------------------------
     25952       3982        788        460      12860    1175394   Object Totals
         0          0         32          0          0          0   (incl. Generated)
        34          0          0          7          2          0   (incl. Padding)

    ----------------------------------------------------------------------

      Code (inc. data)   RO Data    RW Data    ZI Data      Debug   Library Member Name

        38          0          0          0          0        116   fpclassifyf.o
        74         24          0          0          0        580   funder.o
      1636        110        320          0          0        372   powf.o
        56          8          0          0          0         84   __0sscanf.o
        86          0          0          0          0          0   __dczerorl2.o
        28          0          0          0          0         68   _chval.o
       812          4          0          0          0        112   _scanf.o
       332          0          0          0          0         96   _scanf_int.o
       224          0          0          0          0         96   _scanf_str.o
        64          0          0          0          0         84   _sgetc.o
        40          6         64          0          0         68   ctype_c.o
         0          0          0          0          0          0   entry.o
         0          0          0          0          0          0   entry10a.o
         0          0          0          0          0          0   entry11a.o
         8          4          0          0          0          0   entry2.o
         4          0          0          0          0          0   entry5.o
         0          0          0          0          0          0   entry7b.o
         0          0          0          0          0          0   entry8b.o
         8          4          0          0          0          0   entry9a.o
        12          6          0          4          0         68   errno.o
        30          0          0          0          0          0   handlers.o
        36          8          0          0          0         68   init.o
        10          0          0          0          0         68   isspace_c.o
         0          0          0          0          0          0   iusefp.o
        30          0          0          0          0         68   llshl.o
        36          0          0          0          0         68   llsshr.o
        32          0          0          0          0         68   llushr.o
        26          0          0          0          0         80   memcmp.o
        64          0          0          0          0         76   memmovea.o
        36          0          0          0          0        108   memseta.o
      2308         96          0          0          0        604   printfa.o
        36          6          0          0          0         80   puts.o
        40          8          0          0          0         84   scanf_char.o
         0          0          0          4          0          0   stdout.o
        18          0          0          0          0         68   strcpy.o
        30          0          0          0          0         80   strncmp.o
        24          0          0          0          0         76   strncpy.o
        44          0          0          0          0         80   uidiv.o
        98          0          0          0          0         92   uldiv.o
        48          0          0          0          0         68   cdcmple.o
        48          0          0          0          0         68   cdrcmple.o
       334          0          0          0          0        148   dadd.o
       222          0          0          0          0        100   ddiv.o
       186          0          0          0          0        176   depilogue.o
        50          0          0          0          0         76   dfixui.o
        48          0          0          0          0         68   dfixul.o
        26          0          0          0          0         76   dfltui.o
       228          0          0          0          0         96   dmul.o
        38          0          0          0          0         68   f2d.o
         4          0          0          0          0         68   fpstat.o

    ----------------------------------------------------------------------
      7560        284        384          8          0       4524   Library Totals
         8          0          0          0          0          0   (incl. Padding)

    ----------------------------------------------------------------------

      Code (inc. data)   RO Data    RW Data    ZI Data      Debug   Library Name

      1748        134        320          0          0       1068   m_wm.l
      4572        150         64          8          0       2444   mc_w.l
      1232          0          0          0          0       1012   mf_w.l

    ----------------------------------------------------------------------
      7560        284        384          8          0       4524   Library Totals

    ----------------------------------------------------------------------

==============================================================================


      Code (inc. data)   RO Data    RW Data    ZI Data      Debug   

     33512       4266       1172        468      12860    1157578   Grand Totals
     33512       4266       1172        192      12860    1157578   ELF Image Totals (compressed)
     33512       4266       1172        192          0          0   ROM Totals

==============================================================================

    Total RO  Size (Code + RO Data)                34684 (  33.87kB)
    Total RW  Size (RW Data + ZI Data)             13328 (  13.02kB)
    Total ROM Size (Code + RO Data + RW Data)      34876 (  34.06kB)

==============================================================================

