Component: ARM Compiler 5.06 update 6 (build 750) Tool: armlink [4d35ed]

==============================================================================

Section Cross References

    startup_stm32f429xx.o(RESET) refers to startup_stm32f429xx.o(STACK) for __initial_sp
    startup_stm32f429xx.o(RESET) refers to startup_stm32f429xx.o(.text) for Reset_Handler
    startup_stm32f429xx.o(RESET) refers to stm32f4xx_it.o(i.NMI_Handler) for NMI_Handler
    startup_stm32f429xx.o(RESET) refers to stm32f4xx_it.o(i.HardFault_Handler) for HardFault_Handler
    startup_stm32f429xx.o(RESET) refers to stm32f4xx_it.o(i.MemManage_Handler) for MemManage_Handler
    startup_stm32f429xx.o(RESET) refers to stm32f4xx_it.o(i.BusFault_Handler) for BusFault_Handler
    startup_stm32f429xx.o(RESET) refers to stm32f4xx_it.o(i.UsageFault_Handler) for UsageFault_Handler
    startup_stm32f429xx.o(RESET) refers to stm32f4xx_it.o(i.SVC_Handler) for SVC_Handler
    startup_stm32f429xx.o(RESET) refers to stm32f4xx_it.o(i.DebugMon_Handler) for DebugMon_Handler
    startup_stm32f429xx.o(RESET) refers to stm32f4xx_it.o(i.PendSV_Handler) for PendSV_Handler
    startup_stm32f429xx.o(RESET) refers to stm32f4xx_it.o(i.SysTick_Handler) for SysTick_Handler
    startup_stm32f429xx.o(RESET) refers to stm32f4xx_it.o(i.DMA1_Stream5_IRQHandler) for DMA1_Stream5_IRQHandler
    startup_stm32f429xx.o(RESET) refers to stm32f4xx_it.o(i.SPI2_IRQHandler) for SPI2_IRQHandler
    startup_stm32f429xx.o(RESET) refers to stm32f4xx_it.o(i.USART1_IRQHandler) for USART1_IRQHandler
    startup_stm32f429xx.o(RESET) refers to stm32f4xx_it.o(i.EXTI15_10_IRQHandler) for EXTI15_10_IRQHandler
    startup_stm32f429xx.o(RESET) refers to stm32f4xx_it.o(i.DMA2_Stream4_IRQHandler) for DMA2_Stream4_IRQHandler
    startup_stm32f429xx.o(.text) refers to system_stm32f4xx.o(i.SystemInit) for SystemInit
    startup_stm32f429xx.o(.text) refers to entry.o(.ARM.Collect$$$$00000000) for __main
    crc-16_ccitt.o(i.Crc16) refers to crc-16_ccitt.o(i.reflect) for reflect
    g711.o(i.AudioSamleFromADC) refers to audio_in_out.o(i.AudioInPop) for AudioInPop
    g711.o(i.AudioSamleFromADC) refers to g711.o(i.linear2alaw) for linear2alaw
    g711.o(i.AudioSamleToDAC) refers to g711.o(i.alaw2linear) for alaw2linear
    g711.o(i.AudioSamleToDAC) refers to audio_in_out.o(i.AudioOutPush) for AudioOutPush
    g711.o(i.AudioSamleToDAC) refers to mt9092_registers.o(.bss) for mt9092_reg
    g711.o(i.AudioSamleToDAC) refers to g711.o(.data) for swap
    g711.o(i.AudioSamleToDAC) refers to g711.o(.constdata) for SineRef
    g711.o(i.LowPassFilter) refers to g711.o(.constdata) for .constdata
    g711.o(i.LowPassFilter) refers to g711.o(.bss) for x
    g711.o(i.ReadProtect) refers to stm32f4xx_hal_flash_ex.o(i.HAL_FLASHEx_OBGetConfig) for HAL_FLASHEx_OBGetConfig
    g711.o(i.ReadProtect) refers to stm32f4xx_hal_flash.o(i.HAL_FLASH_Unlock) for HAL_FLASH_Unlock
    g711.o(i.ReadProtect) refers to stm32f4xx_hal_flash.o(i.HAL_FLASH_OB_Unlock) for HAL_FLASH_OB_Unlock
    g711.o(i.ReadProtect) refers to stm32f4xx_hal_flash_ex.o(i.HAL_FLASHEx_OBProgram) for HAL_FLASHEx_OBProgram
    g711.o(i.ReadProtect) refers to stm32f4xx_hal_flash.o(i.HAL_FLASH_OB_Launch) for HAL_FLASH_OB_Launch
    g711.o(i.ReadProtect) refers to stm32f4xx_hal_flash.o(i.HAL_FLASH_OB_Lock) for HAL_FLASH_OB_Lock
    g711.o(i.ReadProtect) refers to stm32f4xx_hal_flash.o(i.HAL_FLASH_Lock) for HAL_FLASH_Lock
    g711.o(i.ReadProtect) refers to g711.o(.bss) for Fuses
    g711.o(i.RectWinFilter) refers to memmovea.o(.text) for __aeabi_memcpy4
    g711.o(i.RectWinFilter) refers to g711.o(.constdata) for .constdata
    g711.o(i.RectWinFilter) refers to g711.o(.bss) for x
    g711.o(i.alaw2ulaw) refers to g711.o(.constdata) for _a2u
    g711.o(i.linear2alaw) refers to g711.o(i.search) for search
    g711.o(i.linear2alaw) refers to g711.o(.constdata) for seg_end
    g711.o(i.linear2ulaw) refers to g711.o(i.search) for search
    g711.o(i.linear2ulaw) refers to g711.o(.constdata) for seg_end
    g711.o(i.ulaw2alaw) refers to g711.o(.constdata) for _u2a
    hdlc_rx.o(i.processHdlcTelegram) refers to uart.o(i.uartPuts) for uartPuts
    hdlc_rx.o(i.processHdlcTelegram) refers to hdlc_rx.o(i.resetHdlcRxFifo) for resetHdlcRxFifo
    hdlc_rx.o(i.processHdlcTelegram) refers to mt9092_logic.o(i.mt9092IrqOn) for mt9092IrqOn
    hdlc_rx.o(i.processHdlcTelegram) refers to mt9092_registers.o(.bss) for mt9092_reg
    hdlc_rx.o(i.processHdlcTelegram) refers to hdlc_rx.o(.bss) for rx_fifo
    hdlc_rx.o(i.processHdlcTelegram) refers to mt9092_logic.o(.data) for rx_fifo_treshold
    hdlc_rx.o(i.readHdlcRxFifo) refers to hdlc_rx.o(.bss) for rx_fifo
    hdlc_rx.o(i.readHdlcRxFifo) refers to mt9092_registers.o(.bss) for mt9092_reg
    hdlc_rx.o(i.readHdlcRxFifo) refers to mt9092_logic.o(.data) for rx_fifo_treshold
    hdlc_rx.o(i.resetHdlcRxFifo) refers to mt9092_registers.o(.bss) for mt9092_reg
    hdlc_rx.o(i.resetHdlcRxFifo) refers to hdlc_rx.o(.bss) for rx_fifo
    hdlc_rx_low_level.o(i.BitRingInit) refers to memseta.o(.text) for __aeabi_memclr
    hdlc_rx_low_level.o(i.BitRingInit) refers to uart.o(i.uartPuts) for uartPuts
    hdlc_rx_low_level.o(i.BitRingInit) refers to hdlc_rx_low_level.o(.bss) for bit_ring
    hdlc_rx_low_level.o(i.BitRingInit) refers to hdlc_rx_low_level.o(.data) for current_index
    hdlc_rx_low_level.o(i.BitRingProcessBit) refers to hdlc_rx_low_level.o(i.Inc) for Inc
    hdlc_rx_low_level.o(i.BitRingProcessBit) refers to hdlc_rx_low_level.o(i.readFromPosition) for readFromPosition
    hdlc_rx_low_level.o(i.BitRingProcessBit) refers to memcmp.o(.text) for memcmp
    hdlc_rx_low_level.o(i.BitRingProcessBit) refers to hdlc_rx_low_level.o(i.truncValue) for truncValue
    hdlc_rx_low_level.o(i.BitRingProcessBit) refers to hdlc_rx_low_level.o(.data) for idle_state_counter
    hdlc_rx_low_level.o(i.BitRingProcessBit) refers to mt9092_registers.o(.bss) for mt9092_reg
    hdlc_rx_low_level.o(i.BitRingProcessBit) refers to hdlc_rx_low_level.o(.bss) for bit_ring
    hdlc_rx_low_level.o(i.BitRingProcessBit) refers to hdlc_rx_low_level.o(.constdata) for abort_pattern
    hdlc_rx_low_level.o(i.processHdlcFrame) refers to memmovea.o(.text) for __aeabi_memmove
    hdlc_rx_low_level.o(i.processHdlcFrame) refers to uart.o(i.uartPuts) for uartPuts
    hdlc_rx_low_level.o(i.processHdlcFrame) refers to crc-16_ccitt.o(i.Crc16) for Crc16
    hdlc_rx_low_level.o(i.processHdlcFrame) refers to uart.o(i.uartPutsN) for uartPutsN
    hdlc_rx_low_level.o(i.processHdlcFrame) refers to hdlc_rx.o(i.processHdlcTelegram) for processHdlcTelegram
    hdlc_rx_low_level.o(i.processHdlcFrame) refers to hdlc_rx_low_level.o(.data) for flag_hdlc_frame_received
    hdlc_rx_low_level.o(i.processHdlcFrame) refers to hdlc_rx_low_level.o(.bss) for hdlc_frame_bit_sequence
    hdlc_rx_low_level.o(i.readFromPosition) refers to hdlc_rx_low_level.o(i.Inc) for Inc
    hdlc_rx_low_level.o(i.readFromPosition) refers to hdlc_rx_low_level.o(.bss) for bit_ring
    hdlc_tx.o(i.isHdlcFifoEmpty) refers to hdlc_tx.o(.bss) for tx_fifo
    hdlc_tx.o(i.resetHdlcTxFifo) refers to mt9092_registers.o(.bss) for mt9092_reg
    hdlc_tx.o(i.resetHdlcTxFifo) refers to hdlc_tx.o(.bss) for tx_fifo
    hdlc_tx.o(i.startHdlcTransmition) refers to uart.o(i.uartPuts) for uartPuts
    hdlc_tx.o(i.startHdlcTransmition) refers to uart.o(i.uartPutchar) for uartPutchar
    hdlc_tx.o(i.startHdlcTransmition) refers to hdlc_tx_low_level.o(i.createHdlcBitStream) for createHdlcBitStream
    hdlc_tx.o(i.startHdlcTransmition) refers to hdlc_tx.o(.bss) for tx_fifo
    hdlc_tx.o(i.startHdlcTransmition) refers to mt9092_registers.o(.bss) for mt9092_reg
    hdlc_tx.o(i.writeHdlcTxFifo) refers to uart.o(i.uartPuts) for uartPuts
    hdlc_tx.o(i.writeHdlcTxFifo) refers to hdlc_tx.o(.bss) for tx_fifo
    hdlc_tx.o(i.writeHdlcTxFifo) refers to mt9092_registers.o(.bss) for mt9092_reg
    hdlc_tx.o(i.writeHdlcTxFifo) refers to mt9092_logic.o(.data) for tx_fifo_treshold
    hdlc_tx_low_level.o(i.HdlcBitStreamGetBit) refers to hdlc_tx.o(i.isHdlcFifoEmpty) for isHdlcFifoEmpty
    hdlc_tx_low_level.o(i.HdlcBitStreamGetBit) refers to hdlc_tx_low_level.o(.bss) for tx_hdlc_packet_bit_stream
    hdlc_tx_low_level.o(i.HdlcBitStreamGetBit) refers to hdlc_tx_low_level.o(.data) for current_bit
    hdlc_tx_low_level.o(i.HdlcBitStreamGetBit) refers to mt9092_registers.o(.bss) for mt9092_reg
    hdlc_tx_low_level.o(i.HdlcBitStreamGetBit) refers to mt9092_logic.o(.data) for flag_start_hdlc_transmission
    hdlc_tx_low_level.o(i.addByteToBitStream) refers to hdlc_tx_low_level.o(.bss) for tx_hdlc_packet_bit_stream
    hdlc_tx_low_level.o(i.addByteToBitStream) refers to hdlc_tx_low_level.o(.data) for bit_stream_length
    hdlc_tx_low_level.o(i.addFlagToBitStream) refers to hdlc_tx_low_level.o(.bss) for tx_hdlc_packet_bit_stream
    hdlc_tx_low_level.o(i.addFlagToBitStream) refers to hdlc_tx_low_level.o(.data) for bit_stream_length
    hdlc_tx_low_level.o(i.createHdlcBitStream) refers to hdlc_tx_low_level.o(i.addFlagToBitStream) for addFlagToBitStream
    hdlc_tx_low_level.o(i.createHdlcBitStream) refers to hdlc_tx_low_level.o(i.addByteToBitStream) for addByteToBitStream
    hdlc_tx_low_level.o(i.createHdlcBitStream) refers to crc-16_ccitt.o(i.Crc16) for Crc16
    hdlc_tx_low_level.o(i.createHdlcBitStream) refers to crc-16_ccitt.o(i.reflect) for reflect
    hdlc_tx_low_level.o(i.createHdlcBitStream) refers to hdlc_tx_low_level.o(.data) for bit_stream_length
    mt9092_logic.o(i.doMt9092Logic) refers to hdlc_tx.o(i.startHdlcTransmition) for startHdlcTransmition
    mt9092_logic.o(i.doMt9092Logic) refers to mt9092_logic.o(i.mt9092Reset) for mt9092Reset
    mt9092_logic.o(i.doMt9092Logic) refers to codec.o(i.micOn) for micOn
    mt9092_logic.o(i.doMt9092Logic) refers to codec.o(i.micOff) for micOff
    mt9092_logic.o(i.doMt9092Logic) refers to codec.o(i.selectMic) for selectMic
    mt9092_logic.o(i.doMt9092Logic) refers to codec.o(i.lineOutSpeakerOn) for lineOutSpeakerOn
    mt9092_logic.o(i.doMt9092Logic) refers to codec.o(i.lineOutSpeakerOff) for lineOutSpeakerOff
    mt9092_logic.o(i.doMt9092Logic) refers to codec.o(i.headsetSpeakerOn) for headsetSpeakerOn
    mt9092_logic.o(i.doMt9092Logic) refers to codec.o(i.headsetSpeakerOff) for headsetSpeakerOff
    mt9092_logic.o(i.doMt9092Logic) refers to mt9092_logic.o(.data) for flag_start_hdlc_transmission
    mt9092_logic.o(i.doMt9092Logic) refers to mt9092_registers.o(.bss) for mt9092_reg
    mt9092_logic.o(i.mt9092IrqOff) refers to stm32f4xx_hal_gpio.o(i.HAL_GPIO_WritePin) for HAL_GPIO_WritePin
    mt9092_logic.o(i.mt9092IrqOff) refers to mt9092_registers.o(.bss) for mt9092_reg
    mt9092_logic.o(i.mt9092IrqOn) refers to stm32f4xx_hal_gpio.o(i.HAL_GPIO_WritePin) for HAL_GPIO_WritePin
    mt9092_logic.o(i.mt9092IrqOn) refers to mt9092_registers.o(.bss) for mt9092_reg
    mt9092_logic.o(i.mt9092LogicInit) refers to mt9092_registers.o(i.mt9092RegistersInit) for mt9092RegistersInit
    mt9092_logic.o(i.mt9092ProcessReadCommand) refers to uart.o(i.uartPuts) for uartPuts
    mt9092_logic.o(i.mt9092ProcessReadCommand) refers to hdlc_rx.o(i.readHdlcRxFifo) for readHdlcRxFifo
    mt9092_logic.o(i.mt9092ProcessReadCommand) refers to mt9092_logic.o(i.mt9092IrqOff) for mt9092IrqOff
    mt9092_logic.o(i.mt9092ProcessReadCommand) refers to mt9092_registers.o(.bss) for mt9092_reg
    mt9092_logic.o(i.mt9092ProcessWriteCommand) refers to uart.o(i.uartPuts) for uartPuts
    mt9092_logic.o(i.mt9092ProcessWriteCommand) refers to hdlc_tx.o(i.writeHdlcTxFifo) for writeHdlcTxFifo
    mt9092_logic.o(i.mt9092ProcessWriteCommand) refers to hdlc_rx.o(i.resetHdlcRxFifo) for resetHdlcRxFifo
    mt9092_logic.o(i.mt9092ProcessWriteCommand) refers to hdlc_tx.o(i.resetHdlcTxFifo) for resetHdlcTxFifo
    mt9092_logic.o(i.mt9092ProcessWriteCommand) refers to mt9092_logic.o(.data) for flag_reset
    mt9092_logic.o(i.mt9092ProcessWriteCommand) refers to mt9092_registers.o(.bss) for mt9092_reg
    mt9092_logic.o(i.mt9092ProcessWriteCommand) refers to mt9092_registers.o(.data) for C_channel_out
    mt9092_logic.o(i.mt9092ProcessWriteCommand) refers to hdlc_tx_low_level.o(.data) for flag_HDLC_bitstream_ready
    mt9092_logic.o(i.mt9092Reset) refers to mt9092_registers.o(i.mt9092RegistersInit) for mt9092RegistersInit
    mt9092_logic.o(i.mt9092Reset) refers to hdlc_rx.o(i.resetHdlcRxFifo) for resetHdlcRxFifo
    mt9092_logic.o(i.mt9092Reset) refers to stm32f4xx_hal_gpio.o(i.HAL_GPIO_WritePin) for HAL_GPIO_WritePin
    mt9092_logic.o(i.mt9092Reset) refers to st-bus_sai_in_out.o(i.SAI_reset) for SAI_reset
    mt9092_registers.o(i.mt9092RegistersInit) refers to mt9092_registers.o(.data) for C_channel_out
    mt9092_registers.o(i.mt9092RegistersInit) refers to mt9092_registers.o(.bss) for mt9092_reg
    spi_interface.o(i.DBG_SPI_RxISR_8BIT_Fast) refers to strcpy.o(.text) for strcpy
    spi_interface.o(i.DBG_SPI_RxISR_8BIT_Fast) refers to uart.o(i.HexToChar) for HexToChar
    spi_interface.o(i.DBG_SPI_RxISR_8BIT_Fast) refers to uart.o(i.uartPuts) for uartPuts
    spi_interface.o(i.DBG_SPI_RxISR_8BIT_Fast) refers to spi_interface.o(.data) for dbg_spi_in_buf
    spi_interface.o(i.DBG_SPI_RxISR_8BIT_Fast) refers to main.o(.bss) for hspi4
    spi_interface.o(i.DBG_SPI_RxISR_8BIT_Fast) refers to spi_interface.o(.bss) for str
    spi_interface.o(i.HAL_SPI_ErrorCallback) refers to printf5.o(i.__0sprintf$5) for __2sprintf
    spi_interface.o(i.HAL_SPI_ErrorCallback) refers to uart.o(i.uartPuts) for uartPuts
    spi_interface.o(i.HAL_SPI_ErrorCallback) refers to spi_interface.o(i.spiSetErrLed) for spiSetErrLed
    spi_interface.o(i.HAL_SPI_ErrorCallback) refers to stm32f4xx_hal_spi.o(i.HAL_SPI_TransmitReceive_IT) for HAL_SPI_TransmitReceive_IT
    spi_interface.o(i.HAL_SPI_ErrorCallback) refers to spi_interface.o(.bss) for str
    spi_interface.o(i.HAL_SPI_ErrorCallback) refers to spi_interface.o(.data) for spi_dummy_in
    spi_interface.o(i.HAL_SPI_ErrorCallback) refers to main.o(.bss) for hspi2
    spi_interface.o(i.HAL_SPI_ErrorCallback) refers to spi_interface.o(i.SPI_2linesRxISR_8BIT_Fast) for SPI_2linesRxISR_8BIT_Fast
    spi_interface.o(i.HAL_SPI_ErrorCallback) refers to spi_interface.o(i.SPI_2linesTxISR_8BIT_Fast) for SPI_2linesTxISR_8BIT_Fast
    spi_interface.o(i.SPI_2linesRxISR_8BIT_Fast) refers to spi_interface.o(i.spiLedRefresh) for spiLedRefresh
    spi_interface.o(i.SPI_2linesRxISR_8BIT_Fast) refers to mt9092_logic.o(i.mt9092ProcessReadCommand) for mt9092ProcessReadCommand
    spi_interface.o(i.SPI_2linesRxISR_8BIT_Fast) refers to spi_interface.o(i.spi_begin_restart) for spi_begin_restart
    spi_interface.o(i.SPI_2linesRxISR_8BIT_Fast) refers to strcpy.o(.text) for strcpy
    spi_interface.o(i.SPI_2linesRxISR_8BIT_Fast) refers to uart.o(i.HexToChar) for HexToChar
    spi_interface.o(i.SPI_2linesRxISR_8BIT_Fast) refers to uart.o(i.uartPuts) for uartPuts
    spi_interface.o(i.SPI_2linesRxISR_8BIT_Fast) refers to mt9092_logic.o(i.mt9092ProcessWriteCommand) for mt9092ProcessWriteCommand
    spi_interface.o(i.SPI_2linesRxISR_8BIT_Fast) refers to spi_interface.o(i.spiSetErrLed) for spiSetErrLed
    spi_interface.o(i.SPI_2linesRxISR_8BIT_Fast) refers to spi_interface.o(.data) for spi_rec_state
    spi_interface.o(i.SPI_2linesRxISR_8BIT_Fast) refers to main.o(.bss) for hspi2
    spi_interface.o(i.SPI_2linesRxISR_8BIT_Fast) refers to spi_interface.o(.bss) for str
    spi_interface.o(i.doCsTimeout) refers to stm32f4xx_hal_cortex.o(i.HAL_NVIC_DisableIRQ) for HAL_NVIC_DisableIRQ
    spi_interface.o(i.doCsTimeout) refers to stm32f4xx_hal_gpio.o(i.HAL_GPIO_ReadPin) for HAL_GPIO_ReadPin
    spi_interface.o(i.doCsTimeout) refers to uart.o(i.uartPuts) for uartPuts
    spi_interface.o(i.doCsTimeout) refers to spi_interface.o(i.spi_disable) for spi_disable
    spi_interface.o(i.doCsTimeout) refers to spi_interface.o(i.spi_enable) for spi_enable
    spi_interface.o(i.doCsTimeout) refers to stm32f4xx_hal_cortex.o(i.HAL_NVIC_EnableIRQ) for HAL_NVIC_EnableIRQ
    spi_interface.o(i.doCsTimeout) refers to spi_interface.o(i.spi_end_restart) for spi_end_restart
    spi_interface.o(i.doCsTimeout) refers to spi_interface.o(.data) for cs_timeout
    spi_interface.o(i.nCS_IRQHandler) refers to spi_interface.o(i.spi_enable) for spi_enable
    spi_interface.o(i.nCS_IRQHandler) refers to spi_interface.o(i.spi_disable) for spi_disable
    spi_interface.o(i.nCS_IRQHandler) refers to spi_interface.o(.data) for cs_timeout
    spi_interface.o(i.spiLedRefresh) refers to stm32f4xx_hal_gpio.o(i.HAL_GPIO_WritePin) for HAL_GPIO_WritePin
    spi_interface.o(i.spiLedRefresh) refers to stm32f4xx_hal.o(i.HAL_GetTick) for HAL_GetTick
    spi_interface.o(i.spiLedRefresh) refers to spi_interface.o(.data) for spi_led_timer
    spi_interface.o(i.spiLedService) refers to stm32f4xx_hal.o(i.HAL_GetTick) for HAL_GetTick
    spi_interface.o(i.spiLedService) refers to stm32f4xx_hal_gpio.o(i.HAL_GPIO_WritePin) for HAL_GPIO_WritePin
    spi_interface.o(i.spiLedService) refers to spi_interface.o(.data) for spi_led_timer
    spi_interface.o(i.spiSetErrLed) refers to stm32f4xx_hal_gpio.o(i.HAL_GPIO_WritePin) for HAL_GPIO_WritePin
    spi_interface.o(i.spiSetErrLed) refers to stm32f4xx_hal.o(i.HAL_GetTick) for HAL_GetTick
    spi_interface.o(i.spiSetErrLed) refers to spi_interface.o(.data) for err_led_timer
    spi_interface.o(i.spi_begin_restart) refers to stm32f4xx_hal_cortex.o(i.HAL_NVIC_DisableIRQ) for HAL_NVIC_DisableIRQ
    spi_interface.o(i.spi_begin_restart) refers to spi_interface.o(i.spi_disable) for spi_disable
    spi_interface.o(i.spi_begin_restart) refers to uart.o(i.uartPuts) for uartPuts
    spi_interface.o(i.spi_begin_restart) refers to spi_interface.o(.data) for flag_spi_restart
    spi_interface.o(i.spi_disable) refers to spi_interface.o(.data) for spi_rec_state
    spi_interface.o(i.spi_disable) refers to main.o(.bss) for hspi2
    spi_interface.o(i.spi_enable) refers to main.o(.bss) for hspi2
    spi_interface.o(i.spi_enable) refers to spi_interface.o(.data) for spi_dummy_in
    spi_interface.o(i.spi_end_restart) refers to stm32f4xx_hal_cortex.o(i.HAL_NVIC_EnableIRQ) for HAL_NVIC_EnableIRQ
    spi_interface.o(i.spi_end_restart) refers to uart.o(i.uartPuts) for uartPuts
    spi_interface.o(i.spi_end_restart) refers to spi_interface.o(.data) for flag_spi_restart
    spi_interface.o(i.spi_interface_Init) refers to stm32f4xx_hal_spi.o(i.HAL_SPI_TransmitReceive_IT) for HAL_SPI_TransmitReceive_IT
    spi_interface.o(i.spi_interface_Init) refers to stm32f4xx_hal_cortex.o(i.HAL_NVIC_EnableIRQ) for HAL_NVIC_EnableIRQ
    spi_interface.o(i.spi_interface_Init) refers to stm32f4xx_hal_gpio.o(i.HAL_GPIO_ReadPin) for HAL_GPIO_ReadPin
    spi_interface.o(i.spi_interface_Init) refers to spi_interface.o(.data) for spi_dummy_in
    spi_interface.o(i.spi_interface_Init) refers to main.o(.bss) for hspi2
    spi_interface.o(i.spi_interface_Init) refers to spi_interface.o(i.SPI_2linesRxISR_8BIT_Fast) for SPI_2linesRxISR_8BIT_Fast
    spi_interface.o(i.spi_interface_Init) refers to spi_interface.o(i.SPI_2linesTxISR_8BIT_Fast) for SPI_2linesTxISR_8BIT_Fast
    st-bus_sai_in_out.o(i.DV_port_input_Init) refers to hdlc_rx_low_level.o(i.BitRingInit) for BitRingInit
    st-bus_sai_in_out.o(i.DV_port_input_Init) refers to st-bus_sai_in_out.o(i.SAI_DMA_Init) for SAI_DMA_Init
    st-bus_sai_in_out.o(i.HAL_SAI_ErrorCallback) refers to stm32f4xx_hal_sai.o(i.HAL_SAI_GetError) for HAL_SAI_GetError
    st-bus_sai_in_out.o(i.HAL_SAI_ErrorCallback) refers to printf5.o(i.__0sprintf$5) for __2sprintf
    st-bus_sai_in_out.o(i.HAL_SAI_ErrorCallback) refers to uart.o(i.uartPuts) for uartPuts
    st-bus_sai_in_out.o(i.HAL_SAI_ErrorCallback) refers to stm32f4xx_hal_gpio.o(i.HAL_GPIO_TogglePin) for HAL_GPIO_TogglePin
    st-bus_sai_in_out.o(i.HAL_SAI_ErrorCallback) refers to st-bus_sai_in_out.o(i.SAI_DMA_Init) for SAI_DMA_Init
    st-bus_sai_in_out.o(i.HAL_SAI_ErrorCallback) refers to st-bus_sai_in_out.o(.bss) for str
    st-bus_sai_in_out.o(i.HAL_SAI_RxCpltCallback) refers to stm32f4xx_hal_gpio.o(i.HAL_GPIO_WritePin) for HAL_GPIO_WritePin
    st-bus_sai_in_out.o(i.HAL_SAI_RxCpltCallback) refers to strcpy.o(.text) for strcpy
    st-bus_sai_in_out.o(i.HAL_SAI_RxCpltCallback) refers to uart.o(i.HexToChar) for HexToChar
    st-bus_sai_in_out.o(i.HAL_SAI_RxCpltCallback) refers to hdlc_rx_low_level.o(i.BitRingProcessBit) for BitRingProcessBit
    st-bus_sai_in_out.o(i.HAL_SAI_RxCpltCallback) refers to g711.o(i.AudioSamleToDAC) for AudioSamleToDAC
    st-bus_sai_in_out.o(i.HAL_SAI_RxCpltCallback) refers to uart.o(i.uartPuts) for uartPuts
    st-bus_sai_in_out.o(i.HAL_SAI_RxCpltCallback) refers to hdlc_tx_low_level.o(i.HdlcBitStreamGetBit) for HdlcBitStreamGetBit
    st-bus_sai_in_out.o(i.HAL_SAI_RxCpltCallback) refers to g711.o(i.AudioSamleFromADC) for AudioSamleFromADC
    st-bus_sai_in_out.o(i.HAL_SAI_RxCpltCallback) refers to st-bus_sai_in_out.o(.data) for SAI_DMA_input_buffer
    st-bus_sai_in_out.o(i.HAL_SAI_RxCpltCallback) refers to mt9092_registers.o(.bss) for mt9092_reg
    st-bus_sai_in_out.o(i.HAL_SAI_RxCpltCallback) refers to st-bus_sai_in_out.o(.bss) for str
    st-bus_sai_in_out.o(i.HAL_SAI_RxCpltCallback) refers to mt9092_registers.o(.data) for C_channel_out
    st-bus_sai_in_out.o(i.HAL_SAI_RxCpltCallback) refers to hdlc_tx_low_level.o(.data) for flag_HDLC_bitstream_ready
    st-bus_sai_in_out.o(i.SAI_DMA_Init) refers to stm32f4xx_hal_sai.o(i.HAL_SAI_Receive_DMA) for HAL_SAI_Receive_DMA
    st-bus_sai_in_out.o(i.SAI_DMA_Init) refers to stm32f4xx_hal_sai.o(i.HAL_SAI_Transmit_DMA) for HAL_SAI_Transmit_DMA
    st-bus_sai_in_out.o(i.SAI_DMA_Init) refers to uart.o(i.uartPuts) for uartPuts
    st-bus_sai_in_out.o(i.SAI_DMA_Init) refers to st-bus_sai_in_out.o(.data) for SAI_DMA_input_buffer
    st-bus_sai_in_out.o(i.SAI_DMA_Init) refers to main.o(.bss) for hsai_BlockB1
    st-bus_sai_in_out.o(i.SAI_reset) refers to stm32f4xx_hal_sai.o(i.HAL_SAI_Abort) for HAL_SAI_Abort
    st-bus_sai_in_out.o(i.SAI_reset) refers to st-bus_sai_in_out.o(i.SAI_DMA_Init) for SAI_DMA_Init
    st-bus_sai_in_out.o(i.SAI_reset) refers to main.o(.bss) for hsai_BlockB1
    uart.o(i.Hex16ToChar) refers to memmovea.o(.text) for __aeabi_memcpy4
    uart.o(i.HexToChar) refers to memmovea.o(.text) for __aeabi_memcpy4
    uart.o(i.blink) refers to uart.o(.data) for blink_counter
    uart.o(i.doRxBlink) refers to uart.o(.data) for blink_counter
    uart.o(i.uartBytesReceived) refers to uart.o(.bss) for uart_rx_fifo
    uart.o(i.uartGetchar) refers to uart.o(.bss) for uart_rx_fifo
    uart.o(i.uartISR) refers to uart.o(i.blink) for blink
    uart.o(i.uartISR) refers to uart.o(.bss) for uart_rx_fifo
    uart.o(i.uartPutchar) refers to uart.o(.bss) for uart_tx_fifo
    uart.o(i.uartPuts) refers to uart.o(i.uartPutchar) for uartPutchar
    uart.o(i.uartPutsBitArray) refers to uart.o(i.uartPuts) for uartPuts
    uart.o(i.uartPutsBitArray) refers to uart.o(.conststring) for .conststring
    uart.o(i.uartPutsN) refers to uart.o(i.uartPutchar) for uartPutchar
    uart.o(i.uartReceiveStart) refers to uart.o(.bss) for uart_rx_fifo
    codec.o(i.codecInit) refers to codec.o(i.writeReg) for writeReg
    codec.o(i.codecInit) refers to codec.o(i.readReg) for readReg
    codec.o(i.doCodecTest) refers to stm32f4xx_hal.o(i.HAL_Delay) for HAL_Delay
    codec.o(i.doCodecTest) refers to codec.o(i.writeReg) for writeReg
    codec.o(i.headsetSpeakerOff) refers to uart.o(i.uartPuts) for uartPuts
    codec.o(i.headsetSpeakerOff) refers to codec.o(i.writeReg) for writeReg
    codec.o(i.headsetSpeakerOff) refers to codec.o(i.readReg) for readReg
    codec.o(i.headsetSpeakerOn) refers to uart.o(i.uartPuts) for uartPuts
    codec.o(i.headsetSpeakerOn) refers to codec.o(i.writeReg) for writeReg
    codec.o(i.headsetSpeakerOn) refers to codec.o(i.readReg) for readReg
    codec.o(i.lineOutSpeakerOff) refers to uart.o(i.uartPuts) for uartPuts
    codec.o(i.lineOutSpeakerOff) refers to codec.o(i.writeReg) for writeReg
    codec.o(i.lineOutSpeakerOff) refers to codec.o(i.readReg) for readReg
    codec.o(i.lineOutSpeakerOn) refers to uart.o(i.uartPuts) for uartPuts
    codec.o(i.lineOutSpeakerOn) refers to codec.o(i.writeReg) for writeReg
    codec.o(i.lineOutSpeakerOn) refers to codec.o(i.readReg) for readReg
    codec.o(i.micOff) refers to uart.o(i.uartPuts) for uartPuts
    codec.o(i.micOff) refers to codec.o(i.writeReg) for writeReg
    codec.o(i.micOff) refers to codec.o(i.readReg) for readReg
    codec.o(i.micOn) refers to uart.o(i.uartPuts) for uartPuts
    codec.o(i.micOn) refers to codec.o(i.writeReg) for writeReg
    codec.o(i.micOn) refers to codec.o(i.readReg) for readReg
    codec.o(i.readReg) refers to stm32f4xx_hal_gpio.o(i.HAL_GPIO_WritePin) for HAL_GPIO_WritePin
    codec.o(i.readReg) refers to stm32f4xx_hal_spi.o(i.HAL_SPI_Transmit) for HAL_SPI_Transmit
    codec.o(i.readReg) refers to stm32f4xx_hal_spi.o(i.HAL_SPI_Receive) for HAL_SPI_Receive
    codec.o(i.readReg) refers to main.o(.bss) for hspi1
    codec.o(i.selectGoosneckMic) refers to codec.o(i.writeReg) for writeReg
    codec.o(i.selectHeadsetMic) refers to codec.o(i.writeReg) for writeReg
    codec.o(i.selectMic) refers to uart.o(i.uartPuts) for uartPuts
    codec.o(i.selectMic) refers to codec.o(i.writeReg) for writeReg
    codec.o(i.setPGAgain) refers to codec.o(i.writeReg) for writeReg
    codec.o(i.writeReg) refers to stm32f4xx_hal_gpio.o(i.HAL_GPIO_WritePin) for HAL_GPIO_WritePin
    codec.o(i.writeReg) refers to stm32f4xx_hal_spi.o(i.HAL_SPI_Transmit) for HAL_SPI_Transmit
    codec.o(i.writeReg) refers to main.o(.bss) for hspi1
    audio_in_out.o(i.AudioInOutInit) refers to codec.o(i.codecInit) for codecInit
    audio_in_out.o(i.AudioInOutInit) refers to uart.o(i.uartPuts) for uartPuts
    audio_in_out.o(i.AudioInOutInit) refers to codec.o(i.selectMic) for selectMic
    audio_in_out.o(i.AudioInOutInit) refers to codec.o(i.micOff) for micOff
    audio_in_out.o(i.AudioInOutInit) refers to codec.o(i.headsetSpeakerOff) for headsetSpeakerOff
    audio_in_out.o(i.AudioInOutInit) refers to codec.o(i.lineOutSpeakerOff) for lineOutSpeakerOff
    audio_in_out.o(i.AudioInOutInit) refers to stm32f4xx_hal_cortex.o(i.HAL_NVIC_DisableIRQ) for HAL_NVIC_DisableIRQ
    audio_in_out.o(i.AudioInOutInit) refers to stm32f4xx_hal_i2s_ex.o(i.HAL_I2SEx_TransmitReceive_DMA) for HAL_I2SEx_TransmitReceive_DMA
    audio_in_out.o(i.AudioInOutInit) refers to audio_in_out.o(.data) for sinebuf1
    audio_in_out.o(i.AudioInOutInit) refers to audio_in_out.o(.bss) for audio_out_fifo
    audio_in_out.o(i.AudioInOutInit) refers to main.o(.bss) for hi2s3
    audio_in_out.o(i.AudioInOutInit) refers to audio_in_out.o(i.I2SEx_TxRxDMACpltAlt) for I2SEx_TxRxDMACpltAlt
    audio_in_out.o(i.AudioInPop) refers to uart.o(i.uartPuts) for uartPuts
    audio_in_out.o(i.AudioInPop) refers to audio_in_out.o(.data) for flag_audio_OK
    audio_in_out.o(i.AudioInPop) refers to audio_in_out.o(.bss) for audio_in_fifo
    audio_in_out.o(i.AudioOutPush) refers to uart.o(i.uartPuts) for uartPuts
    audio_in_out.o(i.AudioOutPush) refers to audio_in_out.o(.bss) for audio_out_fifo
    audio_in_out.o(i.HAL_I2SEx_TxRxCpltAltCallback) refers to uart.o(i.uartPuts) for uartPuts
    audio_in_out.o(i.HAL_I2SEx_TxRxCpltAltCallback) refers to audio_in_out.o(.bss) for audio_in_fifo
    audio_in_out.o(i.HAL_I2SEx_TxRxCpltAltCallback) refers to audio_in_out.o(.data) for audio_in_DMA_Buffer
    audio_in_out.o(i.HAL_I2SEx_TxRxHalfCpltCallback) refers to uart.o(i.uartPuts) for uartPuts
    audio_in_out.o(i.HAL_I2SEx_TxRxHalfCpltCallback) refers to audio_in_out.o(.data) for i
    audio_in_out.o(i.HAL_I2SEx_TxRxHalfCpltCallback) refers to audio_in_out.o(.bss) for audio_out_fifo
    audio_in_out.o(i.HAL_I2S_ErrorCallback) refers to uart.o(i.uartPuts) for uartPuts
    audio_in_out.o(i.I2SEx_TxRxDMACpltAlt) refers to audio_in_out.o(i.HAL_I2SEx_TxRxCpltAltCallback) for HAL_I2SEx_TxRxCpltAltCallback
    main.o(i.MX_DMA_Init) refers to stm32f4xx_hal_cortex.o(i.HAL_NVIC_SetPriority) for HAL_NVIC_SetPriority
    main.o(i.MX_DMA_Init) refers to stm32f4xx_hal_cortex.o(i.HAL_NVIC_EnableIRQ) for HAL_NVIC_EnableIRQ
    main.o(i.MX_GPIO_Init) refers to memseta.o(.text) for __aeabi_memclr4
    main.o(i.MX_GPIO_Init) refers to stm32f4xx_hal_gpio.o(i.HAL_GPIO_WritePin) for HAL_GPIO_WritePin
    main.o(i.MX_GPIO_Init) refers to stm32f4xx_hal_gpio.o(i.HAL_GPIO_Init) for HAL_GPIO_Init
    main.o(i.MX_GPIO_Init) refers to stm32f4xx_hal_cortex.o(i.HAL_NVIC_SetPriority) for HAL_NVIC_SetPriority
    main.o(i.MX_GPIO_Init) refers to stm32f4xx_hal_cortex.o(i.HAL_NVIC_EnableIRQ) for HAL_NVIC_EnableIRQ
    main.o(i.MX_I2S3_Init) refers to stm32f4xx_hal_i2s.o(i.HAL_I2S_Init) for HAL_I2S_Init
    main.o(i.MX_I2S3_Init) refers to main.o(i.Error_Handler) for Error_Handler
    main.o(i.MX_I2S3_Init) refers to main.o(.bss) for hi2s3
    main.o(i.MX_SAI1_Init) refers to stm32f4xx_hal_sai.o(i.HAL_SAI_Init) for HAL_SAI_Init
    main.o(i.MX_SAI1_Init) refers to main.o(i.Error_Handler) for Error_Handler
    main.o(i.MX_SAI1_Init) refers to main.o(.bss) for hsai_BlockA1
    main.o(i.MX_SPI1_Init) refers to stm32f4xx_hal_spi.o(i.HAL_SPI_Init) for HAL_SPI_Init
    main.o(i.MX_SPI1_Init) refers to main.o(i.Error_Handler) for Error_Handler
    main.o(i.MX_SPI1_Init) refers to main.o(.bss) for hspi1
    main.o(i.MX_SPI2_Init) refers to stm32f4xx_hal_spi.o(i.HAL_SPI_Init) for HAL_SPI_Init
    main.o(i.MX_SPI2_Init) refers to main.o(i.Error_Handler) for Error_Handler
    main.o(i.MX_SPI2_Init) refers to main.o(.bss) for hspi2
    main.o(i.MX_SPI4_Init) refers to stm32f4xx_hal_spi.o(i.HAL_SPI_Init) for HAL_SPI_Init
    main.o(i.MX_SPI4_Init) refers to main.o(i.Error_Handler) for Error_Handler
    main.o(i.MX_SPI4_Init) refers to main.o(.bss) for hspi4
    main.o(i.MX_TIM4_Init) refers to stm32f4xx_hal_tim.o(i.HAL_TIM_Base_Init) for HAL_TIM_Base_Init
    main.o(i.MX_TIM4_Init) refers to main.o(i.Error_Handler) for Error_Handler
    main.o(i.MX_TIM4_Init) refers to stm32f4xx_hal_tim.o(i.HAL_TIM_ConfigClockSource) for HAL_TIM_ConfigClockSource
    main.o(i.MX_TIM4_Init) refers to stm32f4xx_hal_tim_ex.o(i.HAL_TIMEx_MasterConfigSynchronization) for HAL_TIMEx_MasterConfigSynchronization
    main.o(i.MX_TIM4_Init) refers to main.o(.bss) for htim4
    main.o(i.MX_USART1_UART_Init) refers to memseta.o(.text) for __aeabi_memclr4
    main.o(i.MX_USART1_UART_Init) refers to stm32f4xx_ll_gpio.o(i.LL_GPIO_Init) for LL_GPIO_Init
    main.o(i.MX_USART1_UART_Init) refers to stm32f4xx_ll_usart.o(i.LL_USART_Init) for LL_USART_Init
    main.o(i.SystemClock_Config) refers to memseta.o(.text) for __aeabi_memclr4
    main.o(i.SystemClock_Config) refers to stm32f4xx_hal_rcc.o(i.HAL_RCC_OscConfig) for HAL_RCC_OscConfig
    main.o(i.SystemClock_Config) refers to main.o(i.Error_Handler) for Error_Handler
    main.o(i.SystemClock_Config) refers to stm32f4xx_hal_pwr_ex.o(i.HAL_PWREx_EnableOverDrive) for HAL_PWREx_EnableOverDrive
    main.o(i.SystemClock_Config) refers to stm32f4xx_hal_rcc.o(i.HAL_RCC_ClockConfig) for HAL_RCC_ClockConfig
    main.o(i.SystemClock_Config) refers to stm32f4xx_hal_rcc_ex.o(i.HAL_RCCEx_PeriphCLKConfig) for HAL_RCCEx_PeriphCLKConfig
    main.o(i.main) refers to stm32f4xx_hal.o(i.HAL_Init) for HAL_Init
    main.o(i.main) refers to main.o(i.SystemClock_Config) for SystemClock_Config
    main.o(i.main) refers to main.o(i.MX_GPIO_Init) for MX_GPIO_Init
    main.o(i.main) refers to main.o(i.MX_DMA_Init) for MX_DMA_Init
    main.o(i.main) refers to main.o(i.MX_SAI1_Init) for MX_SAI1_Init
    main.o(i.main) refers to main.o(i.MX_USART1_UART_Init) for MX_USART1_UART_Init
    main.o(i.main) refers to main.o(i.MX_SPI2_Init) for MX_SPI2_Init
    main.o(i.main) refers to main.o(i.MX_SPI4_Init) for MX_SPI4_Init
    main.o(i.main) refers to main.o(i.MX_TIM4_Init) for MX_TIM4_Init
    main.o(i.main) refers to main.o(i.MX_I2S3_Init) for MX_I2S3_Init
    main.o(i.main) refers to main.o(i.MX_SPI1_Init) for MX_SPI1_Init
    main.o(i.main) refers to uart.o(i.uartPuts) for uartPuts
    main.o(i.main) refers to st-bus_sai_in_out.o(i.DV_port_input_Init) for DV_port_input_Init
    main.o(i.main) refers to mt9092_logic.o(i.mt9092LogicInit) for mt9092LogicInit
    main.o(i.main) refers to spi_interface.o(i.spi_interface_Init) for spi_interface_Init
    main.o(i.main) refers to g711.o(i.AudioInit) for AudioInit
    main.o(i.main) refers to audio_in_out.o(i.AudioInOutInit) for AudioInOutInit
    main.o(i.main) refers to uart.o(i.uartReceiveStop) for uartReceiveStop
    main.o(i.main) refers to hdlc_rx_low_level.o(i.processHdlcFrame) for processHdlcFrame
    main.o(i.main) refers to mt9092_logic.o(i.doMt9092Logic) for doMt9092Logic
    main.o(i.main) refers to spi_interface.o(i.spiLedService) for spiLedService
    stm32f4xx_it.o(i.DMA1_Stream5_IRQHandler) refers to stm32f4xx_hal_dma.o(i.HAL_DMA_IRQHandler) for HAL_DMA_IRQHandler
    stm32f4xx_it.o(i.DMA1_Stream5_IRQHandler) refers to main.o(.bss) for hdma_spi3_tx
    stm32f4xx_it.o(i.DMA2_Stream4_IRQHandler) refers to stm32f4xx_hal_dma.o(i.HAL_DMA_IRQHandler) for HAL_DMA_IRQHandler
    stm32f4xx_it.o(i.DMA2_Stream4_IRQHandler) refers to main.o(.bss) for hdma_sai1_b
    stm32f4xx_it.o(i.EXTI15_10_IRQHandler) refers to spi_interface.o(i.nCS_IRQHandler) for nCS_IRQHandler
    stm32f4xx_it.o(i.HardFault_Handler) refers to stm32f4xx_hal_gpio.o(i.HAL_GPIO_TogglePin) for HAL_GPIO_TogglePin
    stm32f4xx_it.o(i.SPI2_IRQHandler) refers to stm32f4xx_hal_spi.o(i.HAL_SPI_IRQHandler) for HAL_SPI_IRQHandler
    stm32f4xx_it.o(i.SPI2_IRQHandler) refers to main.o(.bss) for hspi2
    stm32f4xx_it.o(i.SysTick_Handler) refers to spi_interface.o(i.doCsTimeout) for doCsTimeout
    stm32f4xx_it.o(i.SysTick_Handler) refers to stm32f4xx_hal.o(i.HAL_IncTick) for HAL_IncTick
    stm32f4xx_it.o(i.USART1_IRQHandler) refers to uart.o(i.uartISR) for uartISR
    stm32f4xx_hal_msp.o(i.HAL_I2S_MspDeInit) refers to stm32f4xx_hal_gpio.o(i.HAL_GPIO_DeInit) for HAL_GPIO_DeInit
    stm32f4xx_hal_msp.o(i.HAL_I2S_MspDeInit) refers to stm32f4xx_hal_dma.o(i.HAL_DMA_DeInit) for HAL_DMA_DeInit
    stm32f4xx_hal_msp.o(i.HAL_I2S_MspInit) refers to memseta.o(.text) for __aeabi_memclr4
    stm32f4xx_hal_msp.o(i.HAL_I2S_MspInit) refers to stm32f4xx_hal_gpio.o(i.HAL_GPIO_Init) for HAL_GPIO_Init
    stm32f4xx_hal_msp.o(i.HAL_I2S_MspInit) refers to stm32f4xx_hal_dma.o(i.HAL_DMA_Init) for HAL_DMA_Init
    stm32f4xx_hal_msp.o(i.HAL_I2S_MspInit) refers to main.o(i.Error_Handler) for Error_Handler
    stm32f4xx_hal_msp.o(i.HAL_I2S_MspInit) refers to main.o(.bss) for hdma_spi3_tx
    stm32f4xx_hal_msp.o(i.HAL_SAI_MspDeInit) refers to stm32f4xx_hal_gpio.o(i.HAL_GPIO_DeInit) for HAL_GPIO_DeInit
    stm32f4xx_hal_msp.o(i.HAL_SAI_MspDeInit) refers to stm32f4xx_hal_dma.o(i.HAL_DMA_DeInit) for HAL_DMA_DeInit
    stm32f4xx_hal_msp.o(i.HAL_SAI_MspDeInit) refers to stm32f4xx_hal_msp.o(.data) for SAI1_client
    stm32f4xx_hal_msp.o(i.HAL_SAI_MspInit) refers to stm32f4xx_hal_gpio.o(i.HAL_GPIO_Init) for HAL_GPIO_Init
    stm32f4xx_hal_msp.o(i.HAL_SAI_MspInit) refers to stm32f4xx_hal_dma.o(i.HAL_DMA_Init) for HAL_DMA_Init
    stm32f4xx_hal_msp.o(i.HAL_SAI_MspInit) refers to main.o(i.Error_Handler) for Error_Handler
    stm32f4xx_hal_msp.o(i.HAL_SAI_MspInit) refers to stm32f4xx_hal_msp.o(.data) for SAI1_client
    stm32f4xx_hal_msp.o(i.HAL_SAI_MspInit) refers to main.o(.bss) for hdma_sai1_a
    stm32f4xx_hal_msp.o(i.HAL_SPI_MspDeInit) refers to stm32f4xx_hal_gpio.o(i.HAL_GPIO_DeInit) for HAL_GPIO_DeInit
    stm32f4xx_hal_msp.o(i.HAL_SPI_MspDeInit) refers to stm32f4xx_hal_cortex.o(i.HAL_NVIC_DisableIRQ) for HAL_NVIC_DisableIRQ
    stm32f4xx_hal_msp.o(i.HAL_SPI_MspInit) refers to memseta.o(.text) for __aeabi_memclr4
    stm32f4xx_hal_msp.o(i.HAL_SPI_MspInit) refers to stm32f4xx_hal_gpio.o(i.HAL_GPIO_Init) for HAL_GPIO_Init
    stm32f4xx_hal_msp.o(i.HAL_SPI_MspInit) refers to stm32f4xx_hal_cortex.o(i.HAL_NVIC_SetPriority) for HAL_NVIC_SetPriority
    stm32f4xx_hal_msp.o(i.HAL_SPI_MspInit) refers to stm32f4xx_hal_cortex.o(i.HAL_NVIC_EnableIRQ) for HAL_NVIC_EnableIRQ
    stm32f4xx_hal_i2s.o(i.HAL_I2S_DMAStop) refers to stm32f4xx_hal_dma.o(i.HAL_DMA_Abort) for HAL_DMA_Abort
    stm32f4xx_hal_i2s.o(i.HAL_I2S_DMAStop) refers to stm32f4xx_hal_i2s.o(i.I2S_WaitFlagStateUntilTimeout) for I2S_WaitFlagStateUntilTimeout
    stm32f4xx_hal_i2s.o(i.HAL_I2S_DMAStop) refers to stm32f4xx_hal.o(i.HAL_GetTick) for HAL_GetTick
    stm32f4xx_hal_i2s.o(i.HAL_I2S_DeInit) refers to stm32f4xx_hal_msp.o(i.HAL_I2S_MspDeInit) for HAL_I2S_MspDeInit
    stm32f4xx_hal_i2s.o(i.HAL_I2S_Init) refers to stm32f4xx_hal_msp.o(i.HAL_I2S_MspInit) for HAL_I2S_MspInit
    stm32f4xx_hal_i2s.o(i.HAL_I2S_Init) refers to stm32f4xx_hal_rcc_ex.o(i.HAL_RCCEx_GetPeriphCLKFreq) for HAL_RCCEx_GetPeriphCLKFreq
    stm32f4xx_hal_i2s.o(i.HAL_I2S_Init) refers to stm32f4xx_hal_i2s.o(i.I2S_IRQHandler) for I2S_IRQHandler
    stm32f4xx_hal_i2s.o(i.HAL_I2S_Init) refers to stm32f4xx_hal_i2s_ex.o(i.HAL_I2SEx_FullDuplex_IRQHandler) for HAL_I2SEx_FullDuplex_IRQHandler
    stm32f4xx_hal_i2s.o(i.HAL_I2S_Receive) refers to stm32f4xx_hal_i2s.o(i.I2S_WaitFlagStateUntilTimeout) for I2S_WaitFlagStateUntilTimeout
    stm32f4xx_hal_i2s.o(i.HAL_I2S_Receive_DMA) refers to stm32f4xx_hal_dma.o(i.HAL_DMA_Start_IT) for HAL_DMA_Start_IT
    stm32f4xx_hal_i2s.o(i.HAL_I2S_Receive_DMA) refers to stm32f4xx_hal_i2s.o(i.I2S_DMARxHalfCplt) for I2S_DMARxHalfCplt
    stm32f4xx_hal_i2s.o(i.HAL_I2S_Receive_DMA) refers to stm32f4xx_hal_i2s.o(i.I2S_DMARxCplt) for I2S_DMARxCplt
    stm32f4xx_hal_i2s.o(i.HAL_I2S_Receive_DMA) refers to stm32f4xx_hal_i2s.o(i.I2S_DMAError) for I2S_DMAError
    stm32f4xx_hal_i2s.o(i.HAL_I2S_Transmit) refers to stm32f4xx_hal_i2s.o(i.I2S_WaitFlagStateUntilTimeout) for I2S_WaitFlagStateUntilTimeout
    stm32f4xx_hal_i2s.o(i.HAL_I2S_Transmit_DMA) refers to stm32f4xx_hal_dma.o(i.HAL_DMA_Start_IT) for HAL_DMA_Start_IT
    stm32f4xx_hal_i2s.o(i.HAL_I2S_Transmit_DMA) refers to stm32f4xx_hal_i2s.o(i.I2S_DMATxHalfCplt) for I2S_DMATxHalfCplt
    stm32f4xx_hal_i2s.o(i.HAL_I2S_Transmit_DMA) refers to stm32f4xx_hal_i2s.o(i.I2S_DMATxCplt) for I2S_DMATxCplt
    stm32f4xx_hal_i2s.o(i.HAL_I2S_Transmit_DMA) refers to stm32f4xx_hal_i2s.o(i.I2S_DMAError) for I2S_DMAError
    stm32f4xx_hal_i2s.o(i.I2S_DMAError) refers to audio_in_out.o(i.HAL_I2S_ErrorCallback) for HAL_I2S_ErrorCallback
    stm32f4xx_hal_i2s.o(i.I2S_DMARxCplt) refers to stm32f4xx_hal_i2s.o(i.HAL_I2S_RxCpltCallback) for HAL_I2S_RxCpltCallback
    stm32f4xx_hal_i2s.o(i.I2S_DMARxHalfCplt) refers to stm32f4xx_hal_i2s.o(i.HAL_I2S_RxHalfCpltCallback) for HAL_I2S_RxHalfCpltCallback
    stm32f4xx_hal_i2s.o(i.I2S_DMATxCplt) refers to stm32f4xx_hal_i2s.o(i.HAL_I2S_TxCpltCallback) for HAL_I2S_TxCpltCallback
    stm32f4xx_hal_i2s.o(i.I2S_DMATxHalfCplt) refers to stm32f4xx_hal_i2s.o(i.HAL_I2S_TxHalfCpltCallback) for HAL_I2S_TxHalfCpltCallback
    stm32f4xx_hal_i2s.o(i.I2S_IRQHandler) refers to stm32f4xx_hal_i2s.o(i.I2S_Receive_IT) for I2S_Receive_IT
    stm32f4xx_hal_i2s.o(i.I2S_IRQHandler) refers to audio_in_out.o(i.HAL_I2S_ErrorCallback) for HAL_I2S_ErrorCallback
    stm32f4xx_hal_i2s.o(i.I2S_IRQHandler) refers to stm32f4xx_hal_i2s.o(i.I2S_Transmit_IT) for I2S_Transmit_IT
    stm32f4xx_hal_i2s.o(i.I2S_Receive_IT) refers to stm32f4xx_hal_i2s.o(i.HAL_I2S_RxCpltCallback) for HAL_I2S_RxCpltCallback
    stm32f4xx_hal_i2s.o(i.I2S_Transmit_IT) refers to stm32f4xx_hal_i2s.o(i.HAL_I2S_TxCpltCallback) for HAL_I2S_TxCpltCallback
    stm32f4xx_hal_i2s.o(i.I2S_WaitFlagStateUntilTimeout) refers to stm32f4xx_hal.o(i.HAL_GetTick) for HAL_GetTick
    stm32f4xx_hal_i2s_ex.o(i.HAL_I2SEx_FullDuplex_IRQHandler) refers to stm32f4xx_hal_i2s_ex.o(i.I2SEx_TxISR_I2S) for I2SEx_TxISR_I2S
    stm32f4xx_hal_i2s_ex.o(i.HAL_I2SEx_FullDuplex_IRQHandler) refers to stm32f4xx_hal_i2s_ex.o(i.I2SEx_RxISR_I2SExt) for I2SEx_RxISR_I2SExt
    stm32f4xx_hal_i2s_ex.o(i.HAL_I2SEx_FullDuplex_IRQHandler) refers to audio_in_out.o(i.HAL_I2S_ErrorCallback) for HAL_I2S_ErrorCallback
    stm32f4xx_hal_i2s_ex.o(i.HAL_I2SEx_FullDuplex_IRQHandler) refers to stm32f4xx_hal_i2s_ex.o(i.I2SEx_TxISR_I2SExt) for I2SEx_TxISR_I2SExt
    stm32f4xx_hal_i2s_ex.o(i.HAL_I2SEx_FullDuplex_IRQHandler) refers to stm32f4xx_hal_i2s_ex.o(i.I2SEx_RxISR_I2S) for I2SEx_RxISR_I2S
    stm32f4xx_hal_i2s_ex.o(i.HAL_I2SEx_TransmitReceive) refers to stm32f4xx_hal_i2s_ex.o(i.I2SEx_FullDuplexWaitFlagStateUntilTimeout) for I2SEx_FullDuplexWaitFlagStateUntilTimeout
    stm32f4xx_hal_i2s_ex.o(i.HAL_I2SEx_TransmitReceive_DMA) refers to stm32f4xx_hal_dma.o(i.HAL_DMA_Start_IT) for HAL_DMA_Start_IT
    stm32f4xx_hal_i2s_ex.o(i.HAL_I2SEx_TransmitReceive_DMA) refers to stm32f4xx_hal_i2s_ex.o(i.I2SEx_TxRxDMAHalfCplt) for I2SEx_TxRxDMAHalfCplt
    stm32f4xx_hal_i2s_ex.o(i.HAL_I2SEx_TransmitReceive_DMA) refers to stm32f4xx_hal_i2s_ex.o(i.I2SEx_TxRxDMACplt) for I2SEx_TxRxDMACplt
    stm32f4xx_hal_i2s_ex.o(i.HAL_I2SEx_TransmitReceive_DMA) refers to stm32f4xx_hal_i2s_ex.o(i.I2SEx_TxRxDMAError) for I2SEx_TxRxDMAError
    stm32f4xx_hal_i2s_ex.o(i.I2SEx_FullDuplexWaitFlagStateUntilTimeout) refers to stm32f4xx_hal.o(i.HAL_GetTick) for HAL_GetTick
    stm32f4xx_hal_i2s_ex.o(i.I2SEx_RxISR_I2S) refers to stm32f4xx_hal_i2s_ex.o(i.HAL_I2SEx_TxRxCpltCallback) for HAL_I2SEx_TxRxCpltCallback
    stm32f4xx_hal_i2s_ex.o(i.I2SEx_RxISR_I2SExt) refers to stm32f4xx_hal_i2s_ex.o(i.HAL_I2SEx_TxRxCpltCallback) for HAL_I2SEx_TxRxCpltCallback
    stm32f4xx_hal_i2s_ex.o(i.I2SEx_TxISR_I2S) refers to stm32f4xx_hal_i2s_ex.o(i.HAL_I2SEx_TxRxCpltCallback) for HAL_I2SEx_TxRxCpltCallback
    stm32f4xx_hal_i2s_ex.o(i.I2SEx_TxISR_I2SExt) refers to stm32f4xx_hal_i2s_ex.o(i.HAL_I2SEx_TxRxCpltCallback) for HAL_I2SEx_TxRxCpltCallback
    stm32f4xx_hal_i2s_ex.o(i.I2SEx_TxRxDMACplt) refers to stm32f4xx_hal_i2s_ex.o(i.HAL_I2SEx_TxRxCpltCallback) for HAL_I2SEx_TxRxCpltCallback
    stm32f4xx_hal_i2s_ex.o(i.I2SEx_TxRxDMAError) refers to audio_in_out.o(i.HAL_I2S_ErrorCallback) for HAL_I2S_ErrorCallback
    stm32f4xx_hal_i2s_ex.o(i.I2SEx_TxRxDMAHalfCplt) refers to audio_in_out.o(i.HAL_I2SEx_TxRxHalfCpltCallback) for HAL_I2SEx_TxRxHalfCpltCallback
    stm32f4xx_hal_rcc.o(i.HAL_RCC_ClockConfig) refers to stm32f4xx_hal.o(i.HAL_GetTick) for HAL_GetTick
    stm32f4xx_hal_rcc.o(i.HAL_RCC_ClockConfig) refers to stm32f4xx_hal_rcc.o(i.HAL_RCC_GetSysClockFreq) for HAL_RCC_GetSysClockFreq
    stm32f4xx_hal_rcc.o(i.HAL_RCC_ClockConfig) refers to stm32f4xx_hal.o(i.HAL_InitTick) for HAL_InitTick
    stm32f4xx_hal_rcc.o(i.HAL_RCC_ClockConfig) refers to system_stm32f4xx.o(.constdata) for AHBPrescTable
    stm32f4xx_hal_rcc.o(i.HAL_RCC_ClockConfig) refers to system_stm32f4xx.o(.data) for SystemCoreClock
    stm32f4xx_hal_rcc.o(i.HAL_RCC_ClockConfig) refers to stm32f4xx_hal.o(.data) for uwTickPrio
    stm32f4xx_hal_rcc.o(i.HAL_RCC_GetHCLKFreq) refers to system_stm32f4xx.o(.data) for SystemCoreClock
    stm32f4xx_hal_rcc.o(i.HAL_RCC_GetPCLK1Freq) refers to stm32f4xx_hal_rcc.o(i.HAL_RCC_GetHCLKFreq) for HAL_RCC_GetHCLKFreq
    stm32f4xx_hal_rcc.o(i.HAL_RCC_GetPCLK1Freq) refers to system_stm32f4xx.o(.constdata) for APBPrescTable
    stm32f4xx_hal_rcc.o(i.HAL_RCC_GetPCLK2Freq) refers to stm32f4xx_hal_rcc.o(i.HAL_RCC_GetHCLKFreq) for HAL_RCC_GetHCLKFreq
    stm32f4xx_hal_rcc.o(i.HAL_RCC_GetPCLK2Freq) refers to system_stm32f4xx.o(.constdata) for APBPrescTable
    stm32f4xx_hal_rcc.o(i.HAL_RCC_GetSysClockFreq) refers to uldiv.o(.text) for __aeabi_uldivmod
    stm32f4xx_hal_rcc.o(i.HAL_RCC_MCOConfig) refers to stm32f4xx_hal_gpio.o(i.HAL_GPIO_Init) for HAL_GPIO_Init
    stm32f4xx_hal_rcc.o(i.HAL_RCC_NMI_IRQHandler) refers to stm32f4xx_hal_rcc.o(i.HAL_RCC_CSSCallback) for HAL_RCC_CSSCallback
    stm32f4xx_hal_rcc.o(i.HAL_RCC_OscConfig) refers to stm32f4xx_hal.o(i.HAL_GetTick) for HAL_GetTick
    stm32f4xx_hal_rcc_ex.o(i.HAL_RCCEx_DisablePLLI2S) refers to stm32f4xx_hal.o(i.HAL_GetTick) for HAL_GetTick
    stm32f4xx_hal_rcc_ex.o(i.HAL_RCCEx_DisablePLLSAI) refers to stm32f4xx_hal.o(i.HAL_GetTick) for HAL_GetTick
    stm32f4xx_hal_rcc_ex.o(i.HAL_RCCEx_EnablePLLI2S) refers to stm32f4xx_hal.o(i.HAL_GetTick) for HAL_GetTick
    stm32f4xx_hal_rcc_ex.o(i.HAL_RCCEx_EnablePLLSAI) refers to stm32f4xx_hal.o(i.HAL_GetTick) for HAL_GetTick
    stm32f4xx_hal_rcc_ex.o(i.HAL_RCCEx_PeriphCLKConfig) refers to stm32f4xx_hal.o(i.HAL_GetTick) for HAL_GetTick
    stm32f4xx_hal_rcc_ex.o(i.HAL_RCC_DeInit) refers to stm32f4xx_hal.o(i.HAL_GetTick) for HAL_GetTick
    stm32f4xx_hal_rcc_ex.o(i.HAL_RCC_DeInit) refers to stm32f4xx_hal.o(i.HAL_InitTick) for HAL_InitTick
    stm32f4xx_hal_rcc_ex.o(i.HAL_RCC_DeInit) refers to system_stm32f4xx.o(.data) for SystemCoreClock
    stm32f4xx_hal_rcc_ex.o(i.HAL_RCC_DeInit) refers to stm32f4xx_hal.o(.data) for uwTickPrio
    stm32f4xx_hal_flash.o(i.FLASH_SetErrorCode) refers to stm32f4xx_hal_flash.o(.bss) for pFlash
    stm32f4xx_hal_flash.o(i.FLASH_WaitForLastOperation) refers to stm32f4xx_hal.o(i.HAL_GetTick) for HAL_GetTick
    stm32f4xx_hal_flash.o(i.FLASH_WaitForLastOperation) refers to stm32f4xx_hal_flash.o(i.FLASH_SetErrorCode) for FLASH_SetErrorCode
    stm32f4xx_hal_flash.o(i.FLASH_WaitForLastOperation) refers to stm32f4xx_hal_flash.o(.bss) for pFlash
    stm32f4xx_hal_flash.o(i.HAL_FLASH_GetError) refers to stm32f4xx_hal_flash.o(.bss) for pFlash
    stm32f4xx_hal_flash.o(i.HAL_FLASH_IRQHandler) refers to stm32f4xx_hal_flash.o(i.FLASH_SetErrorCode) for FLASH_SetErrorCode
    stm32f4xx_hal_flash.o(i.HAL_FLASH_IRQHandler) refers to stm32f4xx_hal_flash.o(i.HAL_FLASH_OperationErrorCallback) for HAL_FLASH_OperationErrorCallback
    stm32f4xx_hal_flash.o(i.HAL_FLASH_IRQHandler) refers to stm32f4xx_hal_flash.o(i.HAL_FLASH_EndOfOperationCallback) for HAL_FLASH_EndOfOperationCallback
    stm32f4xx_hal_flash.o(i.HAL_FLASH_IRQHandler) refers to stm32f4xx_hal_flash_ex.o(i.FLASH_Erase_Sector) for FLASH_Erase_Sector
    stm32f4xx_hal_flash.o(i.HAL_FLASH_IRQHandler) refers to stm32f4xx_hal_flash_ex.o(i.FLASH_FlushCaches) for FLASH_FlushCaches
    stm32f4xx_hal_flash.o(i.HAL_FLASH_IRQHandler) refers to stm32f4xx_hal_flash.o(.bss) for pFlash
    stm32f4xx_hal_flash.o(i.HAL_FLASH_OB_Launch) refers to stm32f4xx_hal_flash.o(i.FLASH_WaitForLastOperation) for FLASH_WaitForLastOperation
    stm32f4xx_hal_flash.o(i.HAL_FLASH_Program) refers to stm32f4xx_hal_flash.o(i.FLASH_WaitForLastOperation) for FLASH_WaitForLastOperation
    stm32f4xx_hal_flash.o(i.HAL_FLASH_Program) refers to stm32f4xx_hal_flash.o(i.FLASH_Program_Byte) for FLASH_Program_Byte
    stm32f4xx_hal_flash.o(i.HAL_FLASH_Program) refers to stm32f4xx_hal_flash.o(i.FLASH_Program_HalfWord) for FLASH_Program_HalfWord
    stm32f4xx_hal_flash.o(i.HAL_FLASH_Program) refers to stm32f4xx_hal_flash.o(i.FLASH_Program_Word) for FLASH_Program_Word
    stm32f4xx_hal_flash.o(i.HAL_FLASH_Program) refers to stm32f4xx_hal_flash.o(i.FLASH_Program_DoubleWord) for FLASH_Program_DoubleWord
    stm32f4xx_hal_flash.o(i.HAL_FLASH_Program) refers to stm32f4xx_hal_flash.o(.bss) for pFlash
    stm32f4xx_hal_flash.o(i.HAL_FLASH_Program_IT) refers to stm32f4xx_hal_flash.o(i.FLASH_Program_Byte) for FLASH_Program_Byte
    stm32f4xx_hal_flash.o(i.HAL_FLASH_Program_IT) refers to stm32f4xx_hal_flash.o(i.FLASH_Program_HalfWord) for FLASH_Program_HalfWord
    stm32f4xx_hal_flash.o(i.HAL_FLASH_Program_IT) refers to stm32f4xx_hal_flash.o(i.FLASH_Program_Word) for FLASH_Program_Word
    stm32f4xx_hal_flash.o(i.HAL_FLASH_Program_IT) refers to stm32f4xx_hal_flash.o(i.FLASH_Program_DoubleWord) for FLASH_Program_DoubleWord
    stm32f4xx_hal_flash.o(i.HAL_FLASH_Program_IT) refers to stm32f4xx_hal_flash.o(.bss) for pFlash
    stm32f4xx_hal_flash_ex.o(i.FLASH_OB_BootConfig) refers to stm32f4xx_hal_flash.o(i.FLASH_WaitForLastOperation) for FLASH_WaitForLastOperation
    stm32f4xx_hal_flash_ex.o(i.FLASH_OB_DisablePCROP) refers to stm32f4xx_hal_flash.o(i.FLASH_WaitForLastOperation) for FLASH_WaitForLastOperation
    stm32f4xx_hal_flash_ex.o(i.FLASH_OB_DisableWRP) refers to stm32f4xx_hal_flash.o(i.FLASH_WaitForLastOperation) for FLASH_WaitForLastOperation
    stm32f4xx_hal_flash_ex.o(i.FLASH_OB_EnablePCROP) refers to stm32f4xx_hal_flash.o(i.FLASH_WaitForLastOperation) for FLASH_WaitForLastOperation
    stm32f4xx_hal_flash_ex.o(i.FLASH_OB_EnableWRP) refers to stm32f4xx_hal_flash.o(i.FLASH_WaitForLastOperation) for FLASH_WaitForLastOperation
    stm32f4xx_hal_flash_ex.o(i.FLASH_OB_RDP_LevelConfig) refers to stm32f4xx_hal_flash.o(i.FLASH_WaitForLastOperation) for FLASH_WaitForLastOperation
    stm32f4xx_hal_flash_ex.o(i.FLASH_OB_UserConfig) refers to stm32f4xx_hal_flash.o(i.FLASH_WaitForLastOperation) for FLASH_WaitForLastOperation
    stm32f4xx_hal_flash_ex.o(i.HAL_FLASHEx_AdvOBProgram) refers to stm32f4xx_hal_flash_ex.o(i.FLASH_OB_EnablePCROP) for FLASH_OB_EnablePCROP
    stm32f4xx_hal_flash_ex.o(i.HAL_FLASHEx_AdvOBProgram) refers to stm32f4xx_hal_flash_ex.o(i.FLASH_OB_DisablePCROP) for FLASH_OB_DisablePCROP
    stm32f4xx_hal_flash_ex.o(i.HAL_FLASHEx_AdvOBProgram) refers to stm32f4xx_hal_flash_ex.o(i.FLASH_OB_BootConfig) for FLASH_OB_BootConfig
    stm32f4xx_hal_flash_ex.o(i.HAL_FLASHEx_Erase) refers to stm32f4xx_hal_flash.o(i.FLASH_WaitForLastOperation) for FLASH_WaitForLastOperation
    stm32f4xx_hal_flash_ex.o(i.HAL_FLASHEx_Erase) refers to stm32f4xx_hal_flash_ex.o(i.FLASH_MassErase) for FLASH_MassErase
    stm32f4xx_hal_flash_ex.o(i.HAL_FLASHEx_Erase) refers to stm32f4xx_hal_flash_ex.o(i.FLASH_Erase_Sector) for FLASH_Erase_Sector
    stm32f4xx_hal_flash_ex.o(i.HAL_FLASHEx_Erase) refers to stm32f4xx_hal_flash_ex.o(i.FLASH_FlushCaches) for FLASH_FlushCaches
    stm32f4xx_hal_flash_ex.o(i.HAL_FLASHEx_Erase) refers to stm32f4xx_hal_flash.o(.bss) for pFlash
    stm32f4xx_hal_flash_ex.o(i.HAL_FLASHEx_Erase_IT) refers to stm32f4xx_hal_flash_ex.o(i.FLASH_MassErase) for FLASH_MassErase
    stm32f4xx_hal_flash_ex.o(i.HAL_FLASHEx_Erase_IT) refers to stm32f4xx_hal_flash_ex.o(i.FLASH_Erase_Sector) for FLASH_Erase_Sector
    stm32f4xx_hal_flash_ex.o(i.HAL_FLASHEx_Erase_IT) refers to stm32f4xx_hal_flash.o(.bss) for pFlash
    stm32f4xx_hal_flash_ex.o(i.HAL_FLASHEx_OBGetConfig) refers to stm32f4xx_hal_flash_ex.o(i.FLASH_OB_GetWRP) for FLASH_OB_GetWRP
    stm32f4xx_hal_flash_ex.o(i.HAL_FLASHEx_OBGetConfig) refers to stm32f4xx_hal_flash_ex.o(i.FLASH_OB_GetRDP) for FLASH_OB_GetRDP
    stm32f4xx_hal_flash_ex.o(i.HAL_FLASHEx_OBGetConfig) refers to stm32f4xx_hal_flash_ex.o(i.FLASH_OB_GetUser) for FLASH_OB_GetUser
    stm32f4xx_hal_flash_ex.o(i.HAL_FLASHEx_OBGetConfig) refers to stm32f4xx_hal_flash_ex.o(i.FLASH_OB_GetBOR) for FLASH_OB_GetBOR
    stm32f4xx_hal_flash_ex.o(i.HAL_FLASHEx_OBProgram) refers to stm32f4xx_hal_flash_ex.o(i.FLASH_OB_EnableWRP) for FLASH_OB_EnableWRP
    stm32f4xx_hal_flash_ex.o(i.HAL_FLASHEx_OBProgram) refers to stm32f4xx_hal_flash_ex.o(i.FLASH_OB_DisableWRP) for FLASH_OB_DisableWRP
    stm32f4xx_hal_flash_ex.o(i.HAL_FLASHEx_OBProgram) refers to stm32f4xx_hal_flash_ex.o(i.FLASH_OB_RDP_LevelConfig) for FLASH_OB_RDP_LevelConfig
    stm32f4xx_hal_flash_ex.o(i.HAL_FLASHEx_OBProgram) refers to stm32f4xx_hal_flash_ex.o(i.FLASH_OB_UserConfig) for FLASH_OB_UserConfig
    stm32f4xx_hal_flash_ex.o(i.HAL_FLASHEx_OBProgram) refers to stm32f4xx_hal_flash_ex.o(i.FLASH_OB_BOR_LevelConfig) for FLASH_OB_BOR_LevelConfig
    stm32f4xx_hal_flash_ex.o(i.HAL_FLASHEx_OBProgram) refers to stm32f4xx_hal_flash.o(.bss) for pFlash
    stm32f4xx_hal_gpio.o(i.HAL_GPIO_EXTI_IRQHandler) refers to stm32f4xx_hal_gpio.o(i.HAL_GPIO_EXTI_Callback) for HAL_GPIO_EXTI_Callback
    stm32f4xx_hal_dma_ex.o(i.HAL_DMAEx_MultiBufferStart) refers to stm32f4xx_hal_dma_ex.o(i.DMA_MultiBufferSetConfig) for DMA_MultiBufferSetConfig
    stm32f4xx_hal_dma_ex.o(i.HAL_DMAEx_MultiBufferStart_IT) refers to stm32f4xx_hal_dma_ex.o(i.DMA_MultiBufferSetConfig) for DMA_MultiBufferSetConfig
    stm32f4xx_hal_dma.o(i.DMA_CalcBaseAndBitshift) refers to stm32f4xx_hal_dma.o(.constdata) for flagBitshiftOffset
    stm32f4xx_hal_dma.o(i.HAL_DMA_Abort) refers to stm32f4xx_hal.o(i.HAL_GetTick) for HAL_GetTick
    stm32f4xx_hal_dma.o(i.HAL_DMA_DeInit) refers to stm32f4xx_hal_dma.o(i.DMA_CalcBaseAndBitshift) for DMA_CalcBaseAndBitshift
    stm32f4xx_hal_dma.o(i.HAL_DMA_IRQHandler) refers to system_stm32f4xx.o(.data) for SystemCoreClock
    stm32f4xx_hal_dma.o(i.HAL_DMA_Init) refers to stm32f4xx_hal.o(i.HAL_GetTick) for HAL_GetTick
    stm32f4xx_hal_dma.o(i.HAL_DMA_Init) refers to stm32f4xx_hal_dma.o(i.DMA_CheckFifoParam) for DMA_CheckFifoParam
    stm32f4xx_hal_dma.o(i.HAL_DMA_Init) refers to stm32f4xx_hal_dma.o(i.DMA_CalcBaseAndBitshift) for DMA_CalcBaseAndBitshift
    stm32f4xx_hal_dma.o(i.HAL_DMA_PollForTransfer) refers to stm32f4xx_hal.o(i.HAL_GetTick) for HAL_GetTick
    stm32f4xx_hal_dma.o(i.HAL_DMA_PollForTransfer) refers to stm32f4xx_hal_dma.o(i.HAL_DMA_Abort) for HAL_DMA_Abort
    stm32f4xx_hal_dma.o(i.HAL_DMA_Start) refers to stm32f4xx_hal_dma.o(i.DMA_SetConfig) for DMA_SetConfig
    stm32f4xx_hal_dma.o(i.HAL_DMA_Start_IT) refers to stm32f4xx_hal_dma.o(i.DMA_SetConfig) for DMA_SetConfig
    stm32f4xx_hal_pwr.o(i.HAL_PWR_PVD_IRQHandler) refers to stm32f4xx_hal_pwr.o(i.HAL_PWR_PVDCallback) for HAL_PWR_PVDCallback
    stm32f4xx_hal_pwr_ex.o(i.HAL_PWREx_ControlVoltageScaling) refers to stm32f4xx_hal.o(i.HAL_GetTick) for HAL_GetTick
    stm32f4xx_hal_pwr_ex.o(i.HAL_PWREx_DisableBkUpReg) refers to stm32f4xx_hal.o(i.HAL_GetTick) for HAL_GetTick
    stm32f4xx_hal_pwr_ex.o(i.HAL_PWREx_DisableOverDrive) refers to stm32f4xx_hal.o(i.HAL_GetTick) for HAL_GetTick
    stm32f4xx_hal_pwr_ex.o(i.HAL_PWREx_EnableBkUpReg) refers to stm32f4xx_hal.o(i.HAL_GetTick) for HAL_GetTick
    stm32f4xx_hal_pwr_ex.o(i.HAL_PWREx_EnableOverDrive) refers to stm32f4xx_hal.o(i.HAL_GetTick) for HAL_GetTick
    stm32f4xx_hal_cortex.o(i.HAL_NVIC_GetPriorityGrouping) refers to stm32f4xx_hal_cortex.o(i.__NVIC_GetPriorityGrouping) for __NVIC_GetPriorityGrouping
    stm32f4xx_hal_cortex.o(i.HAL_NVIC_SetPriority) refers to stm32f4xx_hal_cortex.o(i.__NVIC_GetPriorityGrouping) for __NVIC_GetPriorityGrouping
    stm32f4xx_hal_cortex.o(i.HAL_NVIC_SetPriority) refers to stm32f4xx_hal_cortex.o(i.__NVIC_SetPriority) for __NVIC_SetPriority
    stm32f4xx_hal_cortex.o(i.HAL_SYSTICK_Config) refers to stm32f4xx_hal_cortex.o(i.__NVIC_SetPriority) for __NVIC_SetPriority
    stm32f4xx_hal_cortex.o(i.HAL_SYSTICK_IRQHandler) refers to stm32f4xx_hal_cortex.o(i.HAL_SYSTICK_Callback) for HAL_SYSTICK_Callback
    stm32f4xx_hal.o(i.HAL_DeInit) refers to stm32f4xx_hal.o(i.HAL_MspDeInit) for HAL_MspDeInit
    stm32f4xx_hal.o(i.HAL_Delay) refers to stm32f4xx_hal.o(i.HAL_GetTick) for HAL_GetTick
    stm32f4xx_hal.o(i.HAL_Delay) refers to stm32f4xx_hal.o(.data) for uwTickFreq
    stm32f4xx_hal.o(i.HAL_GetTick) refers to stm32f4xx_hal.o(.data) for uwTick
    stm32f4xx_hal.o(i.HAL_GetTickFreq) refers to stm32f4xx_hal.o(.data) for uwTickFreq
    stm32f4xx_hal.o(i.HAL_GetTickPrio) refers to stm32f4xx_hal.o(.data) for uwTickPrio
    stm32f4xx_hal.o(i.HAL_IncTick) refers to stm32f4xx_hal.o(.data) for uwTick
    stm32f4xx_hal.o(i.HAL_Init) refers to stm32f4xx_hal_cortex.o(i.HAL_NVIC_SetPriorityGrouping) for HAL_NVIC_SetPriorityGrouping
    stm32f4xx_hal.o(i.HAL_Init) refers to stm32f4xx_hal.o(i.HAL_InitTick) for HAL_InitTick
    stm32f4xx_hal.o(i.HAL_Init) refers to stm32f4xx_hal_msp.o(i.HAL_MspInit) for HAL_MspInit
    stm32f4xx_hal.o(i.HAL_InitTick) refers to stm32f4xx_hal_cortex.o(i.HAL_SYSTICK_Config) for HAL_SYSTICK_Config
    stm32f4xx_hal.o(i.HAL_InitTick) refers to stm32f4xx_hal_cortex.o(i.HAL_NVIC_SetPriority) for HAL_NVIC_SetPriority
    stm32f4xx_hal.o(i.HAL_InitTick) refers to stm32f4xx_hal.o(.data) for uwTickFreq
    stm32f4xx_hal.o(i.HAL_InitTick) refers to system_stm32f4xx.o(.data) for SystemCoreClock
    stm32f4xx_hal.o(i.HAL_SetTickFreq) refers to stm32f4xx_hal.o(i.HAL_InitTick) for HAL_InitTick
    stm32f4xx_hal.o(i.HAL_SetTickFreq) refers to stm32f4xx_hal.o(.data) for uwTickFreq
    stm32f4xx_ll_rcc.o(i.LL_RCC_DeInit) refers to stm32f4xx_ll_rcc.o(i.LL_RCC_PLL_IsReady) for LL_RCC_PLL_IsReady
    stm32f4xx_ll_rcc.o(i.LL_RCC_GetI2SClockFreq) refers to stm32f4xx_ll_rcc.o(i.LL_RCC_PLLI2S_IsReady) for LL_RCC_PLLI2S_IsReady
    stm32f4xx_ll_rcc.o(i.LL_RCC_GetI2SClockFreq) refers to stm32f4xx_ll_rcc.o(i.RCC_PLLI2S_GetFreqDomain_I2S) for RCC_PLLI2S_GetFreqDomain_I2S
    stm32f4xx_ll_rcc.o(i.LL_RCC_GetLTDCClockFreq) refers to stm32f4xx_ll_rcc.o(i.LL_RCC_PLLSAI_IsReady) for LL_RCC_PLLSAI_IsReady
    stm32f4xx_ll_rcc.o(i.LL_RCC_GetLTDCClockFreq) refers to stm32f4xx_ll_rcc.o(i.RCC_PLLSAI_GetFreqDomain_LTDC) for RCC_PLLSAI_GetFreqDomain_LTDC
    stm32f4xx_ll_rcc.o(i.LL_RCC_GetRNGClockFreq) refers to stm32f4xx_ll_rcc.o(i.LL_RCC_PLL_IsReady) for LL_RCC_PLL_IsReady
    stm32f4xx_ll_rcc.o(i.LL_RCC_GetRNGClockFreq) refers to stm32f4xx_ll_rcc.o(i.RCC_PLL_GetFreqDomain_48M) for RCC_PLL_GetFreqDomain_48M
    stm32f4xx_ll_rcc.o(i.LL_RCC_GetSAIClockFreq) refers to stm32f4xx_ll_rcc.o(i.LL_RCC_PLLSAI_IsReady) for LL_RCC_PLLSAI_IsReady
    stm32f4xx_ll_rcc.o(i.LL_RCC_GetSAIClockFreq) refers to stm32f4xx_ll_rcc.o(i.RCC_PLLSAI_GetFreqDomain_SAI) for RCC_PLLSAI_GetFreqDomain_SAI
    stm32f4xx_ll_rcc.o(i.LL_RCC_GetSAIClockFreq) refers to stm32f4xx_ll_rcc.o(i.LL_RCC_PLLI2S_IsReady) for LL_RCC_PLLI2S_IsReady
    stm32f4xx_ll_rcc.o(i.LL_RCC_GetSAIClockFreq) refers to stm32f4xx_ll_rcc.o(i.RCC_PLLI2S_GetFreqDomain_SAI) for RCC_PLLI2S_GetFreqDomain_SAI
    stm32f4xx_ll_rcc.o(i.LL_RCC_GetSDIOClockFreq) refers to stm32f4xx_ll_rcc.o(i.LL_RCC_PLL_IsReady) for LL_RCC_PLL_IsReady
    stm32f4xx_ll_rcc.o(i.LL_RCC_GetSDIOClockFreq) refers to stm32f4xx_ll_rcc.o(i.RCC_PLL_GetFreqDomain_48M) for RCC_PLL_GetFreqDomain_48M
    stm32f4xx_ll_rcc.o(i.LL_RCC_GetSystemClocksFreq) refers to stm32f4xx_ll_rcc.o(i.RCC_GetSystemClockFreq) for RCC_GetSystemClockFreq
    stm32f4xx_ll_rcc.o(i.LL_RCC_GetSystemClocksFreq) refers to stm32f4xx_ll_rcc.o(i.RCC_GetHCLKClockFreq) for RCC_GetHCLKClockFreq
    stm32f4xx_ll_rcc.o(i.LL_RCC_GetSystemClocksFreq) refers to stm32f4xx_ll_rcc.o(i.RCC_GetPCLK1ClockFreq) for RCC_GetPCLK1ClockFreq
    stm32f4xx_ll_rcc.o(i.LL_RCC_GetSystemClocksFreq) refers to stm32f4xx_ll_rcc.o(i.RCC_GetPCLK2ClockFreq) for RCC_GetPCLK2ClockFreq
    stm32f4xx_ll_rcc.o(i.LL_RCC_GetUSBClockFreq) refers to stm32f4xx_ll_rcc.o(i.LL_RCC_PLL_IsReady) for LL_RCC_PLL_IsReady
    stm32f4xx_ll_rcc.o(i.LL_RCC_GetUSBClockFreq) refers to stm32f4xx_ll_rcc.o(i.RCC_PLL_GetFreqDomain_48M) for RCC_PLL_GetFreqDomain_48M
    stm32f4xx_ll_rcc.o(i.RCC_GetHCLKClockFreq) refers to system_stm32f4xx.o(.constdata) for AHBPrescTable
    stm32f4xx_ll_rcc.o(i.RCC_GetPCLK1ClockFreq) refers to system_stm32f4xx.o(.constdata) for APBPrescTable
    stm32f4xx_ll_rcc.o(i.RCC_GetPCLK2ClockFreq) refers to system_stm32f4xx.o(.constdata) for APBPrescTable
    stm32f4xx_ll_rcc.o(i.RCC_GetSystemClockFreq) refers to stm32f4xx_ll_rcc.o(i.RCC_PLL_GetFreqDomain_SYS) for RCC_PLL_GetFreqDomain_SYS
    stm32f4xx_ll_rcc.o(i.RCC_PLLI2S_GetFreqDomain_I2S) refers to stm32f4xx_ll_rcc.o(i.LL_RCC_PLLI2S_GetN) for LL_RCC_PLLI2S_GetN
    stm32f4xx_ll_rcc.o(i.RCC_PLLI2S_GetFreqDomain_SAI) refers to stm32f4xx_ll_rcc.o(i.LL_RCC_PLLI2S_GetN) for LL_RCC_PLLI2S_GetN
    stm32f4xx_ll_rcc.o(i.RCC_PLLSAI_GetFreqDomain_LTDC) refers to stm32f4xx_ll_rcc.o(i.LL_RCC_PLL_GetMainSource) for LL_RCC_PLL_GetMainSource
    stm32f4xx_ll_rcc.o(i.RCC_PLLSAI_GetFreqDomain_LTDC) refers to stm32f4xx_ll_rcc.o(i.LL_RCC_PLLSAI_GetN) for LL_RCC_PLLSAI_GetN
    stm32f4xx_ll_rcc.o(i.RCC_PLLSAI_GetFreqDomain_LTDC) refers to stm32f4xx_ll_rcc.o(.constdata) for aRCC_PLLSAIDIVRPrescTable
    stm32f4xx_ll_rcc.o(i.RCC_PLLSAI_GetFreqDomain_SAI) refers to stm32f4xx_ll_rcc.o(i.LL_RCC_PLL_GetMainSource) for LL_RCC_PLL_GetMainSource
    stm32f4xx_ll_rcc.o(i.RCC_PLLSAI_GetFreqDomain_SAI) refers to stm32f4xx_ll_rcc.o(i.LL_RCC_PLLSAI_GetN) for LL_RCC_PLLSAI_GetN
    stm32f4xx_ll_rcc.o(i.RCC_PLL_GetFreqDomain_48M) refers to stm32f4xx_ll_rcc.o(i.LL_RCC_PLL_GetMainSource) for LL_RCC_PLL_GetMainSource
    stm32f4xx_ll_rcc.o(i.RCC_PLL_GetFreqDomain_48M) refers to stm32f4xx_ll_rcc.o(i.LL_RCC_PLL_GetN) for LL_RCC_PLL_GetN
    stm32f4xx_ll_rcc.o(i.RCC_PLL_GetFreqDomain_SYS) refers to stm32f4xx_ll_rcc.o(i.LL_RCC_PLL_GetMainSource) for LL_RCC_PLL_GetMainSource
    stm32f4xx_ll_rcc.o(i.RCC_PLL_GetFreqDomain_SYS) refers to stm32f4xx_ll_rcc.o(i.LL_RCC_PLL_GetN) for LL_RCC_PLL_GetN
    stm32f4xx_ll_utils.o(i.LL_PLL_ConfigSystemClock_HSE) refers to stm32f4xx_ll_utils.o(i.UTILS_PLL_IsBusy) for UTILS_PLL_IsBusy
    stm32f4xx_ll_utils.o(i.LL_PLL_ConfigSystemClock_HSE) refers to stm32f4xx_ll_utils.o(i.UTILS_GetPLLOutputFrequency) for UTILS_GetPLLOutputFrequency
    stm32f4xx_ll_utils.o(i.LL_PLL_ConfigSystemClock_HSE) refers to stm32f4xx_ll_utils.o(i.LL_RCC_HSE_IsReady) for LL_RCC_HSE_IsReady
    stm32f4xx_ll_utils.o(i.LL_PLL_ConfigSystemClock_HSE) refers to stm32f4xx_ll_utils.o(i.LL_RCC_PLL_ConfigDomain_SYS) for LL_RCC_PLL_ConfigDomain_SYS
    stm32f4xx_ll_utils.o(i.LL_PLL_ConfigSystemClock_HSE) refers to stm32f4xx_ll_utils.o(i.UTILS_EnablePLLAndSwitchSystem) for UTILS_EnablePLLAndSwitchSystem
    stm32f4xx_ll_utils.o(i.LL_PLL_ConfigSystemClock_HSI) refers to stm32f4xx_ll_utils.o(i.UTILS_PLL_IsBusy) for UTILS_PLL_IsBusy
    stm32f4xx_ll_utils.o(i.LL_PLL_ConfigSystemClock_HSI) refers to stm32f4xx_ll_utils.o(i.UTILS_GetPLLOutputFrequency) for UTILS_GetPLLOutputFrequency
    stm32f4xx_ll_utils.o(i.LL_PLL_ConfigSystemClock_HSI) refers to stm32f4xx_ll_utils.o(i.LL_RCC_HSI_IsReady) for LL_RCC_HSI_IsReady
    stm32f4xx_ll_utils.o(i.LL_PLL_ConfigSystemClock_HSI) refers to stm32f4xx_ll_utils.o(i.LL_RCC_PLL_ConfigDomain_SYS) for LL_RCC_PLL_ConfigDomain_SYS
    stm32f4xx_ll_utils.o(i.LL_PLL_ConfigSystemClock_HSI) refers to stm32f4xx_ll_utils.o(i.UTILS_EnablePLLAndSwitchSystem) for UTILS_EnablePLLAndSwitchSystem
    stm32f4xx_ll_utils.o(i.LL_SetSystemCoreClock) refers to system_stm32f4xx.o(.data) for SystemCoreClock
    stm32f4xx_ll_utils.o(i.UTILS_EnablePLLAndSwitchSystem) refers to stm32f4xx_ll_utils.o(i.UTILS_SetFlashLatency) for UTILS_SetFlashLatency
    stm32f4xx_ll_utils.o(i.UTILS_EnablePLLAndSwitchSystem) refers to stm32f4xx_ll_utils.o(i.LL_RCC_PLL_IsReady) for LL_RCC_PLL_IsReady
    stm32f4xx_ll_utils.o(i.UTILS_EnablePLLAndSwitchSystem) refers to stm32f4xx_ll_utils.o(i.LL_SetSystemCoreClock) for LL_SetSystemCoreClock
    stm32f4xx_ll_utils.o(i.UTILS_EnablePLLAndSwitchSystem) refers to system_stm32f4xx.o(.constdata) for AHBPrescTable
    stm32f4xx_ll_utils.o(i.UTILS_EnablePLLAndSwitchSystem) refers to system_stm32f4xx.o(.data) for SystemCoreClock
    stm32f4xx_ll_utils.o(i.UTILS_PLL_IsBusy) refers to stm32f4xx_ll_utils.o(i.LL_RCC_PLL_IsReady) for LL_RCC_PLL_IsReady
    stm32f4xx_ll_exti.o(i.LL_EXTI_Init) refers to stm32f4xx_ll_exti.o(i.LL_EXTI_DisableEvent_0_31) for LL_EXTI_DisableEvent_0_31
    stm32f4xx_ll_exti.o(i.LL_EXTI_Init) refers to stm32f4xx_ll_exti.o(i.LL_EXTI_EnableIT_0_31) for LL_EXTI_EnableIT_0_31
    stm32f4xx_ll_exti.o(i.LL_EXTI_Init) refers to stm32f4xx_ll_exti.o(i.LL_EXTI_DisableIT_0_31) for LL_EXTI_DisableIT_0_31
    stm32f4xx_ll_exti.o(i.LL_EXTI_Init) refers to stm32f4xx_ll_exti.o(i.LL_EXTI_EnableEvent_0_31) for LL_EXTI_EnableEvent_0_31
    stm32f4xx_ll_exti.o(i.LL_EXTI_Init) refers to stm32f4xx_ll_exti.o(i.LL_EXTI_EnableRisingTrig_0_31) for LL_EXTI_EnableRisingTrig_0_31
    stm32f4xx_ll_exti.o(i.LL_EXTI_Init) refers to stm32f4xx_ll_exti.o(i.LL_EXTI_EnableFallingTrig_0_31) for LL_EXTI_EnableFallingTrig_0_31
    stm32f4xx_hal_sai.o(i.HAL_SAI_Abort) refers to stm32f4xx_hal_dma.o(i.HAL_DMA_Abort) for HAL_DMA_Abort
    stm32f4xx_hal_sai.o(i.HAL_SAI_Abort) refers to stm32f4xx_hal_sai.o(i.SAI_Disable) for SAI_Disable
    stm32f4xx_hal_sai.o(i.HAL_SAI_DMAStop) refers to stm32f4xx_hal_dma.o(i.HAL_DMA_Abort) for HAL_DMA_Abort
    stm32f4xx_hal_sai.o(i.HAL_SAI_DMAStop) refers to stm32f4xx_hal_sai.o(i.SAI_Disable) for SAI_Disable
    stm32f4xx_hal_sai.o(i.HAL_SAI_DeInit) refers to stm32f4xx_hal_sai.o(i.SAI_Disable) for SAI_Disable
    stm32f4xx_hal_sai.o(i.HAL_SAI_DeInit) refers to stm32f4xx_hal_msp.o(i.HAL_SAI_MspDeInit) for HAL_SAI_MspDeInit
    stm32f4xx_hal_sai.o(i.HAL_SAI_IRQHandler) refers to st-bus_sai_in_out.o(i.HAL_SAI_ErrorCallback) for HAL_SAI_ErrorCallback
    stm32f4xx_hal_sai.o(i.HAL_SAI_IRQHandler) refers to stm32f4xx_hal_dma.o(i.HAL_DMA_Abort_IT) for HAL_DMA_Abort_IT
    stm32f4xx_hal_sai.o(i.HAL_SAI_IRQHandler) refers to stm32f4xx_hal_sai.o(i.HAL_SAI_Abort) for HAL_SAI_Abort
    stm32f4xx_hal_sai.o(i.HAL_SAI_IRQHandler) refers to stm32f4xx_hal_sai.o(i.SAI_DMAAbort) for SAI_DMAAbort
    stm32f4xx_hal_sai.o(i.HAL_SAI_Init) refers to stm32f4xx_hal_msp.o(i.HAL_SAI_MspInit) for HAL_SAI_MspInit
    stm32f4xx_hal_sai.o(i.HAL_SAI_Init) refers to stm32f4xx_hal_sai.o(i.SAI_Disable) for SAI_Disable
    stm32f4xx_hal_sai.o(i.HAL_SAI_Init) refers to stm32f4xx_hal_sai_ex.o(i.SAI_BlockSynchroConfig) for SAI_BlockSynchroConfig
    stm32f4xx_hal_sai.o(i.HAL_SAI_Init) refers to stm32f4xx_hal_sai_ex.o(i.SAI_GetInputClock) for SAI_GetInputClock
    stm32f4xx_hal_sai.o(i.HAL_SAI_InitProtocol) refers to stm32f4xx_hal_sai.o(i.SAI_InitI2S) for SAI_InitI2S
    stm32f4xx_hal_sai.o(i.HAL_SAI_InitProtocol) refers to stm32f4xx_hal_sai.o(i.SAI_InitPCM) for SAI_InitPCM
    stm32f4xx_hal_sai.o(i.HAL_SAI_InitProtocol) refers to stm32f4xx_hal_sai.o(i.HAL_SAI_Init) for HAL_SAI_Init
    stm32f4xx_hal_sai.o(i.HAL_SAI_Receive) refers to stm32f4xx_hal.o(i.HAL_GetTick) for HAL_GetTick
    stm32f4xx_hal_sai.o(i.HAL_SAI_Receive) refers to stm32f4xx_hal_sai.o(i.SAI_Disable) for SAI_Disable
    stm32f4xx_hal_sai.o(i.HAL_SAI_Receive_DMA) refers to stm32f4xx_hal_dma.o(i.HAL_DMA_Start_IT) for HAL_DMA_Start_IT
    stm32f4xx_hal_sai.o(i.HAL_SAI_Receive_DMA) refers to stm32f4xx_hal_sai.o(i.SAI_InterruptFlag) for SAI_InterruptFlag
    stm32f4xx_hal_sai.o(i.HAL_SAI_Receive_DMA) refers to stm32f4xx_hal_sai.o(i.SAI_DMARxHalfCplt) for SAI_DMARxHalfCplt
    stm32f4xx_hal_sai.o(i.HAL_SAI_Receive_DMA) refers to stm32f4xx_hal_sai.o(i.SAI_DMARxCplt) for SAI_DMARxCplt
    stm32f4xx_hal_sai.o(i.HAL_SAI_Receive_DMA) refers to stm32f4xx_hal_sai.o(i.SAI_DMAError) for SAI_DMAError
    stm32f4xx_hal_sai.o(i.HAL_SAI_Receive_IT) refers to stm32f4xx_hal_sai.o(i.SAI_InterruptFlag) for SAI_InterruptFlag
    stm32f4xx_hal_sai.o(i.HAL_SAI_Receive_IT) refers to stm32f4xx_hal_sai.o(i.SAI_Receive_IT8Bit) for SAI_Receive_IT8Bit
    stm32f4xx_hal_sai.o(i.HAL_SAI_Receive_IT) refers to stm32f4xx_hal_sai.o(i.SAI_Receive_IT16Bit) for SAI_Receive_IT16Bit
    stm32f4xx_hal_sai.o(i.HAL_SAI_Receive_IT) refers to stm32f4xx_hal_sai.o(i.SAI_Receive_IT32Bit) for SAI_Receive_IT32Bit
    stm32f4xx_hal_sai.o(i.HAL_SAI_Transmit) refers to stm32f4xx_hal.o(i.HAL_GetTick) for HAL_GetTick
    stm32f4xx_hal_sai.o(i.HAL_SAI_Transmit) refers to stm32f4xx_hal_sai.o(i.SAI_FillFifo) for SAI_FillFifo
    stm32f4xx_hal_sai.o(i.HAL_SAI_Transmit) refers to stm32f4xx_hal_sai.o(i.SAI_Disable) for SAI_Disable
    stm32f4xx_hal_sai.o(i.HAL_SAI_Transmit_DMA) refers to stm32f4xx_hal_dma.o(i.HAL_DMA_Start_IT) for HAL_DMA_Start_IT
    stm32f4xx_hal_sai.o(i.HAL_SAI_Transmit_DMA) refers to stm32f4xx_hal_sai.o(i.SAI_InterruptFlag) for SAI_InterruptFlag
    stm32f4xx_hal_sai.o(i.HAL_SAI_Transmit_DMA) refers to stm32f4xx_hal_sai.o(i.SAI_DMATxHalfCplt) for SAI_DMATxHalfCplt
    stm32f4xx_hal_sai.o(i.HAL_SAI_Transmit_DMA) refers to stm32f4xx_hal_sai.o(i.SAI_DMATxCplt) for SAI_DMATxCplt
    stm32f4xx_hal_sai.o(i.HAL_SAI_Transmit_DMA) refers to stm32f4xx_hal_sai.o(i.SAI_DMAError) for SAI_DMAError
    stm32f4xx_hal_sai.o(i.HAL_SAI_Transmit_IT) refers to stm32f4xx_hal_sai.o(i.SAI_FillFifo) for SAI_FillFifo
    stm32f4xx_hal_sai.o(i.HAL_SAI_Transmit_IT) refers to stm32f4xx_hal_sai.o(i.SAI_InterruptFlag) for SAI_InterruptFlag
    stm32f4xx_hal_sai.o(i.HAL_SAI_Transmit_IT) refers to stm32f4xx_hal_sai.o(i.SAI_Transmit_IT8Bit) for SAI_Transmit_IT8Bit
    stm32f4xx_hal_sai.o(i.HAL_SAI_Transmit_IT) refers to stm32f4xx_hal_sai.o(i.SAI_Transmit_IT16Bit) for SAI_Transmit_IT16Bit
    stm32f4xx_hal_sai.o(i.HAL_SAI_Transmit_IT) refers to stm32f4xx_hal_sai.o(i.SAI_Transmit_IT32Bit) for SAI_Transmit_IT32Bit
    stm32f4xx_hal_sai.o(i.SAI_DMAAbort) refers to stm32f4xx_hal_sai.o(i.SAI_Disable) for SAI_Disable
    stm32f4xx_hal_sai.o(i.SAI_DMAAbort) refers to st-bus_sai_in_out.o(i.HAL_SAI_ErrorCallback) for HAL_SAI_ErrorCallback
    stm32f4xx_hal_sai.o(i.SAI_DMAError) refers to stm32f4xx_hal_sai.o(i.SAI_Disable) for SAI_Disable
    stm32f4xx_hal_sai.o(i.SAI_DMAError) refers to st-bus_sai_in_out.o(i.HAL_SAI_ErrorCallback) for HAL_SAI_ErrorCallback
    stm32f4xx_hal_sai.o(i.SAI_DMARxCplt) refers to stm32f4xx_hal_sai.o(i.SAI_InterruptFlag) for SAI_InterruptFlag
    stm32f4xx_hal_sai.o(i.SAI_DMARxCplt) refers to st-bus_sai_in_out.o(i.HAL_SAI_RxCpltCallback) for HAL_SAI_RxCpltCallback
    stm32f4xx_hal_sai.o(i.SAI_DMARxHalfCplt) refers to st-bus_sai_in_out.o(i.HAL_SAI_RxHalfCpltCallback) for HAL_SAI_RxHalfCpltCallback
    stm32f4xx_hal_sai.o(i.SAI_DMATxCplt) refers to stm32f4xx_hal_sai.o(i.SAI_InterruptFlag) for SAI_InterruptFlag
    stm32f4xx_hal_sai.o(i.SAI_DMATxCplt) refers to st-bus_sai_in_out.o(i.HAL_SAI_TxCpltCallback) for HAL_SAI_TxCpltCallback
    stm32f4xx_hal_sai.o(i.SAI_DMATxHalfCplt) refers to st-bus_sai_in_out.o(i.HAL_SAI_TxHalfCpltCallback) for HAL_SAI_TxHalfCpltCallback
    stm32f4xx_hal_sai.o(i.SAI_Disable) refers to system_stm32f4xx.o(.data) for SystemCoreClock
    stm32f4xx_hal_sai.o(i.SAI_Receive_IT16Bit) refers to stm32f4xx_hal_sai.o(i.SAI_InterruptFlag) for SAI_InterruptFlag
    stm32f4xx_hal_sai.o(i.SAI_Receive_IT16Bit) refers to st-bus_sai_in_out.o(i.HAL_SAI_RxCpltCallback) for HAL_SAI_RxCpltCallback
    stm32f4xx_hal_sai.o(i.SAI_Receive_IT32Bit) refers to stm32f4xx_hal_sai.o(i.SAI_InterruptFlag) for SAI_InterruptFlag
    stm32f4xx_hal_sai.o(i.SAI_Receive_IT32Bit) refers to st-bus_sai_in_out.o(i.HAL_SAI_RxCpltCallback) for HAL_SAI_RxCpltCallback
    stm32f4xx_hal_sai.o(i.SAI_Receive_IT8Bit) refers to stm32f4xx_hal_sai.o(i.SAI_InterruptFlag) for SAI_InterruptFlag
    stm32f4xx_hal_sai.o(i.SAI_Receive_IT8Bit) refers to st-bus_sai_in_out.o(i.HAL_SAI_RxCpltCallback) for HAL_SAI_RxCpltCallback
    stm32f4xx_hal_sai.o(i.SAI_Transmit_IT16Bit) refers to stm32f4xx_hal_sai.o(i.SAI_InterruptFlag) for SAI_InterruptFlag
    stm32f4xx_hal_sai.o(i.SAI_Transmit_IT16Bit) refers to st-bus_sai_in_out.o(i.HAL_SAI_TxCpltCallback) for HAL_SAI_TxCpltCallback
    stm32f4xx_hal_sai.o(i.SAI_Transmit_IT32Bit) refers to stm32f4xx_hal_sai.o(i.SAI_InterruptFlag) for SAI_InterruptFlag
    stm32f4xx_hal_sai.o(i.SAI_Transmit_IT32Bit) refers to st-bus_sai_in_out.o(i.HAL_SAI_TxCpltCallback) for HAL_SAI_TxCpltCallback
    stm32f4xx_hal_sai.o(i.SAI_Transmit_IT8Bit) refers to stm32f4xx_hal_sai.o(i.SAI_InterruptFlag) for SAI_InterruptFlag
    stm32f4xx_hal_sai.o(i.SAI_Transmit_IT8Bit) refers to st-bus_sai_in_out.o(i.HAL_SAI_TxCpltCallback) for HAL_SAI_TxCpltCallback
    stm32f4xx_hal_spi.o(i.HAL_SPI_Abort) refers to stm32f4xx_hal_dma.o(i.HAL_DMA_Abort) for HAL_DMA_Abort
    stm32f4xx_hal_spi.o(i.HAL_SPI_Abort) refers to system_stm32f4xx.o(.data) for SystemCoreClock
    stm32f4xx_hal_spi.o(i.HAL_SPI_Abort) refers to stm32f4xx_hal_spi.o(i.SPI_AbortTx_ISR) for SPI_AbortTx_ISR
    stm32f4xx_hal_spi.o(i.HAL_SPI_Abort) refers to stm32f4xx_hal_spi.o(i.SPI_AbortRx_ISR) for SPI_AbortRx_ISR
    stm32f4xx_hal_spi.o(i.HAL_SPI_Abort_IT) refers to stm32f4xx_hal_dma.o(i.HAL_DMA_Abort_IT) for HAL_DMA_Abort_IT
    stm32f4xx_hal_spi.o(i.HAL_SPI_Abort_IT) refers to stm32f4xx_hal_spi.o(i.HAL_SPI_AbortCpltCallback) for HAL_SPI_AbortCpltCallback
    stm32f4xx_hal_spi.o(i.HAL_SPI_Abort_IT) refers to system_stm32f4xx.o(.data) for SystemCoreClock
    stm32f4xx_hal_spi.o(i.HAL_SPI_Abort_IT) refers to stm32f4xx_hal_spi.o(i.SPI_AbortTx_ISR) for SPI_AbortTx_ISR
    stm32f4xx_hal_spi.o(i.HAL_SPI_Abort_IT) refers to stm32f4xx_hal_spi.o(i.SPI_AbortRx_ISR) for SPI_AbortRx_ISR
    stm32f4xx_hal_spi.o(i.HAL_SPI_Abort_IT) refers to stm32f4xx_hal_spi.o(i.SPI_DMATxAbortCallback) for SPI_DMATxAbortCallback
    stm32f4xx_hal_spi.o(i.HAL_SPI_Abort_IT) refers to stm32f4xx_hal_spi.o(i.SPI_DMARxAbortCallback) for SPI_DMARxAbortCallback
    stm32f4xx_hal_spi.o(i.HAL_SPI_DMAStop) refers to stm32f4xx_hal_dma.o(i.HAL_DMA_Abort) for HAL_DMA_Abort
    stm32f4xx_hal_spi.o(i.HAL_SPI_DeInit) refers to stm32f4xx_hal_msp.o(i.HAL_SPI_MspDeInit) for HAL_SPI_MspDeInit
    stm32f4xx_hal_spi.o(i.HAL_SPI_IRQHandler) refers to stm32f4xx_hal_dma.o(i.HAL_DMA_Abort_IT) for HAL_DMA_Abort_IT
    stm32f4xx_hal_spi.o(i.HAL_SPI_IRQHandler) refers to spi_interface.o(i.HAL_SPI_ErrorCallback) for HAL_SPI_ErrorCallback
    stm32f4xx_hal_spi.o(i.HAL_SPI_IRQHandler) refers to stm32f4xx_hal_spi.o(i.SPI_DMAAbortOnError) for SPI_DMAAbortOnError
    stm32f4xx_hal_spi.o(i.HAL_SPI_Init) refers to stm32f4xx_hal_msp.o(i.HAL_SPI_MspInit) for HAL_SPI_MspInit
    stm32f4xx_hal_spi.o(i.HAL_SPI_Receive) refers to stm32f4xx_hal_spi.o(i.HAL_SPI_TransmitReceive) for HAL_SPI_TransmitReceive
    stm32f4xx_hal_spi.o(i.HAL_SPI_Receive) refers to stm32f4xx_hal.o(i.HAL_GetTick) for HAL_GetTick
    stm32f4xx_hal_spi.o(i.HAL_SPI_Receive) refers to stm32f4xx_hal_spi.o(i.SPI_EndRxTransaction) for SPI_EndRxTransaction
    stm32f4xx_hal_spi.o(i.HAL_SPI_Receive_DMA) refers to stm32f4xx_hal_spi.o(i.HAL_SPI_TransmitReceive_DMA) for HAL_SPI_TransmitReceive_DMA
    stm32f4xx_hal_spi.o(i.HAL_SPI_Receive_DMA) refers to stm32f4xx_hal_dma.o(i.HAL_DMA_Start_IT) for HAL_DMA_Start_IT
    stm32f4xx_hal_spi.o(i.HAL_SPI_Receive_DMA) refers to stm32f4xx_hal_spi.o(i.SPI_DMAHalfReceiveCplt) for SPI_DMAHalfReceiveCplt
    stm32f4xx_hal_spi.o(i.HAL_SPI_Receive_DMA) refers to stm32f4xx_hal_spi.o(i.SPI_DMAReceiveCplt) for SPI_DMAReceiveCplt
    stm32f4xx_hal_spi.o(i.HAL_SPI_Receive_DMA) refers to stm32f4xx_hal_spi.o(i.SPI_DMAError) for SPI_DMAError
    stm32f4xx_hal_spi.o(i.HAL_SPI_Receive_IT) refers to stm32f4xx_hal_spi.o(i.HAL_SPI_TransmitReceive_IT) for HAL_SPI_TransmitReceive_IT
    stm32f4xx_hal_spi.o(i.HAL_SPI_Receive_IT) refers to stm32f4xx_hal_spi.o(i.SPI_RxISR_16BIT) for SPI_RxISR_16BIT
    stm32f4xx_hal_spi.o(i.HAL_SPI_Receive_IT) refers to stm32f4xx_hal_spi.o(i.SPI_RxISR_8BIT) for SPI_RxISR_8BIT
    stm32f4xx_hal_spi.o(i.HAL_SPI_Transmit) refers to stm32f4xx_hal.o(i.HAL_GetTick) for HAL_GetTick
    stm32f4xx_hal_spi.o(i.HAL_SPI_Transmit) refers to stm32f4xx_hal_spi.o(i.SPI_EndRxTxTransaction) for SPI_EndRxTxTransaction
    stm32f4xx_hal_spi.o(i.HAL_SPI_TransmitReceive) refers to stm32f4xx_hal.o(i.HAL_GetTick) for HAL_GetTick
    stm32f4xx_hal_spi.o(i.HAL_SPI_TransmitReceive) refers to stm32f4xx_hal_spi.o(i.SPI_EndRxTxTransaction) for SPI_EndRxTxTransaction
    stm32f4xx_hal_spi.o(i.HAL_SPI_TransmitReceive_DMA) refers to stm32f4xx_hal_dma.o(i.HAL_DMA_Start_IT) for HAL_DMA_Start_IT
    stm32f4xx_hal_spi.o(i.HAL_SPI_TransmitReceive_DMA) refers to stm32f4xx_hal_spi.o(i.SPI_DMAHalfReceiveCplt) for SPI_DMAHalfReceiveCplt
    stm32f4xx_hal_spi.o(i.HAL_SPI_TransmitReceive_DMA) refers to stm32f4xx_hal_spi.o(i.SPI_DMAReceiveCplt) for SPI_DMAReceiveCplt
    stm32f4xx_hal_spi.o(i.HAL_SPI_TransmitReceive_DMA) refers to stm32f4xx_hal_spi.o(i.SPI_DMAHalfTransmitReceiveCplt) for SPI_DMAHalfTransmitReceiveCplt
    stm32f4xx_hal_spi.o(i.HAL_SPI_TransmitReceive_DMA) refers to stm32f4xx_hal_spi.o(i.SPI_DMATransmitReceiveCplt) for SPI_DMATransmitReceiveCplt
    stm32f4xx_hal_spi.o(i.HAL_SPI_TransmitReceive_DMA) refers to stm32f4xx_hal_spi.o(i.SPI_DMAError) for SPI_DMAError
    stm32f4xx_hal_spi.o(i.HAL_SPI_TransmitReceive_IT) refers to stm32f4xx_hal_spi.o(i.SPI_2linesRxISR_16BIT) for SPI_2linesRxISR_16BIT
    stm32f4xx_hal_spi.o(i.HAL_SPI_TransmitReceive_IT) refers to stm32f4xx_hal_spi.o(i.SPI_2linesTxISR_16BIT) for SPI_2linesTxISR_16BIT
    stm32f4xx_hal_spi.o(i.HAL_SPI_TransmitReceive_IT) refers to stm32f4xx_hal_spi.o(i.SPI_2linesRxISR_8BIT) for SPI_2linesRxISR_8BIT
    stm32f4xx_hal_spi.o(i.HAL_SPI_TransmitReceive_IT) refers to stm32f4xx_hal_spi.o(i.SPI_2linesTxISR_8BIT) for SPI_2linesTxISR_8BIT
    stm32f4xx_hal_spi.o(i.HAL_SPI_Transmit_DMA) refers to stm32f4xx_hal_dma.o(i.HAL_DMA_Start_IT) for HAL_DMA_Start_IT
    stm32f4xx_hal_spi.o(i.HAL_SPI_Transmit_DMA) refers to stm32f4xx_hal_spi.o(i.SPI_DMAHalfTransmitCplt) for SPI_DMAHalfTransmitCplt
    stm32f4xx_hal_spi.o(i.HAL_SPI_Transmit_DMA) refers to stm32f4xx_hal_spi.o(i.SPI_DMATransmitCplt) for SPI_DMATransmitCplt
    stm32f4xx_hal_spi.o(i.HAL_SPI_Transmit_DMA) refers to stm32f4xx_hal_spi.o(i.SPI_DMAError) for SPI_DMAError
    stm32f4xx_hal_spi.o(i.HAL_SPI_Transmit_IT) refers to stm32f4xx_hal_spi.o(i.SPI_TxISR_16BIT) for SPI_TxISR_16BIT
    stm32f4xx_hal_spi.o(i.HAL_SPI_Transmit_IT) refers to stm32f4xx_hal_spi.o(i.SPI_TxISR_8BIT) for SPI_TxISR_8BIT
    stm32f4xx_hal_spi.o(i.SPI_2linesRxISR_16BIT) refers to stm32f4xx_hal_spi.o(i.SPI_CloseRxTx_ISR) for SPI_CloseRxTx_ISR
    stm32f4xx_hal_spi.o(i.SPI_2linesRxISR_8BIT) refers to stm32f4xx_hal_spi.o(i.SPI_CloseRxTx_ISR) for SPI_CloseRxTx_ISR
    stm32f4xx_hal_spi.o(i.SPI_2linesTxISR_16BIT) refers to stm32f4xx_hal_spi.o(i.SPI_CloseRxTx_ISR) for SPI_CloseRxTx_ISR
    stm32f4xx_hal_spi.o(i.SPI_2linesTxISR_8BIT) refers to stm32f4xx_hal_spi.o(i.SPI_CloseRxTx_ISR) for SPI_CloseRxTx_ISR
    stm32f4xx_hal_spi.o(i.SPI_AbortRx_ISR) refers to system_stm32f4xx.o(.data) for SystemCoreClock
    stm32f4xx_hal_spi.o(i.SPI_CloseRxTx_ISR) refers to stm32f4xx_hal.o(i.HAL_GetTick) for HAL_GetTick
    stm32f4xx_hal_spi.o(i.SPI_CloseRxTx_ISR) refers to stm32f4xx_hal_spi.o(i.SPI_EndRxTxTransaction) for SPI_EndRxTxTransaction
    stm32f4xx_hal_spi.o(i.SPI_CloseRxTx_ISR) refers to stm32f4xx_hal_spi.o(i.HAL_SPI_RxCpltCallback) for HAL_SPI_RxCpltCallback
    stm32f4xx_hal_spi.o(i.SPI_CloseRxTx_ISR) refers to stm32f4xx_hal_spi.o(i.HAL_SPI_TxRxCpltCallback) for HAL_SPI_TxRxCpltCallback
    stm32f4xx_hal_spi.o(i.SPI_CloseRxTx_ISR) refers to spi_interface.o(i.HAL_SPI_ErrorCallback) for HAL_SPI_ErrorCallback
    stm32f4xx_hal_spi.o(i.SPI_CloseRxTx_ISR) refers to system_stm32f4xx.o(.data) for SystemCoreClock
    stm32f4xx_hal_spi.o(i.SPI_CloseRx_ISR) refers to stm32f4xx_hal.o(i.HAL_GetTick) for HAL_GetTick
    stm32f4xx_hal_spi.o(i.SPI_CloseRx_ISR) refers to stm32f4xx_hal_spi.o(i.SPI_EndRxTransaction) for SPI_EndRxTransaction
    stm32f4xx_hal_spi.o(i.SPI_CloseRx_ISR) refers to stm32f4xx_hal_spi.o(i.HAL_SPI_RxCpltCallback) for HAL_SPI_RxCpltCallback
    stm32f4xx_hal_spi.o(i.SPI_CloseRx_ISR) refers to spi_interface.o(i.HAL_SPI_ErrorCallback) for HAL_SPI_ErrorCallback
    stm32f4xx_hal_spi.o(i.SPI_CloseTx_ISR) refers to stm32f4xx_hal.o(i.HAL_GetTick) for HAL_GetTick
    stm32f4xx_hal_spi.o(i.SPI_CloseTx_ISR) refers to stm32f4xx_hal_spi.o(i.SPI_EndRxTxTransaction) for SPI_EndRxTxTransaction
    stm32f4xx_hal_spi.o(i.SPI_CloseTx_ISR) refers to spi_interface.o(i.HAL_SPI_ErrorCallback) for HAL_SPI_ErrorCallback
    stm32f4xx_hal_spi.o(i.SPI_CloseTx_ISR) refers to stm32f4xx_hal_spi.o(i.HAL_SPI_TxCpltCallback) for HAL_SPI_TxCpltCallback
    stm32f4xx_hal_spi.o(i.SPI_CloseTx_ISR) refers to system_stm32f4xx.o(.data) for SystemCoreClock
    stm32f4xx_hal_spi.o(i.SPI_DMAAbortOnError) refers to spi_interface.o(i.HAL_SPI_ErrorCallback) for HAL_SPI_ErrorCallback
    stm32f4xx_hal_spi.o(i.SPI_DMAError) refers to spi_interface.o(i.HAL_SPI_ErrorCallback) for HAL_SPI_ErrorCallback
    stm32f4xx_hal_spi.o(i.SPI_DMAHalfReceiveCplt) refers to stm32f4xx_hal_spi.o(i.HAL_SPI_RxHalfCpltCallback) for HAL_SPI_RxHalfCpltCallback
    stm32f4xx_hal_spi.o(i.SPI_DMAHalfTransmitCplt) refers to stm32f4xx_hal_spi.o(i.HAL_SPI_TxHalfCpltCallback) for HAL_SPI_TxHalfCpltCallback
    stm32f4xx_hal_spi.o(i.SPI_DMAHalfTransmitReceiveCplt) refers to stm32f4xx_hal_spi.o(i.HAL_SPI_TxRxHalfCpltCallback) for HAL_SPI_TxRxHalfCpltCallback
    stm32f4xx_hal_spi.o(i.SPI_DMAReceiveCplt) refers to stm32f4xx_hal.o(i.HAL_GetTick) for HAL_GetTick
    stm32f4xx_hal_spi.o(i.SPI_DMAReceiveCplt) refers to stm32f4xx_hal_spi.o(i.SPI_EndRxTransaction) for SPI_EndRxTransaction
    stm32f4xx_hal_spi.o(i.SPI_DMAReceiveCplt) refers to spi_interface.o(i.HAL_SPI_ErrorCallback) for HAL_SPI_ErrorCallback
    stm32f4xx_hal_spi.o(i.SPI_DMAReceiveCplt) refers to stm32f4xx_hal_spi.o(i.HAL_SPI_RxCpltCallback) for HAL_SPI_RxCpltCallback
    stm32f4xx_hal_spi.o(i.SPI_DMARxAbortCallback) refers to stm32f4xx_hal.o(i.HAL_GetTick) for HAL_GetTick
    stm32f4xx_hal_spi.o(i.SPI_DMARxAbortCallback) refers to stm32f4xx_hal_spi.o(i.SPI_EndRxTxTransaction) for SPI_EndRxTxTransaction
    stm32f4xx_hal_spi.o(i.SPI_DMARxAbortCallback) refers to stm32f4xx_hal_spi.o(i.HAL_SPI_AbortCpltCallback) for HAL_SPI_AbortCpltCallback
    stm32f4xx_hal_spi.o(i.SPI_DMATransmitCplt) refers to stm32f4xx_hal.o(i.HAL_GetTick) for HAL_GetTick
    stm32f4xx_hal_spi.o(i.SPI_DMATransmitCplt) refers to stm32f4xx_hal_spi.o(i.SPI_EndRxTxTransaction) for SPI_EndRxTxTransaction
    stm32f4xx_hal_spi.o(i.SPI_DMATransmitCplt) refers to spi_interface.o(i.HAL_SPI_ErrorCallback) for HAL_SPI_ErrorCallback
    stm32f4xx_hal_spi.o(i.SPI_DMATransmitCplt) refers to stm32f4xx_hal_spi.o(i.HAL_SPI_TxCpltCallback) for HAL_SPI_TxCpltCallback
    stm32f4xx_hal_spi.o(i.SPI_DMATransmitReceiveCplt) refers to stm32f4xx_hal.o(i.HAL_GetTick) for HAL_GetTick
    stm32f4xx_hal_spi.o(i.SPI_DMATransmitReceiveCplt) refers to stm32f4xx_hal_spi.o(i.SPI_EndRxTxTransaction) for SPI_EndRxTxTransaction
    stm32f4xx_hal_spi.o(i.SPI_DMATransmitReceiveCplt) refers to spi_interface.o(i.HAL_SPI_ErrorCallback) for HAL_SPI_ErrorCallback
    stm32f4xx_hal_spi.o(i.SPI_DMATransmitReceiveCplt) refers to stm32f4xx_hal_spi.o(i.HAL_SPI_TxRxCpltCallback) for HAL_SPI_TxRxCpltCallback
    stm32f4xx_hal_spi.o(i.SPI_DMATxAbortCallback) refers to stm32f4xx_hal_spi.o(i.HAL_SPI_AbortCpltCallback) for HAL_SPI_AbortCpltCallback
    stm32f4xx_hal_spi.o(i.SPI_DMATxAbortCallback) refers to system_stm32f4xx.o(.data) for SystemCoreClock
    stm32f4xx_hal_spi.o(i.SPI_EndRxTransaction) refers to stm32f4xx_hal_spi.o(i.SPI_WaitFlagStateUntilTimeout) for SPI_WaitFlagStateUntilTimeout
    stm32f4xx_hal_spi.o(i.SPI_EndRxTxTransaction) refers to stm32f4xx_hal_spi.o(i.SPI_WaitFlagStateUntilTimeout) for SPI_WaitFlagStateUntilTimeout
    stm32f4xx_hal_spi.o(i.SPI_EndRxTxTransaction) refers to system_stm32f4xx.o(.data) for SystemCoreClock
    stm32f4xx_hal_spi.o(i.SPI_RxISR_16BIT) refers to stm32f4xx_hal_spi.o(i.SPI_CloseRx_ISR) for SPI_CloseRx_ISR
    stm32f4xx_hal_spi.o(i.SPI_RxISR_8BIT) refers to stm32f4xx_hal_spi.o(i.SPI_CloseRx_ISR) for SPI_CloseRx_ISR
    stm32f4xx_hal_spi.o(i.SPI_TxISR_16BIT) refers to stm32f4xx_hal_spi.o(i.SPI_CloseTx_ISR) for SPI_CloseTx_ISR
    stm32f4xx_hal_spi.o(i.SPI_TxISR_8BIT) refers to stm32f4xx_hal_spi.o(i.SPI_CloseTx_ISR) for SPI_CloseTx_ISR
    stm32f4xx_hal_spi.o(i.SPI_WaitFlagStateUntilTimeout) refers to stm32f4xx_hal.o(i.HAL_GetTick) for HAL_GetTick
    stm32f4xx_hal_tim.o(i.HAL_TIM_Base_DeInit) refers to stm32f4xx_hal_msp.o(i.HAL_TIM_Base_MspDeInit) for HAL_TIM_Base_MspDeInit
    stm32f4xx_hal_tim.o(i.HAL_TIM_Base_Init) refers to stm32f4xx_hal_msp.o(i.HAL_TIM_Base_MspInit) for HAL_TIM_Base_MspInit
    stm32f4xx_hal_tim.o(i.HAL_TIM_Base_Init) refers to stm32f4xx_hal_tim.o(i.TIM_Base_SetConfig) for TIM_Base_SetConfig
    stm32f4xx_hal_tim.o(i.HAL_TIM_Base_Start_DMA) refers to stm32f4xx_hal_dma.o(i.HAL_DMA_Start_IT) for HAL_DMA_Start_IT
    stm32f4xx_hal_tim.o(i.HAL_TIM_Base_Start_DMA) refers to stm32f4xx_hal_tim.o(i.TIM_DMAPeriodElapsedCplt) for TIM_DMAPeriodElapsedCplt
    stm32f4xx_hal_tim.o(i.HAL_TIM_Base_Start_DMA) refers to stm32f4xx_hal_tim.o(i.TIM_DMAPeriodElapsedHalfCplt) for TIM_DMAPeriodElapsedHalfCplt
    stm32f4xx_hal_tim.o(i.HAL_TIM_Base_Start_DMA) refers to stm32f4xx_hal_tim.o(i.TIM_DMAError) for TIM_DMAError
    stm32f4xx_hal_tim.o(i.HAL_TIM_Base_Stop_DMA) refers to stm32f4xx_hal_dma.o(i.HAL_DMA_Abort_IT) for HAL_DMA_Abort_IT
    stm32f4xx_hal_tim.o(i.HAL_TIM_ConfigClockSource) refers to stm32f4xx_hal_tim.o(i.TIM_ETR_SetConfig) for TIM_ETR_SetConfig
    stm32f4xx_hal_tim.o(i.HAL_TIM_ConfigClockSource) refers to stm32f4xx_hal_tim.o(i.TIM_TI1_ConfigInputStage) for TIM_TI1_ConfigInputStage
    stm32f4xx_hal_tim.o(i.HAL_TIM_ConfigClockSource) refers to stm32f4xx_hal_tim.o(i.TIM_ITRx_SetConfig) for TIM_ITRx_SetConfig
    stm32f4xx_hal_tim.o(i.HAL_TIM_ConfigClockSource) refers to stm32f4xx_hal_tim.o(i.TIM_TI2_ConfigInputStage) for TIM_TI2_ConfigInputStage
    stm32f4xx_hal_tim.o(i.HAL_TIM_ConfigOCrefClear) refers to stm32f4xx_hal_tim.o(i.TIM_ETR_SetConfig) for TIM_ETR_SetConfig
    stm32f4xx_hal_tim.o(i.HAL_TIM_DMABurst_ReadStart) refers to stm32f4xx_hal_dma.o(i.HAL_DMA_Start_IT) for HAL_DMA_Start_IT
    stm32f4xx_hal_tim.o(i.HAL_TIM_DMABurst_ReadStart) refers to stm32f4xx_hal_tim.o(i.TIM_DMAPeriodElapsedCplt) for TIM_DMAPeriodElapsedCplt
    stm32f4xx_hal_tim.o(i.HAL_TIM_DMABurst_ReadStart) refers to stm32f4xx_hal_tim.o(i.TIM_DMAPeriodElapsedHalfCplt) for TIM_DMAPeriodElapsedHalfCplt
    stm32f4xx_hal_tim.o(i.HAL_TIM_DMABurst_ReadStart) refers to stm32f4xx_hal_tim.o(i.TIM_DMAError) for TIM_DMAError
    stm32f4xx_hal_tim.o(i.HAL_TIM_DMABurst_ReadStart) refers to stm32f4xx_hal_tim.o(i.TIM_DMACaptureCplt) for TIM_DMACaptureCplt
    stm32f4xx_hal_tim.o(i.HAL_TIM_DMABurst_ReadStart) refers to stm32f4xx_hal_tim.o(i.TIM_DMACaptureHalfCplt) for TIM_DMACaptureHalfCplt
    stm32f4xx_hal_tim.o(i.HAL_TIM_DMABurst_ReadStart) refers to stm32f4xx_hal_tim_ex.o(i.TIMEx_DMACommutationCplt) for TIMEx_DMACommutationCplt
    stm32f4xx_hal_tim.o(i.HAL_TIM_DMABurst_ReadStart) refers to stm32f4xx_hal_tim_ex.o(i.TIMEx_DMACommutationHalfCplt) for TIMEx_DMACommutationHalfCplt
    stm32f4xx_hal_tim.o(i.HAL_TIM_DMABurst_ReadStart) refers to stm32f4xx_hal_tim.o(i.TIM_DMATriggerCplt) for TIM_DMATriggerCplt
    stm32f4xx_hal_tim.o(i.HAL_TIM_DMABurst_ReadStart) refers to stm32f4xx_hal_tim.o(i.TIM_DMATriggerHalfCplt) for TIM_DMATriggerHalfCplt
    stm32f4xx_hal_tim.o(i.HAL_TIM_DMABurst_ReadStop) refers to stm32f4xx_hal_dma.o(i.HAL_DMA_Abort_IT) for HAL_DMA_Abort_IT
    stm32f4xx_hal_tim.o(i.HAL_TIM_DMABurst_WriteStart) refers to stm32f4xx_hal_dma.o(i.HAL_DMA_Start_IT) for HAL_DMA_Start_IT
    stm32f4xx_hal_tim.o(i.HAL_TIM_DMABurst_WriteStart) refers to stm32f4xx_hal_tim.o(i.TIM_DMAPeriodElapsedCplt) for TIM_DMAPeriodElapsedCplt
    stm32f4xx_hal_tim.o(i.HAL_TIM_DMABurst_WriteStart) refers to stm32f4xx_hal_tim.o(i.TIM_DMAPeriodElapsedHalfCplt) for TIM_DMAPeriodElapsedHalfCplt
    stm32f4xx_hal_tim.o(i.HAL_TIM_DMABurst_WriteStart) refers to stm32f4xx_hal_tim.o(i.TIM_DMAError) for TIM_DMAError
    stm32f4xx_hal_tim.o(i.HAL_TIM_DMABurst_WriteStart) refers to stm32f4xx_hal_tim.o(i.TIM_DMADelayPulseCplt) for TIM_DMADelayPulseCplt
    stm32f4xx_hal_tim.o(i.HAL_TIM_DMABurst_WriteStart) refers to stm32f4xx_hal_tim.o(i.TIM_DMADelayPulseHalfCplt) for TIM_DMADelayPulseHalfCplt
    stm32f4xx_hal_tim.o(i.HAL_TIM_DMABurst_WriteStart) refers to stm32f4xx_hal_tim_ex.o(i.TIMEx_DMACommutationCplt) for TIMEx_DMACommutationCplt
    stm32f4xx_hal_tim.o(i.HAL_TIM_DMABurst_WriteStart) refers to stm32f4xx_hal_tim_ex.o(i.TIMEx_DMACommutationHalfCplt) for TIMEx_DMACommutationHalfCplt
    stm32f4xx_hal_tim.o(i.HAL_TIM_DMABurst_WriteStart) refers to stm32f4xx_hal_tim.o(i.TIM_DMATriggerCplt) for TIM_DMATriggerCplt
    stm32f4xx_hal_tim.o(i.HAL_TIM_DMABurst_WriteStart) refers to stm32f4xx_hal_tim.o(i.TIM_DMATriggerHalfCplt) for TIM_DMATriggerHalfCplt
    stm32f4xx_hal_tim.o(i.HAL_TIM_DMABurst_WriteStop) refers to stm32f4xx_hal_dma.o(i.HAL_DMA_Abort_IT) for HAL_DMA_Abort_IT
    stm32f4xx_hal_tim.o(i.HAL_TIM_Encoder_DeInit) refers to stm32f4xx_hal_tim.o(i.HAL_TIM_Encoder_MspDeInit) for HAL_TIM_Encoder_MspDeInit
    stm32f4xx_hal_tim.o(i.HAL_TIM_Encoder_Init) refers to stm32f4xx_hal_tim.o(i.HAL_TIM_Encoder_MspInit) for HAL_TIM_Encoder_MspInit
    stm32f4xx_hal_tim.o(i.HAL_TIM_Encoder_Init) refers to stm32f4xx_hal_tim.o(i.TIM_Base_SetConfig) for TIM_Base_SetConfig
    stm32f4xx_hal_tim.o(i.HAL_TIM_Encoder_Start) refers to stm32f4xx_hal_tim.o(i.TIM_CCxChannelCmd) for TIM_CCxChannelCmd
    stm32f4xx_hal_tim.o(i.HAL_TIM_Encoder_Start_DMA) refers to stm32f4xx_hal_dma.o(i.HAL_DMA_Start_IT) for HAL_DMA_Start_IT
    stm32f4xx_hal_tim.o(i.HAL_TIM_Encoder_Start_DMA) refers to stm32f4xx_hal_tim.o(i.TIM_CCxChannelCmd) for TIM_CCxChannelCmd
    stm32f4xx_hal_tim.o(i.HAL_TIM_Encoder_Start_DMA) refers to stm32f4xx_hal_tim.o(i.TIM_DMACaptureCplt) for TIM_DMACaptureCplt
    stm32f4xx_hal_tim.o(i.HAL_TIM_Encoder_Start_DMA) refers to stm32f4xx_hal_tim.o(i.TIM_DMACaptureHalfCplt) for TIM_DMACaptureHalfCplt
    stm32f4xx_hal_tim.o(i.HAL_TIM_Encoder_Start_DMA) refers to stm32f4xx_hal_tim.o(i.TIM_DMAError) for TIM_DMAError
    stm32f4xx_hal_tim.o(i.HAL_TIM_Encoder_Start_IT) refers to stm32f4xx_hal_tim.o(i.TIM_CCxChannelCmd) for TIM_CCxChannelCmd
    stm32f4xx_hal_tim.o(i.HAL_TIM_Encoder_Stop) refers to stm32f4xx_hal_tim.o(i.TIM_CCxChannelCmd) for TIM_CCxChannelCmd
    stm32f4xx_hal_tim.o(i.HAL_TIM_Encoder_Stop_DMA) refers to stm32f4xx_hal_tim.o(i.TIM_CCxChannelCmd) for TIM_CCxChannelCmd
    stm32f4xx_hal_tim.o(i.HAL_TIM_Encoder_Stop_DMA) refers to stm32f4xx_hal_dma.o(i.HAL_DMA_Abort_IT) for HAL_DMA_Abort_IT
    stm32f4xx_hal_tim.o(i.HAL_TIM_Encoder_Stop_IT) refers to stm32f4xx_hal_tim.o(i.TIM_CCxChannelCmd) for TIM_CCxChannelCmd
    stm32f4xx_hal_tim.o(i.HAL_TIM_IC_ConfigChannel) refers to stm32f4xx_hal_tim.o(i.TIM_TI1_SetConfig) for TIM_TI1_SetConfig
    stm32f4xx_hal_tim.o(i.HAL_TIM_IC_ConfigChannel) refers to stm32f4xx_hal_tim.o(i.TIM_TI2_SetConfig) for TIM_TI2_SetConfig
    stm32f4xx_hal_tim.o(i.HAL_TIM_IC_ConfigChannel) refers to stm32f4xx_hal_tim.o(i.TIM_TI3_SetConfig) for TIM_TI3_SetConfig
    stm32f4xx_hal_tim.o(i.HAL_TIM_IC_ConfigChannel) refers to stm32f4xx_hal_tim.o(i.TIM_TI4_SetConfig) for TIM_TI4_SetConfig
    stm32f4xx_hal_tim.o(i.HAL_TIM_IC_DeInit) refers to stm32f4xx_hal_tim.o(i.HAL_TIM_IC_MspDeInit) for HAL_TIM_IC_MspDeInit
    stm32f4xx_hal_tim.o(i.HAL_TIM_IC_Init) refers to stm32f4xx_hal_tim.o(i.HAL_TIM_IC_MspInit) for HAL_TIM_IC_MspInit
    stm32f4xx_hal_tim.o(i.HAL_TIM_IC_Init) refers to stm32f4xx_hal_tim.o(i.TIM_Base_SetConfig) for TIM_Base_SetConfig
    stm32f4xx_hal_tim.o(i.HAL_TIM_IC_Start) refers to stm32f4xx_hal_tim.o(i.TIM_CCxChannelCmd) for TIM_CCxChannelCmd
    stm32f4xx_hal_tim.o(i.HAL_TIM_IC_Start_DMA) refers to stm32f4xx_hal_dma.o(i.HAL_DMA_Start_IT) for HAL_DMA_Start_IT
    stm32f4xx_hal_tim.o(i.HAL_TIM_IC_Start_DMA) refers to stm32f4xx_hal_tim.o(i.TIM_CCxChannelCmd) for TIM_CCxChannelCmd
    stm32f4xx_hal_tim.o(i.HAL_TIM_IC_Start_DMA) refers to stm32f4xx_hal_tim.o(i.TIM_DMACaptureCplt) for TIM_DMACaptureCplt
    stm32f4xx_hal_tim.o(i.HAL_TIM_IC_Start_DMA) refers to stm32f4xx_hal_tim.o(i.TIM_DMACaptureHalfCplt) for TIM_DMACaptureHalfCplt
    stm32f4xx_hal_tim.o(i.HAL_TIM_IC_Start_DMA) refers to stm32f4xx_hal_tim.o(i.TIM_DMAError) for TIM_DMAError
    stm32f4xx_hal_tim.o(i.HAL_TIM_IC_Start_IT) refers to stm32f4xx_hal_tim.o(i.TIM_CCxChannelCmd) for TIM_CCxChannelCmd
    stm32f4xx_hal_tim.o(i.HAL_TIM_IC_Stop) refers to stm32f4xx_hal_tim.o(i.TIM_CCxChannelCmd) for TIM_CCxChannelCmd
    stm32f4xx_hal_tim.o(i.HAL_TIM_IC_Stop_DMA) refers to stm32f4xx_hal_dma.o(i.HAL_DMA_Abort_IT) for HAL_DMA_Abort_IT
    stm32f4xx_hal_tim.o(i.HAL_TIM_IC_Stop_DMA) refers to stm32f4xx_hal_tim.o(i.TIM_CCxChannelCmd) for TIM_CCxChannelCmd
    stm32f4xx_hal_tim.o(i.HAL_TIM_IC_Stop_IT) refers to stm32f4xx_hal_tim.o(i.TIM_CCxChannelCmd) for TIM_CCxChannelCmd
    stm32f4xx_hal_tim.o(i.HAL_TIM_IRQHandler) refers to stm32f4xx_hal_tim.o(i.HAL_TIM_IC_CaptureCallback) for HAL_TIM_IC_CaptureCallback
    stm32f4xx_hal_tim.o(i.HAL_TIM_IRQHandler) refers to stm32f4xx_hal_tim.o(i.HAL_TIM_OC_DelayElapsedCallback) for HAL_TIM_OC_DelayElapsedCallback
    stm32f4xx_hal_tim.o(i.HAL_TIM_IRQHandler) refers to stm32f4xx_hal_tim.o(i.HAL_TIM_PWM_PulseFinishedCallback) for HAL_TIM_PWM_PulseFinishedCallback
    stm32f4xx_hal_tim.o(i.HAL_TIM_IRQHandler) refers to stm32f4xx_hal_tim.o(i.HAL_TIM_PeriodElapsedCallback) for HAL_TIM_PeriodElapsedCallback
    stm32f4xx_hal_tim.o(i.HAL_TIM_IRQHandler) refers to stm32f4xx_hal_tim_ex.o(i.HAL_TIMEx_BreakCallback) for HAL_TIMEx_BreakCallback
    stm32f4xx_hal_tim.o(i.HAL_TIM_IRQHandler) refers to stm32f4xx_hal_tim.o(i.HAL_TIM_TriggerCallback) for HAL_TIM_TriggerCallback
    stm32f4xx_hal_tim.o(i.HAL_TIM_IRQHandler) refers to stm32f4xx_hal_tim_ex.o(i.HAL_TIMEx_CommutCallback) for HAL_TIMEx_CommutCallback
    stm32f4xx_hal_tim.o(i.HAL_TIM_OC_ConfigChannel) refers to stm32f4xx_hal_tim.o(i.TIM_OC1_SetConfig) for TIM_OC1_SetConfig
    stm32f4xx_hal_tim.o(i.HAL_TIM_OC_ConfigChannel) refers to stm32f4xx_hal_tim.o(i.TIM_OC2_SetConfig) for TIM_OC2_SetConfig
    stm32f4xx_hal_tim.o(i.HAL_TIM_OC_ConfigChannel) refers to stm32f4xx_hal_tim.o(i.TIM_OC3_SetConfig) for TIM_OC3_SetConfig
    stm32f4xx_hal_tim.o(i.HAL_TIM_OC_ConfigChannel) refers to stm32f4xx_hal_tim.o(i.TIM_OC4_SetConfig) for TIM_OC4_SetConfig
    stm32f4xx_hal_tim.o(i.HAL_TIM_OC_DeInit) refers to stm32f4xx_hal_tim.o(i.HAL_TIM_OC_MspDeInit) for HAL_TIM_OC_MspDeInit
    stm32f4xx_hal_tim.o(i.HAL_TIM_OC_Init) refers to stm32f4xx_hal_tim.o(i.HAL_TIM_OC_MspInit) for HAL_TIM_OC_MspInit
    stm32f4xx_hal_tim.o(i.HAL_TIM_OC_Init) refers to stm32f4xx_hal_tim.o(i.TIM_Base_SetConfig) for TIM_Base_SetConfig
    stm32f4xx_hal_tim.o(i.HAL_TIM_OC_Start) refers to stm32f4xx_hal_tim.o(i.TIM_CCxChannelCmd) for TIM_CCxChannelCmd
    stm32f4xx_hal_tim.o(i.HAL_TIM_OC_Start_DMA) refers to stm32f4xx_hal_dma.o(i.HAL_DMA_Start_IT) for HAL_DMA_Start_IT
    stm32f4xx_hal_tim.o(i.HAL_TIM_OC_Start_DMA) refers to stm32f4xx_hal_tim.o(i.TIM_CCxChannelCmd) for TIM_CCxChannelCmd
    stm32f4xx_hal_tim.o(i.HAL_TIM_OC_Start_DMA) refers to stm32f4xx_hal_tim.o(i.TIM_DMADelayPulseCplt) for TIM_DMADelayPulseCplt
    stm32f4xx_hal_tim.o(i.HAL_TIM_OC_Start_DMA) refers to stm32f4xx_hal_tim.o(i.TIM_DMADelayPulseHalfCplt) for TIM_DMADelayPulseHalfCplt
    stm32f4xx_hal_tim.o(i.HAL_TIM_OC_Start_DMA) refers to stm32f4xx_hal_tim.o(i.TIM_DMAError) for TIM_DMAError
    stm32f4xx_hal_tim.o(i.HAL_TIM_OC_Start_IT) refers to stm32f4xx_hal_tim.o(i.TIM_CCxChannelCmd) for TIM_CCxChannelCmd
    stm32f4xx_hal_tim.o(i.HAL_TIM_OC_Stop) refers to stm32f4xx_hal_tim.o(i.TIM_CCxChannelCmd) for TIM_CCxChannelCmd
    stm32f4xx_hal_tim.o(i.HAL_TIM_OC_Stop_DMA) refers to stm32f4xx_hal_dma.o(i.HAL_DMA_Abort_IT) for HAL_DMA_Abort_IT
    stm32f4xx_hal_tim.o(i.HAL_TIM_OC_Stop_DMA) refers to stm32f4xx_hal_tim.o(i.TIM_CCxChannelCmd) for TIM_CCxChannelCmd
    stm32f4xx_hal_tim.o(i.HAL_TIM_OC_Stop_IT) refers to stm32f4xx_hal_tim.o(i.TIM_CCxChannelCmd) for TIM_CCxChannelCmd
    stm32f4xx_hal_tim.o(i.HAL_TIM_OnePulse_ConfigChannel) refers to stm32f4xx_hal_tim.o(i.TIM_OC1_SetConfig) for TIM_OC1_SetConfig
    stm32f4xx_hal_tim.o(i.HAL_TIM_OnePulse_ConfigChannel) refers to stm32f4xx_hal_tim.o(i.TIM_OC2_SetConfig) for TIM_OC2_SetConfig
    stm32f4xx_hal_tim.o(i.HAL_TIM_OnePulse_ConfigChannel) refers to stm32f4xx_hal_tim.o(i.TIM_TI1_SetConfig) for TIM_TI1_SetConfig
    stm32f4xx_hal_tim.o(i.HAL_TIM_OnePulse_ConfigChannel) refers to stm32f4xx_hal_tim.o(i.TIM_TI2_SetConfig) for TIM_TI2_SetConfig
    stm32f4xx_hal_tim.o(i.HAL_TIM_OnePulse_DeInit) refers to stm32f4xx_hal_tim.o(i.HAL_TIM_OnePulse_MspDeInit) for HAL_TIM_OnePulse_MspDeInit
    stm32f4xx_hal_tim.o(i.HAL_TIM_OnePulse_Init) refers to stm32f4xx_hal_tim.o(i.HAL_TIM_OnePulse_MspInit) for HAL_TIM_OnePulse_MspInit
    stm32f4xx_hal_tim.o(i.HAL_TIM_OnePulse_Init) refers to stm32f4xx_hal_tim.o(i.TIM_Base_SetConfig) for TIM_Base_SetConfig
    stm32f4xx_hal_tim.o(i.HAL_TIM_OnePulse_Start) refers to stm32f4xx_hal_tim.o(i.TIM_CCxChannelCmd) for TIM_CCxChannelCmd
    stm32f4xx_hal_tim.o(i.HAL_TIM_OnePulse_Start_IT) refers to stm32f4xx_hal_tim.o(i.TIM_CCxChannelCmd) for TIM_CCxChannelCmd
    stm32f4xx_hal_tim.o(i.HAL_TIM_OnePulse_Stop) refers to stm32f4xx_hal_tim.o(i.TIM_CCxChannelCmd) for TIM_CCxChannelCmd
    stm32f4xx_hal_tim.o(i.HAL_TIM_OnePulse_Stop_IT) refers to stm32f4xx_hal_tim.o(i.TIM_CCxChannelCmd) for TIM_CCxChannelCmd
    stm32f4xx_hal_tim.o(i.HAL_TIM_PWM_ConfigChannel) refers to stm32f4xx_hal_tim.o(i.TIM_OC1_SetConfig) for TIM_OC1_SetConfig
    stm32f4xx_hal_tim.o(i.HAL_TIM_PWM_ConfigChannel) refers to stm32f4xx_hal_tim.o(i.TIM_OC2_SetConfig) for TIM_OC2_SetConfig
    stm32f4xx_hal_tim.o(i.HAL_TIM_PWM_ConfigChannel) refers to stm32f4xx_hal_tim.o(i.TIM_OC3_SetConfig) for TIM_OC3_SetConfig
    stm32f4xx_hal_tim.o(i.HAL_TIM_PWM_ConfigChannel) refers to stm32f4xx_hal_tim.o(i.TIM_OC4_SetConfig) for TIM_OC4_SetConfig
    stm32f4xx_hal_tim.o(i.HAL_TIM_PWM_DeInit) refers to stm32f4xx_hal_tim.o(i.HAL_TIM_PWM_MspDeInit) for HAL_TIM_PWM_MspDeInit
    stm32f4xx_hal_tim.o(i.HAL_TIM_PWM_Init) refers to stm32f4xx_hal_tim.o(i.HAL_TIM_PWM_MspInit) for HAL_TIM_PWM_MspInit
    stm32f4xx_hal_tim.o(i.HAL_TIM_PWM_Init) refers to stm32f4xx_hal_tim.o(i.TIM_Base_SetConfig) for TIM_Base_SetConfig
    stm32f4xx_hal_tim.o(i.HAL_TIM_PWM_Start) refers to stm32f4xx_hal_tim.o(i.TIM_CCxChannelCmd) for TIM_CCxChannelCmd
    stm32f4xx_hal_tim.o(i.HAL_TIM_PWM_Start_DMA) refers to stm32f4xx_hal_dma.o(i.HAL_DMA_Start_IT) for HAL_DMA_Start_IT
    stm32f4xx_hal_tim.o(i.HAL_TIM_PWM_Start_DMA) refers to stm32f4xx_hal_tim.o(i.TIM_CCxChannelCmd) for TIM_CCxChannelCmd
    stm32f4xx_hal_tim.o(i.HAL_TIM_PWM_Start_DMA) refers to stm32f4xx_hal_tim.o(i.TIM_DMADelayPulseCplt) for TIM_DMADelayPulseCplt
    stm32f4xx_hal_tim.o(i.HAL_TIM_PWM_Start_DMA) refers to stm32f4xx_hal_tim.o(i.TIM_DMADelayPulseHalfCplt) for TIM_DMADelayPulseHalfCplt
    stm32f4xx_hal_tim.o(i.HAL_TIM_PWM_Start_DMA) refers to stm32f4xx_hal_tim.o(i.TIM_DMAError) for TIM_DMAError
    stm32f4xx_hal_tim.o(i.HAL_TIM_PWM_Start_IT) refers to stm32f4xx_hal_tim.o(i.TIM_CCxChannelCmd) for TIM_CCxChannelCmd
    stm32f4xx_hal_tim.o(i.HAL_TIM_PWM_Stop) refers to stm32f4xx_hal_tim.o(i.TIM_CCxChannelCmd) for TIM_CCxChannelCmd
    stm32f4xx_hal_tim.o(i.HAL_TIM_PWM_Stop_DMA) refers to stm32f4xx_hal_dma.o(i.HAL_DMA_Abort_IT) for HAL_DMA_Abort_IT
    stm32f4xx_hal_tim.o(i.HAL_TIM_PWM_Stop_DMA) refers to stm32f4xx_hal_tim.o(i.TIM_CCxChannelCmd) for TIM_CCxChannelCmd
    stm32f4xx_hal_tim.o(i.HAL_TIM_PWM_Stop_IT) refers to stm32f4xx_hal_tim.o(i.TIM_CCxChannelCmd) for TIM_CCxChannelCmd
    stm32f4xx_hal_tim.o(i.HAL_TIM_SlaveConfigSynchro) refers to stm32f4xx_hal_tim.o(i.TIM_SlaveTimer_SetConfig) for TIM_SlaveTimer_SetConfig
    stm32f4xx_hal_tim.o(i.HAL_TIM_SlaveConfigSynchro_IT) refers to stm32f4xx_hal_tim.o(i.TIM_SlaveTimer_SetConfig) for TIM_SlaveTimer_SetConfig
    stm32f4xx_hal_tim.o(i.TIM_DMACaptureCplt) refers to stm32f4xx_hal_tim.o(i.HAL_TIM_IC_CaptureCallback) for HAL_TIM_IC_CaptureCallback
    stm32f4xx_hal_tim.o(i.TIM_DMACaptureHalfCplt) refers to stm32f4xx_hal_tim.o(i.HAL_TIM_IC_CaptureHalfCpltCallback) for HAL_TIM_IC_CaptureHalfCpltCallback
    stm32f4xx_hal_tim.o(i.TIM_DMADelayPulseCplt) refers to stm32f4xx_hal_tim.o(i.HAL_TIM_PWM_PulseFinishedCallback) for HAL_TIM_PWM_PulseFinishedCallback
    stm32f4xx_hal_tim.o(i.TIM_DMADelayPulseHalfCplt) refers to stm32f4xx_hal_tim.o(i.HAL_TIM_PWM_PulseFinishedHalfCpltCallback) for HAL_TIM_PWM_PulseFinishedHalfCpltCallback
    stm32f4xx_hal_tim.o(i.TIM_DMAError) refers to stm32f4xx_hal_tim.o(i.HAL_TIM_ErrorCallback) for HAL_TIM_ErrorCallback
    stm32f4xx_hal_tim.o(i.TIM_DMAPeriodElapsedCplt) refers to stm32f4xx_hal_tim.o(i.HAL_TIM_PeriodElapsedCallback) for HAL_TIM_PeriodElapsedCallback
    stm32f4xx_hal_tim.o(i.TIM_DMAPeriodElapsedHalfCplt) refers to stm32f4xx_hal_tim.o(i.HAL_TIM_PeriodElapsedHalfCpltCallback) for HAL_TIM_PeriodElapsedHalfCpltCallback
    stm32f4xx_hal_tim.o(i.TIM_DMATriggerCplt) refers to stm32f4xx_hal_tim.o(i.HAL_TIM_TriggerCallback) for HAL_TIM_TriggerCallback
    stm32f4xx_hal_tim.o(i.TIM_DMATriggerHalfCplt) refers to stm32f4xx_hal_tim.o(i.HAL_TIM_TriggerHalfCpltCallback) for HAL_TIM_TriggerHalfCpltCallback
    stm32f4xx_hal_tim.o(i.TIM_SlaveTimer_SetConfig) refers to stm32f4xx_hal_tim.o(i.TIM_ETR_SetConfig) for TIM_ETR_SetConfig
    stm32f4xx_hal_tim.o(i.TIM_SlaveTimer_SetConfig) refers to stm32f4xx_hal_tim.o(i.TIM_TI1_ConfigInputStage) for TIM_TI1_ConfigInputStage
    stm32f4xx_hal_tim.o(i.TIM_SlaveTimer_SetConfig) refers to stm32f4xx_hal_tim.o(i.TIM_TI2_ConfigInputStage) for TIM_TI2_ConfigInputStage
    stm32f4xx_hal_tim_ex.o(i.HAL_TIMEx_ConfigCommutEvent_DMA) refers to stm32f4xx_hal_tim_ex.o(i.TIMEx_DMACommutationCplt) for TIMEx_DMACommutationCplt
    stm32f4xx_hal_tim_ex.o(i.HAL_TIMEx_ConfigCommutEvent_DMA) refers to stm32f4xx_hal_tim_ex.o(i.TIMEx_DMACommutationHalfCplt) for TIMEx_DMACommutationHalfCplt
    stm32f4xx_hal_tim_ex.o(i.HAL_TIMEx_ConfigCommutEvent_DMA) refers to stm32f4xx_hal_tim.o(i.TIM_DMAError) for TIM_DMAError
    stm32f4xx_hal_tim_ex.o(i.HAL_TIMEx_HallSensor_DeInit) refers to stm32f4xx_hal_tim_ex.o(i.HAL_TIMEx_HallSensor_MspDeInit) for HAL_TIMEx_HallSensor_MspDeInit
    stm32f4xx_hal_tim_ex.o(i.HAL_TIMEx_HallSensor_Init) refers to stm32f4xx_hal_tim_ex.o(i.HAL_TIMEx_HallSensor_MspInit) for HAL_TIMEx_HallSensor_MspInit
    stm32f4xx_hal_tim_ex.o(i.HAL_TIMEx_HallSensor_Init) refers to stm32f4xx_hal_tim.o(i.TIM_Base_SetConfig) for TIM_Base_SetConfig
    stm32f4xx_hal_tim_ex.o(i.HAL_TIMEx_HallSensor_Init) refers to stm32f4xx_hal_tim.o(i.TIM_TI1_SetConfig) for TIM_TI1_SetConfig
    stm32f4xx_hal_tim_ex.o(i.HAL_TIMEx_HallSensor_Init) refers to stm32f4xx_hal_tim.o(i.TIM_OC2_SetConfig) for TIM_OC2_SetConfig
    stm32f4xx_hal_tim_ex.o(i.HAL_TIMEx_HallSensor_Start) refers to stm32f4xx_hal_tim.o(i.TIM_CCxChannelCmd) for TIM_CCxChannelCmd
    stm32f4xx_hal_tim_ex.o(i.HAL_TIMEx_HallSensor_Start_DMA) refers to stm32f4xx_hal_tim.o(i.TIM_CCxChannelCmd) for TIM_CCxChannelCmd
    stm32f4xx_hal_tim_ex.o(i.HAL_TIMEx_HallSensor_Start_DMA) refers to stm32f4xx_hal_dma.o(i.HAL_DMA_Start_IT) for HAL_DMA_Start_IT
    stm32f4xx_hal_tim_ex.o(i.HAL_TIMEx_HallSensor_Start_DMA) refers to stm32f4xx_hal_tim.o(i.TIM_DMACaptureCplt) for TIM_DMACaptureCplt
    stm32f4xx_hal_tim_ex.o(i.HAL_TIMEx_HallSensor_Start_DMA) refers to stm32f4xx_hal_tim.o(i.TIM_DMACaptureHalfCplt) for TIM_DMACaptureHalfCplt
    stm32f4xx_hal_tim_ex.o(i.HAL_TIMEx_HallSensor_Start_DMA) refers to stm32f4xx_hal_tim.o(i.TIM_DMAError) for TIM_DMAError
    stm32f4xx_hal_tim_ex.o(i.HAL_TIMEx_HallSensor_Start_IT) refers to stm32f4xx_hal_tim.o(i.TIM_CCxChannelCmd) for TIM_CCxChannelCmd
    stm32f4xx_hal_tim_ex.o(i.HAL_TIMEx_HallSensor_Stop) refers to stm32f4xx_hal_tim.o(i.TIM_CCxChannelCmd) for TIM_CCxChannelCmd
    stm32f4xx_hal_tim_ex.o(i.HAL_TIMEx_HallSensor_Stop_DMA) refers to stm32f4xx_hal_tim.o(i.TIM_CCxChannelCmd) for TIM_CCxChannelCmd
    stm32f4xx_hal_tim_ex.o(i.HAL_TIMEx_HallSensor_Stop_DMA) refers to stm32f4xx_hal_dma.o(i.HAL_DMA_Abort_IT) for HAL_DMA_Abort_IT
    stm32f4xx_hal_tim_ex.o(i.HAL_TIMEx_HallSensor_Stop_IT) refers to stm32f4xx_hal_tim.o(i.TIM_CCxChannelCmd) for TIM_CCxChannelCmd
    stm32f4xx_hal_tim_ex.o(i.HAL_TIMEx_OCN_Start) refers to stm32f4xx_hal_tim_ex.o(i.TIM_CCxNChannelCmd) for TIM_CCxNChannelCmd
    stm32f4xx_hal_tim_ex.o(i.HAL_TIMEx_OCN_Start_DMA) refers to stm32f4xx_hal_dma.o(i.HAL_DMA_Start_IT) for HAL_DMA_Start_IT
    stm32f4xx_hal_tim_ex.o(i.HAL_TIMEx_OCN_Start_DMA) refers to stm32f4xx_hal_tim_ex.o(i.TIM_CCxNChannelCmd) for TIM_CCxNChannelCmd
    stm32f4xx_hal_tim_ex.o(i.HAL_TIMEx_OCN_Start_DMA) refers to stm32f4xx_hal_tim.o(i.TIM_DMADelayPulseCplt) for TIM_DMADelayPulseCplt
    stm32f4xx_hal_tim_ex.o(i.HAL_TIMEx_OCN_Start_DMA) refers to stm32f4xx_hal_tim.o(i.TIM_DMADelayPulseHalfCplt) for TIM_DMADelayPulseHalfCplt
    stm32f4xx_hal_tim_ex.o(i.HAL_TIMEx_OCN_Start_DMA) refers to stm32f4xx_hal_tim.o(i.TIM_DMAError) for TIM_DMAError
    stm32f4xx_hal_tim_ex.o(i.HAL_TIMEx_OCN_Start_IT) refers to stm32f4xx_hal_tim_ex.o(i.TIM_CCxNChannelCmd) for TIM_CCxNChannelCmd
    stm32f4xx_hal_tim_ex.o(i.HAL_TIMEx_OCN_Stop) refers to stm32f4xx_hal_tim_ex.o(i.TIM_CCxNChannelCmd) for TIM_CCxNChannelCmd
    stm32f4xx_hal_tim_ex.o(i.HAL_TIMEx_OCN_Stop_DMA) refers to stm32f4xx_hal_dma.o(i.HAL_DMA_Abort_IT) for HAL_DMA_Abort_IT
    stm32f4xx_hal_tim_ex.o(i.HAL_TIMEx_OCN_Stop_DMA) refers to stm32f4xx_hal_tim_ex.o(i.TIM_CCxNChannelCmd) for TIM_CCxNChannelCmd
    stm32f4xx_hal_tim_ex.o(i.HAL_TIMEx_OCN_Stop_IT) refers to stm32f4xx_hal_tim_ex.o(i.TIM_CCxNChannelCmd) for TIM_CCxNChannelCmd
    stm32f4xx_hal_tim_ex.o(i.HAL_TIMEx_OnePulseN_Start) refers to stm32f4xx_hal_tim_ex.o(i.TIM_CCxNChannelCmd) for TIM_CCxNChannelCmd
    stm32f4xx_hal_tim_ex.o(i.HAL_TIMEx_OnePulseN_Start_IT) refers to stm32f4xx_hal_tim_ex.o(i.TIM_CCxNChannelCmd) for TIM_CCxNChannelCmd
    stm32f4xx_hal_tim_ex.o(i.HAL_TIMEx_OnePulseN_Stop) refers to stm32f4xx_hal_tim_ex.o(i.TIM_CCxNChannelCmd) for TIM_CCxNChannelCmd
    stm32f4xx_hal_tim_ex.o(i.HAL_TIMEx_OnePulseN_Stop_IT) refers to stm32f4xx_hal_tim_ex.o(i.TIM_CCxNChannelCmd) for TIM_CCxNChannelCmd
    stm32f4xx_hal_tim_ex.o(i.HAL_TIMEx_PWMN_Start) refers to stm32f4xx_hal_tim_ex.o(i.TIM_CCxNChannelCmd) for TIM_CCxNChannelCmd
    stm32f4xx_hal_tim_ex.o(i.HAL_TIMEx_PWMN_Start_DMA) refers to stm32f4xx_hal_dma.o(i.HAL_DMA_Start_IT) for HAL_DMA_Start_IT
    stm32f4xx_hal_tim_ex.o(i.HAL_TIMEx_PWMN_Start_DMA) refers to stm32f4xx_hal_tim_ex.o(i.TIM_CCxNChannelCmd) for TIM_CCxNChannelCmd
    stm32f4xx_hal_tim_ex.o(i.HAL_TIMEx_PWMN_Start_DMA) refers to stm32f4xx_hal_tim.o(i.TIM_DMADelayPulseCplt) for TIM_DMADelayPulseCplt
    stm32f4xx_hal_tim_ex.o(i.HAL_TIMEx_PWMN_Start_DMA) refers to stm32f4xx_hal_tim.o(i.TIM_DMADelayPulseHalfCplt) for TIM_DMADelayPulseHalfCplt
    stm32f4xx_hal_tim_ex.o(i.HAL_TIMEx_PWMN_Start_DMA) refers to stm32f4xx_hal_tim.o(i.TIM_DMAError) for TIM_DMAError
    stm32f4xx_hal_tim_ex.o(i.HAL_TIMEx_PWMN_Start_IT) refers to stm32f4xx_hal_tim_ex.o(i.TIM_CCxNChannelCmd) for TIM_CCxNChannelCmd
    stm32f4xx_hal_tim_ex.o(i.HAL_TIMEx_PWMN_Stop) refers to stm32f4xx_hal_tim_ex.o(i.TIM_CCxNChannelCmd) for TIM_CCxNChannelCmd
    stm32f4xx_hal_tim_ex.o(i.HAL_TIMEx_PWMN_Stop_DMA) refers to stm32f4xx_hal_dma.o(i.HAL_DMA_Abort_IT) for HAL_DMA_Abort_IT
    stm32f4xx_hal_tim_ex.o(i.HAL_TIMEx_PWMN_Stop_DMA) refers to stm32f4xx_hal_tim_ex.o(i.TIM_CCxNChannelCmd) for TIM_CCxNChannelCmd
    stm32f4xx_hal_tim_ex.o(i.HAL_TIMEx_PWMN_Stop_IT) refers to stm32f4xx_hal_tim_ex.o(i.TIM_CCxNChannelCmd) for TIM_CCxNChannelCmd
    stm32f4xx_hal_tim_ex.o(i.TIMEx_DMACommutationCplt) refers to stm32f4xx_hal_tim_ex.o(i.HAL_TIMEx_CommutCallback) for HAL_TIMEx_CommutCallback
    stm32f4xx_hal_tim_ex.o(i.TIMEx_DMACommutationHalfCplt) refers to stm32f4xx_hal_tim_ex.o(i.HAL_TIMEx_CommutHalfCpltCallback) for HAL_TIMEx_CommutHalfCpltCallback
    stm32f4xx_ll_usart.o(i.LL_USART_ClockInit) refers to stm32f4xx_ll_usart.o(i.LL_USART_IsEnabled) for LL_USART_IsEnabled
    stm32f4xx_ll_usart.o(i.LL_USART_DeInit) refers to stm32f4xx_ll_usart.o(i.LL_APB2_GRP1_ForceReset) for LL_APB2_GRP1_ForceReset
    stm32f4xx_ll_usart.o(i.LL_USART_DeInit) refers to stm32f4xx_ll_usart.o(i.LL_APB2_GRP1_ReleaseReset) for LL_APB2_GRP1_ReleaseReset
    stm32f4xx_ll_usart.o(i.LL_USART_DeInit) refers to stm32f4xx_ll_usart.o(i.LL_APB1_GRP1_ForceReset) for LL_APB1_GRP1_ForceReset
    stm32f4xx_ll_usart.o(i.LL_USART_DeInit) refers to stm32f4xx_ll_usart.o(i.LL_APB1_GRP1_ReleaseReset) for LL_APB1_GRP1_ReleaseReset
    stm32f4xx_ll_usart.o(i.LL_USART_Init) refers to stm32f4xx_ll_usart.o(i.LL_USART_IsEnabled) for LL_USART_IsEnabled
    stm32f4xx_ll_usart.o(i.LL_USART_Init) refers to stm32f4xx_ll_rcc.o(i.LL_RCC_GetSystemClocksFreq) for LL_RCC_GetSystemClocksFreq
    stm32f4xx_ll_usart.o(i.LL_USART_Init) refers to stm32f4xx_ll_usart.o(i.LL_USART_SetBaudRate) for LL_USART_SetBaudRate
    stm32f4xx_ll_usart.o(i.LL_USART_SetBaudRate) refers to uldiv.o(.text) for __aeabi_uldivmod
    stm32f4xx_ll_gpio.o(i.LL_GPIO_DeInit) refers to stm32f4xx_ll_gpio.o(i.LL_AHB1_GRP1_ForceReset) for LL_AHB1_GRP1_ForceReset
    stm32f4xx_ll_gpio.o(i.LL_GPIO_DeInit) refers to stm32f4xx_ll_gpio.o(i.LL_AHB1_GRP1_ReleaseReset) for LL_AHB1_GRP1_ReleaseReset
    stm32f4xx_ll_dma.o(i.LL_DMA_DeInit) refers to stm32f4xx_ll_dma.o(i.LL_AHB1_GRP1_ForceReset) for LL_AHB1_GRP1_ForceReset
    stm32f4xx_ll_dma.o(i.LL_DMA_DeInit) refers to stm32f4xx_ll_dma.o(i.LL_AHB1_GRP1_ReleaseReset) for LL_AHB1_GRP1_ReleaseReset
    stm32f4xx_ll_dma.o(i.LL_DMA_DeInit) refers to stm32f4xx_ll_dma.o(i.LL_DMA_SetChannelSelection) for LL_DMA_SetChannelSelection
    stm32f4xx_ll_dma.o(i.LL_DMA_DeInit) refers to stm32f4xx_ll_dma.o(.constdata) for STREAM_OFFSET_TAB
    stm32f4xx_ll_dma.o(i.LL_DMA_Init) refers to stm32f4xx_ll_dma.o(i.LL_DMA_SetChannelSelection) for LL_DMA_SetChannelSelection
    stm32f4xx_ll_dma.o(i.LL_DMA_Init) refers to stm32f4xx_ll_dma.o(.constdata) for STREAM_OFFSET_TAB
    stm32f4xx_ll_dma.o(i.LL_DMA_SetChannelSelection) refers to stm32f4xx_ll_dma.o(.constdata) for STREAM_OFFSET_TAB
    system_stm32f4xx.o(i.SystemCoreClockUpdate) refers to system_stm32f4xx.o(.data) for SystemCoreClock
    system_stm32f4xx.o(i.SystemCoreClockUpdate) refers to system_stm32f4xx.o(.constdata) for AHBPrescTable
    entry.o(.ARM.Collect$$$$00000000) refers (Special) to entry10a.o(.ARM.Collect$$$$0000000D) for __rt_final_cpp
    entry.o(.ARM.Collect$$$$00000000) refers (Special) to entry11a.o(.ARM.Collect$$$$0000000F) for __rt_final_exit
    entry.o(.ARM.Collect$$$$00000000) refers (Special) to entry7b.o(.ARM.Collect$$$$00000008) for _main_clock
    entry.o(.ARM.Collect$$$$00000000) refers (Special) to entry8b.o(.ARM.Collect$$$$0000000A) for _main_cpp_init
    entry.o(.ARM.Collect$$$$00000000) refers (Special) to entry9a.o(.ARM.Collect$$$$0000000B) for _main_init
    entry.o(.ARM.Collect$$$$00000000) refers (Special) to entry5.o(.ARM.Collect$$$$00000004) for _main_scatterload
    entry.o(.ARM.Collect$$$$00000000) refers (Special) to entry2.o(.ARM.Collect$$$$00000001) for _main_stk
    uldiv.o(.text) refers to llushr.o(.text) for __aeabi_llsr
    uldiv.o(.text) refers to llshl.o(.text) for __aeabi_llsl
    printfb.o(i.__0fprintf$bare) refers to printfb.o(i._printf_core) for _printf_core
    printfb.o(i.__0fprintf$bare) refers to fputc.o(i.fputc) for fputc
    printfb.o(i.__0printf$bare) refers to printfb.o(i._printf_core) for _printf_core
    printfb.o(i.__0printf$bare) refers to fputc.o(i.fputc) for fputc
    printfb.o(i.__0printf$bare) refers to stdout.o(.data) for __stdout
    printfb.o(i.__0snprintf$bare) refers to printfb.o(i._printf_core) for _printf_core
    printfb.o(i.__0snprintf$bare) refers to printfb.o(i._snputc) for _snputc
    printfb.o(i.__0sprintf$bare) refers to printfb.o(i._printf_core) for _printf_core
    printfb.o(i.__0sprintf$bare) refers to printfb.o(i._sputc) for _sputc
    printfb.o(i.__0vfprintf$bare) refers to printfb.o(i._printf_core) for _printf_core
    printfb.o(i.__0vfprintf$bare) refers to fputc.o(i.fputc) for fputc
    printfb.o(i.__0vprintf$bare) refers to printfb.o(i._printf_core) for _printf_core
    printfb.o(i.__0vprintf$bare) refers to fputc.o(i.fputc) for fputc
    printfb.o(i.__0vprintf$bare) refers to stdout.o(.data) for __stdout
    printfb.o(i.__0vsnprintf$bare) refers to printfb.o(i._printf_core) for _printf_core
    printfb.o(i.__0vsnprintf$bare) refers to printfb.o(i._snputc) for _snputc
    printfb.o(i.__0vsprintf$bare) refers to printfb.o(i._printf_core) for _printf_core
    printfb.o(i.__0vsprintf$bare) refers to printfb.o(i._sputc) for _sputc
    printf0.o(i.__0fprintf$0) refers to printf0.o(i._printf_core) for _printf_core
    printf0.o(i.__0fprintf$0) refers to fputc.o(i.fputc) for fputc
    printf0.o(i.__0printf$0) refers to printf0.o(i._printf_core) for _printf_core
    printf0.o(i.__0printf$0) refers to fputc.o(i.fputc) for fputc
    printf0.o(i.__0printf$0) refers to stdout.o(.data) for __stdout
    printf0.o(i.__0snprintf$0) refers to printf0.o(i._printf_core) for _printf_core
    printf0.o(i.__0snprintf$0) refers to printf0.o(i._snputc) for _snputc
    printf0.o(i.__0sprintf$0) refers to printf0.o(i._printf_core) for _printf_core
    printf0.o(i.__0sprintf$0) refers to printf0.o(i._sputc) for _sputc
    printf0.o(i.__0vfprintf$0) refers to printf0.o(i._printf_core) for _printf_core
    printf0.o(i.__0vfprintf$0) refers to fputc.o(i.fputc) for fputc
    printf0.o(i.__0vprintf$0) refers to printf0.o(i._printf_core) for _printf_core
    printf0.o(i.__0vprintf$0) refers to fputc.o(i.fputc) for fputc
    printf0.o(i.__0vprintf$0) refers to stdout.o(.data) for __stdout
    printf0.o(i.__0vsnprintf$0) refers to printf0.o(i._printf_core) for _printf_core
    printf0.o(i.__0vsnprintf$0) refers to printf0.o(i._snputc) for _snputc
    printf0.o(i.__0vsprintf$0) refers to printf0.o(i._printf_core) for _printf_core
    printf0.o(i.__0vsprintf$0) refers to printf0.o(i._sputc) for _sputc
    printf1.o(i.__0fprintf$1) refers to printf1.o(i._printf_core) for _printf_core
    printf1.o(i.__0fprintf$1) refers to fputc.o(i.fputc) for fputc
    printf1.o(i.__0printf$1) refers to printf1.o(i._printf_core) for _printf_core
    printf1.o(i.__0printf$1) refers to fputc.o(i.fputc) for fputc
    printf1.o(i.__0printf$1) refers to stdout.o(.data) for __stdout
    printf1.o(i.__0snprintf$1) refers to printf1.o(i._printf_core) for _printf_core
    printf1.o(i.__0snprintf$1) refers to printf1.o(i._snputc) for _snputc
    printf1.o(i.__0sprintf$1) refers to printf1.o(i._printf_core) for _printf_core
    printf1.o(i.__0sprintf$1) refers to printf1.o(i._sputc) for _sputc
    printf1.o(i.__0vfprintf$1) refers to printf1.o(i._printf_core) for _printf_core
    printf1.o(i.__0vfprintf$1) refers to fputc.o(i.fputc) for fputc
    printf1.o(i.__0vprintf$1) refers to printf1.o(i._printf_core) for _printf_core
    printf1.o(i.__0vprintf$1) refers to fputc.o(i.fputc) for fputc
    printf1.o(i.__0vprintf$1) refers to stdout.o(.data) for __stdout
    printf1.o(i.__0vsnprintf$1) refers to printf1.o(i._printf_core) for _printf_core
    printf1.o(i.__0vsnprintf$1) refers to printf1.o(i._snputc) for _snputc
    printf1.o(i.__0vsprintf$1) refers to printf1.o(i._printf_core) for _printf_core
    printf1.o(i.__0vsprintf$1) refers to printf1.o(i._sputc) for _sputc
    printf1.o(i._printf_core) refers to uidiv.o(.text) for __aeabi_uidivmod
    printf2.o(i.__0fprintf$2) refers to printf2.o(i._printf_core) for _printf_core
    printf2.o(i.__0fprintf$2) refers to fputc.o(i.fputc) for fputc
    printf2.o(i.__0printf$2) refers to printf2.o(i._printf_core) for _printf_core
    printf2.o(i.__0printf$2) refers to fputc.o(i.fputc) for fputc
    printf2.o(i.__0printf$2) refers to stdout.o(.data) for __stdout
    printf2.o(i.__0snprintf$2) refers to printf2.o(i._printf_core) for _printf_core
    printf2.o(i.__0snprintf$2) refers to printf2.o(i._snputc) for _snputc
    printf2.o(i.__0sprintf$2) refers to printf2.o(i._printf_core) for _printf_core
    printf2.o(i.__0sprintf$2) refers to printf2.o(i._sputc) for _sputc
    printf2.o(i.__0vfprintf$2) refers to printf2.o(i._printf_core) for _printf_core
    printf2.o(i.__0vfprintf$2) refers to fputc.o(i.fputc) for fputc
    printf2.o(i.__0vprintf$2) refers to printf2.o(i._printf_core) for _printf_core
    printf2.o(i.__0vprintf$2) refers to fputc.o(i.fputc) for fputc
    printf2.o(i.__0vprintf$2) refers to stdout.o(.data) for __stdout
    printf2.o(i.__0vsnprintf$2) refers to printf2.o(i._printf_core) for _printf_core
    printf2.o(i.__0vsnprintf$2) refers to printf2.o(i._snputc) for _snputc
    printf2.o(i.__0vsprintf$2) refers to printf2.o(i._printf_core) for _printf_core
    printf2.o(i.__0vsprintf$2) refers to printf2.o(i._sputc) for _sputc
    printf3.o(i.__0fprintf$3) refers to printf3.o(i._printf_core) for _printf_core
    printf3.o(i.__0fprintf$3) refers to fputc.o(i.fputc) for fputc
    printf3.o(i.__0printf$3) refers to printf3.o(i._printf_core) for _printf_core
    printf3.o(i.__0printf$3) refers to fputc.o(i.fputc) for fputc
    printf3.o(i.__0printf$3) refers to stdout.o(.data) for __stdout
    printf3.o(i.__0snprintf$3) refers to printf3.o(i._printf_core) for _printf_core
    printf3.o(i.__0snprintf$3) refers to printf3.o(i._snputc) for _snputc
    printf3.o(i.__0sprintf$3) refers to printf3.o(i._printf_core) for _printf_core
    printf3.o(i.__0sprintf$3) refers to printf3.o(i._sputc) for _sputc
    printf3.o(i.__0vfprintf$3) refers to printf3.o(i._printf_core) for _printf_core
    printf3.o(i.__0vfprintf$3) refers to fputc.o(i.fputc) for fputc
    printf3.o(i.__0vprintf$3) refers to printf3.o(i._printf_core) for _printf_core
    printf3.o(i.__0vprintf$3) refers to fputc.o(i.fputc) for fputc
    printf3.o(i.__0vprintf$3) refers to stdout.o(.data) for __stdout
    printf3.o(i.__0vsnprintf$3) refers to printf3.o(i._printf_core) for _printf_core
    printf3.o(i.__0vsnprintf$3) refers to printf3.o(i._snputc) for _snputc
    printf3.o(i.__0vsprintf$3) refers to printf3.o(i._printf_core) for _printf_core
    printf3.o(i.__0vsprintf$3) refers to printf3.o(i._sputc) for _sputc
    printf3.o(i._printf_core) refers to uidiv.o(.text) for __aeabi_uidivmod
    printf4.o(i.__0fprintf$4) refers to printf4.o(i._printf_core) for _printf_core
    printf4.o(i.__0fprintf$4) refers to fputc.o(i.fputc) for fputc
    printf4.o(i.__0printf$4) refers to printf4.o(i._printf_core) for _printf_core
    printf4.o(i.__0printf$4) refers to fputc.o(i.fputc) for fputc
    printf4.o(i.__0printf$4) refers to stdout.o(.data) for __stdout
    printf4.o(i.__0snprintf$4) refers to printf4.o(i._printf_core) for _printf_core
    printf4.o(i.__0snprintf$4) refers to printf4.o(i._snputc) for _snputc
    printf4.o(i.__0sprintf$4) refers to printf4.o(i._printf_core) for _printf_core
    printf4.o(i.__0sprintf$4) refers to printf4.o(i._sputc) for _sputc
    printf4.o(i.__0vfprintf$4) refers to printf4.o(i._printf_core) for _printf_core
    printf4.o(i.__0vfprintf$4) refers to fputc.o(i.fputc) for fputc
    printf4.o(i.__0vprintf$4) refers to printf4.o(i._printf_core) for _printf_core
    printf4.o(i.__0vprintf$4) refers to fputc.o(i.fputc) for fputc
    printf4.o(i.__0vprintf$4) refers to stdout.o(.data) for __stdout
    printf4.o(i.__0vsnprintf$4) refers to printf4.o(i._printf_core) for _printf_core
    printf4.o(i.__0vsnprintf$4) refers to printf4.o(i._snputc) for _snputc
    printf4.o(i.__0vsprintf$4) refers to printf4.o(i._printf_core) for _printf_core
    printf4.o(i.__0vsprintf$4) refers to printf4.o(i._sputc) for _sputc
    printf4.o(i._printf_core) refers to uldiv.o(.text) for __aeabi_uldivmod
    printf5.o(i.__0fprintf$5) refers to printf5.o(i._printf_core) for _printf_core
    printf5.o(i.__0fprintf$5) refers to fputc.o(i.fputc) for fputc
    printf5.o(i.__0printf$5) refers to printf5.o(i._printf_core) for _printf_core
    printf5.o(i.__0printf$5) refers to fputc.o(i.fputc) for fputc
    printf5.o(i.__0printf$5) refers to stdout.o(.data) for __stdout
    printf5.o(i.__0snprintf$5) refers to printf5.o(i._printf_core) for _printf_core
    printf5.o(i.__0snprintf$5) refers to printf5.o(i._snputc) for _snputc
    printf5.o(i.__0sprintf$5) refers to printf5.o(i._printf_core) for _printf_core
    printf5.o(i.__0sprintf$5) refers to printf5.o(i._sputc) for _sputc
    printf5.o(i.__0vfprintf$5) refers to printf5.o(i._printf_core) for _printf_core
    printf5.o(i.__0vfprintf$5) refers to fputc.o(i.fputc) for fputc
    printf5.o(i.__0vprintf$5) refers to printf5.o(i._printf_core) for _printf_core
    printf5.o(i.__0vprintf$5) refers to fputc.o(i.fputc) for fputc
    printf5.o(i.__0vprintf$5) refers to stdout.o(.data) for __stdout
    printf5.o(i.__0vsnprintf$5) refers to printf5.o(i._printf_core) for _printf_core
    printf5.o(i.__0vsnprintf$5) refers to printf5.o(i._snputc) for _snputc
    printf5.o(i.__0vsprintf$5) refers to printf5.o(i._printf_core) for _printf_core
    printf5.o(i.__0vsprintf$5) refers to printf5.o(i._sputc) for _sputc
    printf5.o(i._printf_core) refers to uldiv.o(.text) for __aeabi_uldivmod
    printf6.o(i.__0fprintf$6) refers to printf6.o(i._printf_core) for _printf_core
    printf6.o(i.__0fprintf$6) refers to fputc.o(i.fputc) for fputc
    printf6.o(i.__0printf$6) refers to printf6.o(i._printf_core) for _printf_core
    printf6.o(i.__0printf$6) refers to fputc.o(i.fputc) for fputc
    printf6.o(i.__0printf$6) refers to stdout.o(.data) for __stdout
    printf6.o(i.__0snprintf$6) refers to printf6.o(i._printf_core) for _printf_core
    printf6.o(i.__0snprintf$6) refers to printf6.o(i._snputc) for _snputc
    printf6.o(i.__0sprintf$6) refers to printf6.o(i._printf_core) for _printf_core
    printf6.o(i.__0sprintf$6) refers to printf6.o(i._sputc) for _sputc
    printf6.o(i.__0vfprintf$6) refers to printf6.o(i._printf_core) for _printf_core
    printf6.o(i.__0vfprintf$6) refers to fputc.o(i.fputc) for fputc
    printf6.o(i.__0vprintf$6) refers to printf6.o(i._printf_core) for _printf_core
    printf6.o(i.__0vprintf$6) refers to fputc.o(i.fputc) for fputc
    printf6.o(i.__0vprintf$6) refers to stdout.o(.data) for __stdout
    printf6.o(i.__0vsnprintf$6) refers to printf6.o(i._printf_core) for _printf_core
    printf6.o(i.__0vsnprintf$6) refers to printf6.o(i._snputc) for _snputc
    printf6.o(i.__0vsprintf$6) refers to printf6.o(i._printf_core) for _printf_core
    printf6.o(i.__0vsprintf$6) refers to printf6.o(i._sputc) for _sputc
    printf6.o(i._printf_core) refers to printf6.o(i._printf_pre_padding) for _printf_pre_padding
    printf6.o(i._printf_core) refers to uidiv.o(.text) for __aeabi_uidivmod
    printf6.o(i._printf_core) refers to printf6.o(i._printf_post_padding) for _printf_post_padding
    printf7.o(i.__0fprintf$7) refers to printf7.o(i._printf_core) for _printf_core
    printf7.o(i.__0fprintf$7) refers to fputc.o(i.fputc) for fputc
    printf7.o(i.__0printf$7) refers to printf7.o(i._printf_core) for _printf_core
    printf7.o(i.__0printf$7) refers to fputc.o(i.fputc) for fputc
    printf7.o(i.__0printf$7) refers to stdout.o(.data) for __stdout
    printf7.o(i.__0snprintf$7) refers to printf7.o(i._printf_core) for _printf_core
    printf7.o(i.__0snprintf$7) refers to printf7.o(i._snputc) for _snputc
    printf7.o(i.__0sprintf$7) refers to printf7.o(i._printf_core) for _printf_core
    printf7.o(i.__0sprintf$7) refers to printf7.o(i._sputc) for _sputc
    printf7.o(i.__0vfprintf$7) refers to printf7.o(i._printf_core) for _printf_core
    printf7.o(i.__0vfprintf$7) refers to fputc.o(i.fputc) for fputc
    printf7.o(i.__0vprintf$7) refers to printf7.o(i._printf_core) for _printf_core
    printf7.o(i.__0vprintf$7) refers to fputc.o(i.fputc) for fputc
    printf7.o(i.__0vprintf$7) refers to stdout.o(.data) for __stdout
    printf7.o(i.__0vsnprintf$7) refers to printf7.o(i._printf_core) for _printf_core
    printf7.o(i.__0vsnprintf$7) refers to printf7.o(i._snputc) for _snputc
    printf7.o(i.__0vsprintf$7) refers to printf7.o(i._printf_core) for _printf_core
    printf7.o(i.__0vsprintf$7) refers to printf7.o(i._sputc) for _sputc
    printf7.o(i._printf_core) refers to printf7.o(i._printf_pre_padding) for _printf_pre_padding
    printf7.o(i._printf_core) refers to uldiv.o(.text) for __aeabi_uldivmod
    printf7.o(i._printf_core) refers to printf7.o(i._printf_post_padding) for _printf_post_padding
    printf8.o(i.__0fprintf$8) refers to printf8.o(i._printf_core) for _printf_core
    printf8.o(i.__0fprintf$8) refers to fputc.o(i.fputc) for fputc
    printf8.o(i.__0printf$8) refers to printf8.o(i._printf_core) for _printf_core
    printf8.o(i.__0printf$8) refers to fputc.o(i.fputc) for fputc
    printf8.o(i.__0printf$8) refers to stdout.o(.data) for __stdout
    printf8.o(i.__0snprintf$8) refers to printf8.o(i._printf_core) for _printf_core
    printf8.o(i.__0snprintf$8) refers to printf8.o(i._snputc) for _snputc
    printf8.o(i.__0sprintf$8) refers to printf8.o(i._printf_core) for _printf_core
    printf8.o(i.__0sprintf$8) refers to printf8.o(i._sputc) for _sputc
    printf8.o(i.__0vfprintf$8) refers to printf8.o(i._printf_core) for _printf_core
    printf8.o(i.__0vfprintf$8) refers to fputc.o(i.fputc) for fputc
    printf8.o(i.__0vprintf$8) refers to printf8.o(i._printf_core) for _printf_core
    printf8.o(i.__0vprintf$8) refers to fputc.o(i.fputc) for fputc
    printf8.o(i.__0vprintf$8) refers to stdout.o(.data) for __stdout
    printf8.o(i.__0vsnprintf$8) refers to printf8.o(i._printf_core) for _printf_core
    printf8.o(i.__0vsnprintf$8) refers to printf8.o(i._snputc) for _snputc
    printf8.o(i.__0vsprintf$8) refers to printf8.o(i._printf_core) for _printf_core
    printf8.o(i.__0vsprintf$8) refers to printf8.o(i._sputc) for _sputc
    printf8.o(i._printf_core) refers to printf8.o(i._printf_pre_padding) for _printf_pre_padding
    printf8.o(i._printf_core) refers to uldiv.o(.text) for __aeabi_uldivmod
    printf8.o(i._printf_core) refers to printf8.o(i._printf_post_padding) for _printf_post_padding
    printfa.o(i.__0fprintf) refers (Special) to iusefp.o(.text) for __I$use$fp
    printfa.o(i.__0fprintf) refers to printfa.o(i._printf_core) for _printf_core
    printfa.o(i.__0fprintf) refers to fputc.o(i.fputc) for fputc
    printfa.o(i.__0printf) refers (Special) to iusefp.o(.text) for __I$use$fp
    printfa.o(i.__0printf) refers to printfa.o(i._printf_core) for _printf_core
    printfa.o(i.__0printf) refers to fputc.o(i.fputc) for fputc
    printfa.o(i.__0printf) refers to stdout.o(.data) for __stdout
    printfa.o(i.__0snprintf) refers (Special) to iusefp.o(.text) for __I$use$fp
    printfa.o(i.__0snprintf) refers to printfa.o(i._printf_core) for _printf_core
    printfa.o(i.__0snprintf) refers to printfa.o(i._snputc) for _snputc
    printfa.o(i.__0sprintf) refers (Special) to iusefp.o(.text) for __I$use$fp
    printfa.o(i.__0sprintf) refers to printfa.o(i._printf_core) for _printf_core
    printfa.o(i.__0sprintf) refers to printfa.o(i._sputc) for _sputc
    printfa.o(i.__0vfprintf) refers (Special) to iusefp.o(.text) for __I$use$fp
    printfa.o(i.__0vfprintf) refers to printfa.o(i._printf_core) for _printf_core
    printfa.o(i.__0vfprintf) refers to fputc.o(i.fputc) for fputc
    printfa.o(i.__0vprintf) refers (Special) to iusefp.o(.text) for __I$use$fp
    printfa.o(i.__0vprintf) refers to printfa.o(i._printf_core) for _printf_core
    printfa.o(i.__0vprintf) refers to fputc.o(i.fputc) for fputc
    printfa.o(i.__0vprintf) refers to stdout.o(.data) for __stdout
    printfa.o(i.__0vsnprintf) refers (Special) to iusefp.o(.text) for __I$use$fp
    printfa.o(i.__0vsnprintf) refers to printfa.o(i._printf_core) for _printf_core
    printfa.o(i.__0vsnprintf) refers to printfa.o(i._snputc) for _snputc
    printfa.o(i.__0vsprintf) refers (Special) to iusefp.o(.text) for __I$use$fp
    printfa.o(i.__0vsprintf) refers to printfa.o(i._printf_core) for _printf_core
    printfa.o(i.__0vsprintf) refers to printfa.o(i._sputc) for _sputc
    printfa.o(i._fp_digits) refers (Special) to iusefp.o(.text) for __I$use$fp
    printfa.o(i._fp_digits) refers to dmul.o(.text) for __aeabi_dmul
    printfa.o(i._fp_digits) refers to ddiv.o(.text) for __aeabi_ddiv
    printfa.o(i._fp_digits) refers to cdrcmple.o(.text) for __aeabi_cdrcmple
    printfa.o(i._fp_digits) refers to dadd.o(.text) for __aeabi_dadd
    printfa.o(i._fp_digits) refers to dfixul.o(.text) for __aeabi_d2ulz
    printfa.o(i._fp_digits) refers to uldiv.o(.text) for __aeabi_uldivmod
    printfa.o(i._printf_core) refers (Special) to iusefp.o(.text) for __I$use$fp
    printfa.o(i._printf_core) refers to printfa.o(i._printf_pre_padding) for _printf_pre_padding
    printfa.o(i._printf_core) refers to uldiv.o(.text) for __aeabi_uldivmod
    printfa.o(i._printf_core) refers to printfa.o(i._printf_post_padding) for _printf_post_padding
    printfa.o(i._printf_core) refers to printfa.o(i._fp_digits) for _fp_digits
    printfa.o(i._printf_core) refers to uidiv.o(.text) for __aeabi_uidivmod
    printfa.o(i._printf_post_padding) refers (Special) to iusefp.o(.text) for __I$use$fp
    printfa.o(i._printf_pre_padding) refers (Special) to iusefp.o(.text) for __I$use$fp
    printfa.o(i._snputc) refers (Special) to iusefp.o(.text) for __I$use$fp
    printfa.o(i._sputc) refers (Special) to iusefp.o(.text) for __I$use$fp
    entry2.o(.ARM.Collect$$$$00000001) refers to entry2.o(.ARM.Collect$$$$00002712) for __lit__00000000
    entry2.o(.ARM.Collect$$$$00002712) refers to startup_stm32f429xx.o(STACK) for __initial_sp
    entry2.o(__vectab_stack_and_reset_area) refers to startup_stm32f429xx.o(STACK) for __initial_sp
    entry2.o(__vectab_stack_and_reset_area) refers to entry.o(.ARM.Collect$$$$00000000) for __main
    entry5.o(.ARM.Collect$$$$00000004) refers to init.o(.text) for __scatterload
    entry9a.o(.ARM.Collect$$$$0000000B) refers to main.o(i.main) for main
    entry9b.o(.ARM.Collect$$$$0000000C) refers to main.o(i.main) for main
    fputc.o(i.fputc) refers (Special) to iusesemip.o(.text) for __I$use$semihosting$fputc
    fputc.o(i.fputc) refers (Special) to semi.o(.text) for __semihosting_library_function
    dadd.o(.text) refers to llshl.o(.text) for __aeabi_llsl
    dadd.o(.text) refers to llsshr.o(.text) for __aeabi_lasr
    dadd.o(.text) refers to depilogue.o(.text) for _double_epilogue
    dmul.o(.text) refers to depilogue.o(.text) for _double_epilogue
    ddiv.o(.text) refers to depilogue.o(.text) for _double_round
    dfixul.o(.text) refers to llushr.o(.text) for __aeabi_llsr
    dfixul.o(.text) refers to llshl.o(.text) for __aeabi_llsl
    init.o(.text) refers to entry5.o(.ARM.Collect$$$$00000004) for __main_after_scatterload
    depilogue.o(.text) refers to llshl.o(.text) for __aeabi_llsl
    depilogue.o(.text) refers to llushr.o(.text) for __aeabi_llsr


==============================================================================

Removing Unused input sections from the image.

    Removing startup_stm32f429xx.o(HEAP), (4096 bytes).
    Removing g711.o(.rev16_text), (4 bytes).
    Removing g711.o(.revsh_text), (4 bytes).
    Removing g711.o(.rrx_text), (6 bytes).
    Removing g711.o(i.LowPassFilter), (268 bytes).
    Removing g711.o(i.ReadProtect), (56 bytes).
    Removing g711.o(i.RectWinFilter), (136 bytes).
    Removing g711.o(i.alaw2ulaw), (44 bytes).
    Removing g711.o(i.linear2ulaw), (72 bytes).
    Removing g711.o(i.ulaw2alaw), (48 bytes).
    Removing g711.o(i.ulaw2linear), (40 bytes).
    Removing g711.o(.bss), (632 bytes).
    Removing hdlc_rx.o(.rev16_text), (4 bytes).
    Removing hdlc_rx.o(.revsh_text), (4 bytes).
    Removing hdlc_rx.o(.rrx_text), (6 bytes).
    Removing hdlc_rx.o(.constdata), (12 bytes).
    Removing hdlc_rx_low_level.o(.rev16_text), (4 bytes).
    Removing hdlc_rx_low_level.o(.revsh_text), (4 bytes).
    Removing hdlc_rx_low_level.o(.rrx_text), (6 bytes).
    Removing hdlc_rx_low_level.o(i.Dec), (16 bytes).
    Removing hdlc_rx_low_level.o(i.debug), (2 bytes).
    Removing hdlc_tx.o(.rev16_text), (4 bytes).
    Removing hdlc_tx.o(.revsh_text), (4 bytes).
    Removing hdlc_tx.o(.rrx_text), (6 bytes).
    Removing hdlc_tx.o(.constdata), (12 bytes).
    Removing hdlc_tx.o(.data), (8 bytes).
    Removing hdlc_tx_low_level.o(.rev16_text), (4 bytes).
    Removing hdlc_tx_low_level.o(.revsh_text), (4 bytes).
    Removing hdlc_tx_low_level.o(.rrx_text), (6 bytes).
    Removing hdlc_tx_low_level.o(.constdata), (12 bytes).
    Removing mt9092_logic.o(.rev16_text), (4 bytes).
    Removing mt9092_logic.o(.revsh_text), (4 bytes).
    Removing mt9092_logic.o(.rrx_text), (6 bytes).
    Removing mt9092_logic.o(.constdata), (12 bytes).
    Removing spi_interface.o(.rev16_text), (4 bytes).
    Removing spi_interface.o(.revsh_text), (4 bytes).
    Removing spi_interface.o(.rrx_text), (6 bytes).
    Removing spi_interface.o(i.DBG_SPI_RxISR_8BIT_Fast), (108 bytes).
    Removing spi_interface.o(.constdata), (12 bytes).
    Removing st-bus_sai_in_out.o(.rev16_text), (4 bytes).
    Removing st-bus_sai_in_out.o(.revsh_text), (4 bytes).
    Removing st-bus_sai_in_out.o(.rrx_text), (6 bytes).
    Removing st-bus_sai_in_out.o(.constdata), (12 bytes).
    Removing uart.o(.rev16_text), (4 bytes).
    Removing uart.o(.revsh_text), (4 bytes).
    Removing uart.o(.rrx_text), (6 bytes).
    Removing uart.o(i.Hex16ToChar), (80 bytes).
    Removing uart.o(i.doRxBlink), (28 bytes).
    Removing uart.o(i.uartBytesReceived), (20 bytes).
    Removing uart.o(i.uartGetchar), (28 bytes).
    Removing uart.o(i.uartPutsBitArray), (112 bytes).
    Removing uart.o(i.uartReceiveStart), (44 bytes).
    Removing uart.o(.constdata), (12 bytes).
    Removing uart.o(.conststring), (70 bytes).
    Removing codec.o(.rev16_text), (4 bytes).
    Removing codec.o(.revsh_text), (4 bytes).
    Removing codec.o(.rrx_text), (6 bytes).
    Removing codec.o(i.doCodecTest), (18 bytes).
    Removing codec.o(i.selectGoosneckMic), (28 bytes).
    Removing codec.o(i.selectHeadsetMic), (28 bytes).
    Removing codec.o(i.setPGAgain), (30 bytes).
    Removing codec.o(.constdata), (12 bytes).
    Removing codec.o(.data), (100 bytes).
    Removing audio_in_out.o(.rev16_text), (4 bytes).
    Removing audio_in_out.o(.revsh_text), (4 bytes).
    Removing audio_in_out.o(.rrx_text), (6 bytes).
    Removing audio_in_out.o(.constdata), (12 bytes).
    Removing main.o(.rev16_text), (4 bytes).
    Removing main.o(.revsh_text), (4 bytes).
    Removing main.o(.rrx_text), (6 bytes).
    Removing main.o(.constdata), (12 bytes).
    Removing stm32f4xx_it.o(.rev16_text), (4 bytes).
    Removing stm32f4xx_it.o(.revsh_text), (4 bytes).
    Removing stm32f4xx_it.o(.rrx_text), (6 bytes).
    Removing stm32f4xx_it.o(.constdata), (12 bytes).
    Removing stm32f4xx_hal_msp.o(.rev16_text), (4 bytes).
    Removing stm32f4xx_hal_msp.o(.revsh_text), (4 bytes).
    Removing stm32f4xx_hal_msp.o(.rrx_text), (6 bytes).
    Removing stm32f4xx_hal_msp.o(i.HAL_I2S_MspDeInit), (76 bytes).
    Removing stm32f4xx_hal_msp.o(i.HAL_SAI_MspDeInit), (136 bytes).
    Removing stm32f4xx_hal_msp.o(i.HAL_SPI_MspDeInit), (136 bytes).
    Removing stm32f4xx_hal_msp.o(i.HAL_TIM_Base_MspDeInit), (32 bytes).
    Removing stm32f4xx_hal_msp.o(.constdata), (12 bytes).
    Removing stm32f4xx_hal_i2s.o(.rev16_text), (4 bytes).
    Removing stm32f4xx_hal_i2s.o(.revsh_text), (4 bytes).
    Removing stm32f4xx_hal_i2s.o(.rrx_text), (6 bytes).
    Removing stm32f4xx_hal_i2s.o(i.HAL_I2S_DMAPause), (152 bytes).
    Removing stm32f4xx_hal_i2s.o(i.HAL_I2S_DMAResume), (236 bytes).
    Removing stm32f4xx_hal_i2s.o(i.HAL_I2S_DMAStop), (736 bytes).
    Removing stm32f4xx_hal_i2s.o(i.HAL_I2S_DeInit), (54 bytes).
    Removing stm32f4xx_hal_i2s.o(i.HAL_I2S_ErrorCallback), (2 bytes).
    Removing stm32f4xx_hal_i2s.o(i.HAL_I2S_GetError), (6 bytes).
    Removing stm32f4xx_hal_i2s.o(i.HAL_I2S_GetState), (8 bytes).
    Removing stm32f4xx_hal_i2s.o(i.HAL_I2S_IRQHandler), (12 bytes).
    Removing stm32f4xx_hal_i2s.o(i.HAL_I2S_MspDeInit), (2 bytes).
    Removing stm32f4xx_hal_i2s.o(i.HAL_I2S_MspInit), (2 bytes).
    Removing stm32f4xx_hal_i2s.o(i.HAL_I2S_Receive), (312 bytes).
    Removing stm32f4xx_hal_i2s.o(i.HAL_I2S_Receive_DMA), (288 bytes).
    Removing stm32f4xx_hal_i2s.o(i.HAL_I2S_Receive_IT), (162 bytes).
    Removing stm32f4xx_hal_i2s.o(i.HAL_I2S_RxHalfCpltCallback), (2 bytes).
    Removing stm32f4xx_hal_i2s.o(i.HAL_I2S_Transmit), (374 bytes).
    Removing stm32f4xx_hal_i2s.o(i.HAL_I2S_Transmit_DMA), (256 bytes).
    Removing stm32f4xx_hal_i2s.o(i.HAL_I2S_Transmit_IT), (162 bytes).
    Removing stm32f4xx_hal_i2s.o(i.HAL_I2S_TxHalfCpltCallback), (2 bytes).
    Removing stm32f4xx_hal_i2s.o(i.I2S_DMAError), (46 bytes).
    Removing stm32f4xx_hal_i2s.o(i.I2S_DMARxCplt), (40 bytes).
    Removing stm32f4xx_hal_i2s.o(i.I2S_DMARxHalfCplt), (14 bytes).
    Removing stm32f4xx_hal_i2s.o(i.I2S_DMATxCplt), (40 bytes).
    Removing stm32f4xx_hal_i2s.o(i.I2S_DMATxHalfCplt), (14 bytes).
    Removing stm32f4xx_hal_i2s.o(i.I2S_WaitFlagStateUntilTimeout), (84 bytes).
    Removing stm32f4xx_hal_i2s_ex.o(.rev16_text), (4 bytes).
    Removing stm32f4xx_hal_i2s_ex.o(.revsh_text), (4 bytes).
    Removing stm32f4xx_hal_i2s_ex.o(.rrx_text), (6 bytes).
    Removing stm32f4xx_hal_i2s_ex.o(i.HAL_I2SEx_TransmitReceive), (904 bytes).
    Removing stm32f4xx_hal_i2s_ex.o(i.HAL_I2SEx_TransmitReceive_IT), (448 bytes).
    Removing stm32f4xx_hal_i2s_ex.o(i.HAL_I2SEx_TxRxHalfCpltCallback), (2 bytes).
    Removing stm32f4xx_hal_i2s_ex.o(i.I2SEx_FullDuplexWaitFlagStateUntilTimeout), (180 bytes).
    Removing stm32f4xx_hal_rcc.o(.rev16_text), (4 bytes).
    Removing stm32f4xx_hal_rcc.o(.revsh_text), (4 bytes).
    Removing stm32f4xx_hal_rcc.o(.rrx_text), (6 bytes).
    Removing stm32f4xx_hal_rcc.o(i.HAL_RCC_CSSCallback), (2 bytes).
    Removing stm32f4xx_hal_rcc.o(i.HAL_RCC_DeInit), (4 bytes).
    Removing stm32f4xx_hal_rcc.o(i.HAL_RCC_DisableCSS), (12 bytes).
    Removing stm32f4xx_hal_rcc.o(i.HAL_RCC_EnableCSS), (12 bytes).
    Removing stm32f4xx_hal_rcc.o(i.HAL_RCC_GetClockConfig), (68 bytes).
    Removing stm32f4xx_hal_rcc.o(i.HAL_RCC_GetHCLKFreq), (12 bytes).
    Removing stm32f4xx_hal_rcc.o(i.HAL_RCC_GetOscConfig), (244 bytes).
    Removing stm32f4xx_hal_rcc.o(i.HAL_RCC_GetPCLK1Freq), (32 bytes).
    Removing stm32f4xx_hal_rcc.o(i.HAL_RCC_GetPCLK2Freq), (32 bytes).
    Removing stm32f4xx_hal_rcc.o(i.HAL_RCC_MCOConfig), (192 bytes).
    Removing stm32f4xx_hal_rcc.o(i.HAL_RCC_NMI_IRQHandler), (32 bytes).
    Removing stm32f4xx_hal_rcc_ex.o(.rev16_text), (4 bytes).
    Removing stm32f4xx_hal_rcc_ex.o(.revsh_text), (4 bytes).
    Removing stm32f4xx_hal_rcc_ex.o(.rrx_text), (6 bytes).
    Removing stm32f4xx_hal_rcc_ex.o(i.HAL_RCCEx_DisablePLLI2S), (56 bytes).
    Removing stm32f4xx_hal_rcc_ex.o(i.HAL_RCCEx_DisablePLLSAI), (56 bytes).
    Removing stm32f4xx_hal_rcc_ex.o(i.HAL_RCCEx_EnablePLLI2S), (120 bytes).
    Removing stm32f4xx_hal_rcc_ex.o(i.HAL_RCCEx_EnablePLLSAI), (120 bytes).
    Removing stm32f4xx_hal_rcc_ex.o(i.HAL_RCCEx_GetPeriphCLKConfig), (164 bytes).
    Removing stm32f4xx_hal_rcc_ex.o(i.HAL_RCC_DeInit), (452 bytes).
    Removing stm32f4xx_hal_flash.o(.rev16_text), (4 bytes).
    Removing stm32f4xx_hal_flash.o(.revsh_text), (4 bytes).
    Removing stm32f4xx_hal_flash.o(.rrx_text), (6 bytes).
    Removing stm32f4xx_hal_flash.o(i.FLASH_Program_Byte), (36 bytes).
    Removing stm32f4xx_hal_flash.o(i.FLASH_Program_DoubleWord), (60 bytes).
    Removing stm32f4xx_hal_flash.o(i.FLASH_Program_HalfWord), (40 bytes).
    Removing stm32f4xx_hal_flash.o(i.FLASH_Program_Word), (40 bytes).
    Removing stm32f4xx_hal_flash.o(i.FLASH_SetErrorCode), (180 bytes).
    Removing stm32f4xx_hal_flash.o(i.FLASH_WaitForLastOperation), (100 bytes).
    Removing stm32f4xx_hal_flash.o(i.HAL_FLASH_EndOfOperationCallback), (2 bytes).
    Removing stm32f4xx_hal_flash.o(i.HAL_FLASH_GetError), (12 bytes).
    Removing stm32f4xx_hal_flash.o(i.HAL_FLASH_IRQHandler), (272 bytes).
    Removing stm32f4xx_hal_flash.o(i.HAL_FLASH_Lock), (20 bytes).
    Removing stm32f4xx_hal_flash.o(i.HAL_FLASH_OB_Launch), (28 bytes).
    Removing stm32f4xx_hal_flash.o(i.HAL_FLASH_OB_Lock), (20 bytes).
    Removing stm32f4xx_hal_flash.o(i.HAL_FLASH_OB_Unlock), (44 bytes).
    Removing stm32f4xx_hal_flash.o(i.HAL_FLASH_OperationErrorCallback), (2 bytes).
    Removing stm32f4xx_hal_flash.o(i.HAL_FLASH_Program), (152 bytes).
    Removing stm32f4xx_hal_flash.o(i.HAL_FLASH_Program_IT), (136 bytes).
    Removing stm32f4xx_hal_flash.o(i.HAL_FLASH_Unlock), (52 bytes).
    Removing stm32f4xx_hal_flash.o(.bss), (32 bytes).
    Removing stm32f4xx_hal_flash_ex.o(.rev16_text), (4 bytes).
    Removing stm32f4xx_hal_flash_ex.o(.revsh_text), (4 bytes).
    Removing stm32f4xx_hal_flash_ex.o(.rrx_text), (6 bytes).
    Removing stm32f4xx_hal_flash_ex.o(i.FLASH_Erase_Sector), (96 bytes).
    Removing stm32f4xx_hal_flash_ex.o(i.FLASH_FlushCaches), (120 bytes).
    Removing stm32f4xx_hal_flash_ex.o(i.FLASH_MassErase), (84 bytes).
    Removing stm32f4xx_hal_flash_ex.o(i.FLASH_OB_BOR_LevelConfig), (32 bytes).
    Removing stm32f4xx_hal_flash_ex.o(i.FLASH_OB_BootConfig), (48 bytes).
    Removing stm32f4xx_hal_flash_ex.o(i.FLASH_OB_DisablePCROP), (100 bytes).
    Removing stm32f4xx_hal_flash_ex.o(i.FLASH_OB_DisableWRP), (148 bytes).
    Removing stm32f4xx_hal_flash_ex.o(i.FLASH_OB_EnablePCROP), (104 bytes).
    Removing stm32f4xx_hal_flash_ex.o(i.FLASH_OB_EnableWRP), (140 bytes).
    Removing stm32f4xx_hal_flash_ex.o(i.FLASH_OB_GetBOR), (16 bytes).
    Removing stm32f4xx_hal_flash_ex.o(i.FLASH_OB_GetRDP), (36 bytes).
    Removing stm32f4xx_hal_flash_ex.o(i.FLASH_OB_GetUser), (16 bytes).
    Removing stm32f4xx_hal_flash_ex.o(i.FLASH_OB_GetWRP), (12 bytes).
    Removing stm32f4xx_hal_flash_ex.o(i.FLASH_OB_RDP_LevelConfig), (32 bytes).
    Removing stm32f4xx_hal_flash_ex.o(i.FLASH_OB_UserConfig), (60 bytes).
    Removing stm32f4xx_hal_flash_ex.o(i.HAL_FLASHEx_AdvOBGetConfig), (28 bytes).
    Removing stm32f4xx_hal_flash_ex.o(i.HAL_FLASHEx_AdvOBProgram), (68 bytes).
    Removing stm32f4xx_hal_flash_ex.o(i.HAL_FLASHEx_Erase), (176 bytes).
    Removing stm32f4xx_hal_flash_ex.o(i.HAL_FLASHEx_Erase_IT), (120 bytes).
    Removing stm32f4xx_hal_flash_ex.o(i.HAL_FLASHEx_OBGetConfig), (34 bytes).
    Removing stm32f4xx_hal_flash_ex.o(i.HAL_FLASHEx_OBProgram), (148 bytes).
    Removing stm32f4xx_hal_flash_ex.o(i.HAL_FLASHEx_OB_DeSelectPCROP), (24 bytes).
    Removing stm32f4xx_hal_flash_ex.o(i.HAL_FLASHEx_OB_GetBank2WRP), (12 bytes).
    Removing stm32f4xx_hal_flash_ex.o(i.HAL_FLASHEx_OB_SelectPCROP), (28 bytes).
    Removing stm32f4xx_hal_flash_ramfunc.o(.rev16_text), (4 bytes).
    Removing stm32f4xx_hal_flash_ramfunc.o(.revsh_text), (4 bytes).
    Removing stm32f4xx_hal_flash_ramfunc.o(.rrx_text), (6 bytes).
    Removing stm32f4xx_hal_gpio.o(.rev16_text), (4 bytes).
    Removing stm32f4xx_hal_gpio.o(.revsh_text), (4 bytes).
    Removing stm32f4xx_hal_gpio.o(.rrx_text), (6 bytes).
    Removing stm32f4xx_hal_gpio.o(i.HAL_GPIO_DeInit), (384 bytes).
    Removing stm32f4xx_hal_gpio.o(i.HAL_GPIO_EXTI_Callback), (2 bytes).
    Removing stm32f4xx_hal_gpio.o(i.HAL_GPIO_EXTI_IRQHandler), (28 bytes).
    Removing stm32f4xx_hal_gpio.o(i.HAL_GPIO_LockPin), (46 bytes).
    Removing stm32f4xx_hal_dma_ex.o(.rev16_text), (4 bytes).
    Removing stm32f4xx_hal_dma_ex.o(.revsh_text), (4 bytes).
    Removing stm32f4xx_hal_dma_ex.o(.rrx_text), (6 bytes).
    Removing stm32f4xx_hal_dma_ex.o(i.DMA_MultiBufferSetConfig), (32 bytes).
    Removing stm32f4xx_hal_dma_ex.o(i.HAL_DMAEx_ChangeMemory), (18 bytes).
    Removing stm32f4xx_hal_dma_ex.o(i.HAL_DMAEx_MultiBufferStart), (124 bytes).
    Removing stm32f4xx_hal_dma_ex.o(i.HAL_DMAEx_MultiBufferStart_IT), (4056 bytes).
    Removing stm32f4xx_hal_dma.o(.rev16_text), (4 bytes).
    Removing stm32f4xx_hal_dma.o(.revsh_text), (4 bytes).
    Removing stm32f4xx_hal_dma.o(.rrx_text), (6 bytes).
    Removing stm32f4xx_hal_dma.o(i.HAL_DMA_DeInit), (112 bytes).
    Removing stm32f4xx_hal_dma.o(i.HAL_DMA_GetError), (6 bytes).
    Removing stm32f4xx_hal_dma.o(i.HAL_DMA_GetState), (8 bytes).
    Removing stm32f4xx_hal_dma.o(i.HAL_DMA_PollForTransfer), (346 bytes).
    Removing stm32f4xx_hal_dma.o(i.HAL_DMA_RegisterCallback), (94 bytes).
    Removing stm32f4xx_hal_dma.o(i.HAL_DMA_Start), (102 bytes).
    Removing stm32f4xx_hal_dma.o(i.HAL_DMA_UnRegisterCallback), (124 bytes).
    Removing stm32f4xx_hal_pwr.o(.rev16_text), (4 bytes).
    Removing stm32f4xx_hal_pwr.o(.revsh_text), (4 bytes).
    Removing stm32f4xx_hal_pwr.o(.rrx_text), (6 bytes).
    Removing stm32f4xx_hal_pwr.o(i.HAL_PWR_ConfigPVD), (180 bytes).
    Removing stm32f4xx_hal_pwr.o(i.HAL_PWR_DeInit), (28 bytes).
    Removing stm32f4xx_hal_pwr.o(i.HAL_PWR_DisableBkUpAccess), (12 bytes).
    Removing stm32f4xx_hal_pwr.o(i.HAL_PWR_DisablePVD), (12 bytes).
    Removing stm32f4xx_hal_pwr.o(i.HAL_PWR_DisableSEVOnPend), (20 bytes).
    Removing stm32f4xx_hal_pwr.o(i.HAL_PWR_DisableSleepOnExit), (20 bytes).
    Removing stm32f4xx_hal_pwr.o(i.HAL_PWR_DisableWakeUpPin), (16 bytes).
    Removing stm32f4xx_hal_pwr.o(i.HAL_PWR_EnableBkUpAccess), (12 bytes).
    Removing stm32f4xx_hal_pwr.o(i.HAL_PWR_EnablePVD), (12 bytes).
    Removing stm32f4xx_hal_pwr.o(i.HAL_PWR_EnableSEVOnPend), (20 bytes).
    Removing stm32f4xx_hal_pwr.o(i.HAL_PWR_EnableSleepOnExit), (20 bytes).
    Removing stm32f4xx_hal_pwr.o(i.HAL_PWR_EnableWakeUpPin), (16 bytes).
    Removing stm32f4xx_hal_pwr.o(i.HAL_PWR_EnterSLEEPMode), (32 bytes).
    Removing stm32f4xx_hal_pwr.o(i.HAL_PWR_EnterSTANDBYMode), (40 bytes).
    Removing stm32f4xx_hal_pwr.o(i.HAL_PWR_EnterSTOPMode), (64 bytes).
    Removing stm32f4xx_hal_pwr.o(i.HAL_PWR_PVDCallback), (2 bytes).
    Removing stm32f4xx_hal_pwr.o(i.HAL_PWR_PVD_IRQHandler), (32 bytes).
    Removing stm32f4xx_hal_pwr_ex.o(.rev16_text), (4 bytes).
    Removing stm32f4xx_hal_pwr_ex.o(.revsh_text), (4 bytes).
    Removing stm32f4xx_hal_pwr_ex.o(.rrx_text), (6 bytes).
    Removing stm32f4xx_hal_pwr_ex.o(i.HAL_PWREx_ControlVoltageScaling), (228 bytes).
    Removing stm32f4xx_hal_pwr_ex.o(i.HAL_PWREx_DisableBkUpReg), (60 bytes).
    Removing stm32f4xx_hal_pwr_ex.o(i.HAL_PWREx_DisableFlashPowerDown), (12 bytes).
    Removing stm32f4xx_hal_pwr_ex.o(i.HAL_PWREx_DisableOverDrive), (140 bytes).
    Removing stm32f4xx_hal_pwr_ex.o(i.HAL_PWREx_EnableBkUpReg), (60 bytes).
    Removing stm32f4xx_hal_pwr_ex.o(i.HAL_PWREx_EnableFlashPowerDown), (12 bytes).
    Removing stm32f4xx_hal_pwr_ex.o(i.HAL_PWREx_EnterUnderDriveSTOPMode), (128 bytes).
    Removing stm32f4xx_hal_pwr_ex.o(i.HAL_PWREx_GetVoltageRange), (16 bytes).
    Removing stm32f4xx_hal_cortex.o(.rev16_text), (4 bytes).
    Removing stm32f4xx_hal_cortex.o(.revsh_text), (4 bytes).
    Removing stm32f4xx_hal_cortex.o(.rrx_text), (6 bytes).
    Removing stm32f4xx_hal_cortex.o(i.HAL_MPU_ConfigRegion), (92 bytes).
    Removing stm32f4xx_hal_cortex.o(i.HAL_MPU_Disable), (44 bytes).
    Removing stm32f4xx_hal_cortex.o(i.HAL_MPU_Enable), (64 bytes).
    Removing stm32f4xx_hal_cortex.o(i.HAL_NVIC_ClearPendingIRQ), (36 bytes).
    Removing stm32f4xx_hal_cortex.o(i.HAL_NVIC_GetActive), (48 bytes).
    Removing stm32f4xx_hal_cortex.o(i.HAL_NVIC_GetPendingIRQ), (48 bytes).
    Removing stm32f4xx_hal_cortex.o(i.HAL_NVIC_GetPriority), (148 bytes).
    Removing stm32f4xx_hal_cortex.o(i.HAL_NVIC_GetPriorityGrouping), (8 bytes).
    Removing stm32f4xx_hal_cortex.o(i.HAL_NVIC_SetPendingIRQ), (36 bytes).
    Removing stm32f4xx_hal_cortex.o(i.HAL_NVIC_SystemReset), (68 bytes).
    Removing stm32f4xx_hal_cortex.o(i.HAL_SYSTICK_CLKSourceConfig), (40 bytes).
    Removing stm32f4xx_hal_cortex.o(i.HAL_SYSTICK_Callback), (2 bytes).
    Removing stm32f4xx_hal_cortex.o(i.HAL_SYSTICK_IRQHandler), (8 bytes).
    Removing stm32f4xx_hal.o(.rev16_text), (4 bytes).
    Removing stm32f4xx_hal.o(.revsh_text), (4 bytes).
    Removing stm32f4xx_hal.o(.rrx_text), (6 bytes).
    Removing stm32f4xx_hal.o(i.HAL_DBGMCU_DisableDBGSleepMode), (20 bytes).
    Removing stm32f4xx_hal.o(i.HAL_DBGMCU_DisableDBGStandbyMode), (20 bytes).
    Removing stm32f4xx_hal.o(i.HAL_DBGMCU_DisableDBGStopMode), (20 bytes).
    Removing stm32f4xx_hal.o(i.HAL_DBGMCU_EnableDBGSleepMode), (20 bytes).
    Removing stm32f4xx_hal.o(i.HAL_DBGMCU_EnableDBGStandbyMode), (20 bytes).
    Removing stm32f4xx_hal.o(i.HAL_DBGMCU_EnableDBGStopMode), (20 bytes).
    Removing stm32f4xx_hal.o(i.HAL_DeInit), (68 bytes).
    Removing stm32f4xx_hal.o(i.HAL_Delay), (40 bytes).
    Removing stm32f4xx_hal.o(i.HAL_DisableCompensationCell), (12 bytes).
    Removing stm32f4xx_hal.o(i.HAL_DisableMemorySwappingBank), (12 bytes).
    Removing stm32f4xx_hal.o(i.HAL_EnableCompensationCell), (12 bytes).
    Removing stm32f4xx_hal.o(i.HAL_EnableMemorySwappingBank), (12 bytes).
    Removing stm32f4xx_hal.o(i.HAL_GetDEVID), (16 bytes).
    Removing stm32f4xx_hal.o(i.HAL_GetHalVersion), (8 bytes).
    Removing stm32f4xx_hal.o(i.HAL_GetREVID), (12 bytes).
    Removing stm32f4xx_hal.o(i.HAL_GetTickFreq), (12 bytes).
    Removing stm32f4xx_hal.o(i.HAL_GetTickPrio), (12 bytes).
    Removing stm32f4xx_hal.o(i.HAL_GetUIDw0), (12 bytes).
    Removing stm32f4xx_hal.o(i.HAL_GetUIDw1), (12 bytes).
    Removing stm32f4xx_hal.o(i.HAL_GetUIDw2), (12 bytes).
    Removing stm32f4xx_hal.o(i.HAL_MspDeInit), (2 bytes).
    Removing stm32f4xx_hal.o(i.HAL_MspInit), (2 bytes).
    Removing stm32f4xx_hal.o(i.HAL_ResumeTick), (18 bytes).
    Removing stm32f4xx_hal.o(i.HAL_SetTickFreq), (48 bytes).
    Removing stm32f4xx_hal.o(i.HAL_SuspendTick), (18 bytes).
    Removing stm32f4xx_hal_exti.o(.rev16_text), (4 bytes).
    Removing stm32f4xx_hal_exti.o(.revsh_text), (4 bytes).
    Removing stm32f4xx_hal_exti.o(.rrx_text), (6 bytes).
    Removing stm32f4xx_hal_exti.o(i.HAL_EXTI_ClearConfigLine), (120 bytes).
    Removing stm32f4xx_hal_exti.o(i.HAL_EXTI_ClearPending), (28 bytes).
    Removing stm32f4xx_hal_exti.o(i.HAL_EXTI_GenerateSWI), (24 bytes).
    Removing stm32f4xx_hal_exti.o(i.HAL_EXTI_GetConfigLine), (176 bytes).
    Removing stm32f4xx_hal_exti.o(i.HAL_EXTI_GetHandle), (14 bytes).
    Removing stm32f4xx_hal_exti.o(i.HAL_EXTI_GetPending), (36 bytes).
    Removing stm32f4xx_hal_exti.o(i.HAL_EXTI_IRQHandler), (44 bytes).
    Removing stm32f4xx_hal_exti.o(i.HAL_EXTI_RegisterCallback), (20 bytes).
    Removing stm32f4xx_hal_exti.o(i.HAL_EXTI_SetConfigLine), (240 bytes).
    Removing stm32f4xx_ll_rcc.o(.rev16_text), (4 bytes).
    Removing stm32f4xx_ll_rcc.o(.revsh_text), (4 bytes).
    Removing stm32f4xx_ll_rcc.o(.rrx_text), (6 bytes).
    Removing stm32f4xx_ll_rcc.o(i.LL_RCC_DeInit), (236 bytes).
    Removing stm32f4xx_ll_rcc.o(i.LL_RCC_GetI2SClockFreq), (64 bytes).
    Removing stm32f4xx_ll_rcc.o(i.LL_RCC_GetLTDCClockFreq), (22 bytes).
    Removing stm32f4xx_ll_rcc.o(i.LL_RCC_GetRNGClockFreq), (22 bytes).
    Removing stm32f4xx_ll_rcc.o(i.LL_RCC_GetSAIClockFreq), (128 bytes).
    Removing stm32f4xx_ll_rcc.o(i.LL_RCC_GetSDIOClockFreq), (28 bytes).
    Removing stm32f4xx_ll_rcc.o(i.LL_RCC_GetUSBClockFreq), (22 bytes).
    Removing stm32f4xx_ll_rcc.o(i.LL_RCC_PLLI2S_GetN), (16 bytes).
    Removing stm32f4xx_ll_rcc.o(i.LL_RCC_PLLI2S_IsReady), (16 bytes).
    Removing stm32f4xx_ll_rcc.o(i.LL_RCC_PLLSAI_GetN), (16 bytes).
    Removing stm32f4xx_ll_rcc.o(i.LL_RCC_PLLSAI_IsReady), (16 bytes).
    Removing stm32f4xx_ll_rcc.o(i.LL_RCC_PLL_IsReady), (16 bytes).
    Removing stm32f4xx_ll_rcc.o(i.RCC_PLLI2S_GetFreqDomain_I2S), (96 bytes).
    Removing stm32f4xx_ll_rcc.o(i.RCC_PLLI2S_GetFreqDomain_SAI), (112 bytes).
    Removing stm32f4xx_ll_rcc.o(i.RCC_PLLSAI_GetFreqDomain_LTDC), (112 bytes).
    Removing stm32f4xx_ll_rcc.o(i.RCC_PLLSAI_GetFreqDomain_SAI), (108 bytes).
    Removing stm32f4xx_ll_rcc.o(i.RCC_PLL_GetFreqDomain_48M), (84 bytes).
    Removing stm32f4xx_ll_rcc.o(.constdata), (4 bytes).
    Removing stm32f4xx_ll_utils.o(.rev16_text), (4 bytes).
    Removing stm32f4xx_ll_utils.o(.revsh_text), (4 bytes).
    Removing stm32f4xx_ll_utils.o(.rrx_text), (6 bytes).
    Removing stm32f4xx_ll_utils.o(i.LL_Init1msTick), (28 bytes).
    Removing stm32f4xx_ll_utils.o(i.LL_PLL_ConfigSystemClock_HSE), (148 bytes).
    Removing stm32f4xx_ll_utils.o(i.LL_PLL_ConfigSystemClock_HSI), (100 bytes).
    Removing stm32f4xx_ll_utils.o(i.LL_RCC_HSE_IsReady), (16 bytes).
    Removing stm32f4xx_ll_utils.o(i.LL_RCC_HSI_IsReady), (16 bytes).
    Removing stm32f4xx_ll_utils.o(i.LL_RCC_PLL_ConfigDomain_SYS), (48 bytes).
    Removing stm32f4xx_ll_utils.o(i.LL_RCC_PLL_IsReady), (16 bytes).
    Removing stm32f4xx_ll_utils.o(i.LL_SetSystemCoreClock), (12 bytes).
    Removing stm32f4xx_ll_utils.o(i.LL_mDelay), (40 bytes).
    Removing stm32f4xx_ll_utils.o(i.UTILS_EnablePLLAndSwitchSystem), (208 bytes).
    Removing stm32f4xx_ll_utils.o(i.UTILS_GetPLLOutputFrequency), (40 bytes).
    Removing stm32f4xx_ll_utils.o(i.UTILS_PLL_IsBusy), (48 bytes).
    Removing stm32f4xx_ll_utils.o(i.UTILS_SetFlashLatency), (268 bytes).
    Removing stm32f4xx_ll_utils.o(.constdata), (4 bytes).
    Removing stm32f4xx_ll_exti.o(.rev16_text), (4 bytes).
    Removing stm32f4xx_ll_exti.o(.revsh_text), (4 bytes).
    Removing stm32f4xx_ll_exti.o(.rrx_text), (6 bytes).
    Removing stm32f4xx_ll_exti.o(i.LL_EXTI_DeInit), (40 bytes).
    Removing stm32f4xx_ll_exti.o(i.LL_EXTI_DisableEvent_0_31), (16 bytes).
    Removing stm32f4xx_ll_exti.o(i.LL_EXTI_DisableIT_0_31), (16 bytes).
    Removing stm32f4xx_ll_exti.o(i.LL_EXTI_EnableEvent_0_31), (16 bytes).
    Removing stm32f4xx_ll_exti.o(i.LL_EXTI_EnableFallingTrig_0_31), (16 bytes).
    Removing stm32f4xx_ll_exti.o(i.LL_EXTI_EnableIT_0_31), (16 bytes).
    Removing stm32f4xx_ll_exti.o(i.LL_EXTI_EnableRisingTrig_0_31), (16 bytes).
    Removing stm32f4xx_ll_exti.o(i.LL_EXTI_Init), (188 bytes).
    Removing stm32f4xx_ll_exti.o(i.LL_EXTI_StructInit), (14 bytes).
    Removing stm32f4xx_hal_sai.o(.rev16_text), (4 bytes).
    Removing stm32f4xx_hal_sai.o(.revsh_text), (4 bytes).
    Removing stm32f4xx_hal_sai.o(.rrx_text), (6 bytes).
    Removing stm32f4xx_hal_sai.o(i.HAL_SAI_DMAPause), (50 bytes).
    Removing stm32f4xx_hal_sai.o(i.HAL_SAI_DMAResume), (72 bytes).
    Removing stm32f4xx_hal_sai.o(i.HAL_SAI_DMAStop), (162 bytes).
    Removing stm32f4xx_hal_sai.o(i.HAL_SAI_DeInit), (74 bytes).
    Removing stm32f4xx_hal_sai.o(i.HAL_SAI_DisableRxMuteMode), (32 bytes).
    Removing stm32f4xx_hal_sai.o(i.HAL_SAI_DisableTxMuteMode), (28 bytes).
    Removing stm32f4xx_hal_sai.o(i.HAL_SAI_EnableRxMuteMode), (56 bytes).
    Removing stm32f4xx_hal_sai.o(i.HAL_SAI_EnableTxMuteMode), (42 bytes).
    Removing stm32f4xx_hal_sai.o(i.HAL_SAI_ErrorCallback), (2 bytes).
    Removing stm32f4xx_hal_sai.o(i.HAL_SAI_GetState), (8 bytes).
    Removing stm32f4xx_hal_sai.o(i.HAL_SAI_IRQHandler), (488 bytes).
    Removing stm32f4xx_hal_sai.o(i.HAL_SAI_InitProtocol), (88 bytes).
    Removing stm32f4xx_hal_sai.o(i.HAL_SAI_MspDeInit), (2 bytes).
    Removing stm32f4xx_hal_sai.o(i.HAL_SAI_MspInit), (2 bytes).
    Removing stm32f4xx_hal_sai.o(i.HAL_SAI_Receive), (292 bytes).
    Removing stm32f4xx_hal_sai.o(i.HAL_SAI_Receive_IT), (164 bytes).
    Removing stm32f4xx_hal_sai.o(i.HAL_SAI_RxCpltCallback), (2 bytes).
    Removing stm32f4xx_hal_sai.o(i.HAL_SAI_RxHalfCpltCallback), (2 bytes).
    Removing stm32f4xx_hal_sai.o(i.HAL_SAI_Transmit), (300 bytes).
    Removing stm32f4xx_hal_sai.o(i.HAL_SAI_Transmit_IT), (172 bytes).
    Removing stm32f4xx_hal_sai.o(i.HAL_SAI_TxCpltCallback), (2 bytes).
    Removing stm32f4xx_hal_sai.o(i.HAL_SAI_TxHalfCpltCallback), (2 bytes).
    Removing stm32f4xx_hal_sai.o(i.SAI_DMAAbort), (76 bytes).
    Removing stm32f4xx_hal_sai.o(i.SAI_FillFifo), (96 bytes).
    Removing stm32f4xx_hal_sai.o(i.SAI_InitI2S), (214 bytes).
    Removing stm32f4xx_hal_sai.o(i.SAI_InitPCM), (150 bytes).
    Removing stm32f4xx_hal_sai.o(i.SAI_Receive_IT16Bit), (70 bytes).
    Removing stm32f4xx_hal_sai.o(i.SAI_Receive_IT32Bit), (70 bytes).
    Removing stm32f4xx_hal_sai.o(i.SAI_Receive_IT8Bit), (70 bytes).
    Removing stm32f4xx_hal_sai.o(i.SAI_Transmit_IT16Bit), (68 bytes).
    Removing stm32f4xx_hal_sai.o(i.SAI_Transmit_IT32Bit), (68 bytes).
    Removing stm32f4xx_hal_sai.o(i.SAI_Transmit_IT8Bit), (66 bytes).
    Removing stm32f4xx_hal_sai_ex.o(.rev16_text), (4 bytes).
    Removing stm32f4xx_hal_sai_ex.o(.revsh_text), (4 bytes).
    Removing stm32f4xx_hal_sai_ex.o(.rrx_text), (6 bytes).
    Removing stm32f4xx_hal_spi.o(.rev16_text), (4 bytes).
    Removing stm32f4xx_hal_spi.o(.revsh_text), (4 bytes).
    Removing stm32f4xx_hal_spi.o(.rrx_text), (6 bytes).
    Removing stm32f4xx_hal_spi.o(i.HAL_SPI_Abort), (368 bytes).
    Removing stm32f4xx_hal_spi.o(i.HAL_SPI_AbortCpltCallback), (2 bytes).
    Removing stm32f4xx_hal_spi.o(i.HAL_SPI_Abort_IT), (384 bytes).
    Removing stm32f4xx_hal_spi.o(i.HAL_SPI_DMAPause), (50 bytes).
    Removing stm32f4xx_hal_spi.o(i.HAL_SPI_DMAResume), (50 bytes).
    Removing stm32f4xx_hal_spi.o(i.HAL_SPI_DMAStop), (72 bytes).
    Removing stm32f4xx_hal_spi.o(i.HAL_SPI_DeInit), (54 bytes).
    Removing stm32f4xx_hal_spi.o(i.HAL_SPI_ErrorCallback), (2 bytes).
    Removing stm32f4xx_hal_spi.o(i.HAL_SPI_GetError), (6 bytes).
    Removing stm32f4xx_hal_spi.o(i.HAL_SPI_GetState), (8 bytes).
    Removing stm32f4xx_hal_spi.o(i.HAL_SPI_MspDeInit), (2 bytes).
    Removing stm32f4xx_hal_spi.o(i.HAL_SPI_MspInit), (2 bytes).
    Removing stm32f4xx_hal_spi.o(i.HAL_SPI_Receive_DMA), (272 bytes).
    Removing stm32f4xx_hal_spi.o(i.HAL_SPI_Receive_IT), (204 bytes).
    Removing stm32f4xx_hal_spi.o(i.HAL_SPI_RxHalfCpltCallback), (2 bytes).
    Removing stm32f4xx_hal_spi.o(i.HAL_SPI_TransmitReceive_DMA), (364 bytes).
    Removing stm32f4xx_hal_spi.o(i.HAL_SPI_Transmit_DMA), (240 bytes).
    Removing stm32f4xx_hal_spi.o(i.HAL_SPI_Transmit_IT), (168 bytes).
    Removing stm32f4xx_hal_spi.o(i.HAL_SPI_TxCpltCallback), (2 bytes).
    Removing stm32f4xx_hal_spi.o(i.HAL_SPI_TxHalfCpltCallback), (2 bytes).
    Removing stm32f4xx_hal_spi.o(i.HAL_SPI_TxRxHalfCpltCallback), (2 bytes).
    Removing stm32f4xx_hal_spi.o(i.SPI_AbortRx_ISR), (104 bytes).
    Removing stm32f4xx_hal_spi.o(i.SPI_AbortTx_ISR), (32 bytes).
    Removing stm32f4xx_hal_spi.o(i.SPI_CloseRx_ISR), (94 bytes).
    Removing stm32f4xx_hal_spi.o(i.SPI_CloseTx_ISR), (160 bytes).
    Removing stm32f4xx_hal_spi.o(i.SPI_DMAError), (40 bytes).
    Removing stm32f4xx_hal_spi.o(i.SPI_DMAHalfReceiveCplt), (14 bytes).
    Removing stm32f4xx_hal_spi.o(i.SPI_DMAHalfTransmitCplt), (14 bytes).
    Removing stm32f4xx_hal_spi.o(i.SPI_DMAHalfTransmitReceiveCplt), (14 bytes).
    Removing stm32f4xx_hal_spi.o(i.SPI_DMAReceiveCplt), (124 bytes).
    Removing stm32f4xx_hal_spi.o(i.SPI_DMARxAbortCallback), (144 bytes).
    Removing stm32f4xx_hal_spi.o(i.SPI_DMATransmitCplt), (128 bytes).
    Removing stm32f4xx_hal_spi.o(i.SPI_DMATransmitReceiveCplt), (104 bytes).
    Removing stm32f4xx_hal_spi.o(i.SPI_DMATxAbortCallback), (172 bytes).
    Removing stm32f4xx_hal_spi.o(i.SPI_RxISR_16BIT), (36 bytes).
    Removing stm32f4xx_hal_spi.o(i.SPI_RxISR_8BIT), (36 bytes).
    Removing stm32f4xx_hal_spi.o(i.SPI_TxISR_16BIT), (36 bytes).
    Removing stm32f4xx_hal_spi.o(i.SPI_TxISR_8BIT), (36 bytes).
    Removing stm32f4xx_hal_tim.o(.rev16_text), (4 bytes).
    Removing stm32f4xx_hal_tim.o(.revsh_text), (4 bytes).
    Removing stm32f4xx_hal_tim.o(.rrx_text), (6 bytes).
    Removing stm32f4xx_hal_tim.o(i.HAL_TIM_Base_DeInit), (70 bytes).
    Removing stm32f4xx_hal_tim.o(i.HAL_TIM_Base_GetState), (8 bytes).
    Removing stm32f4xx_hal_tim.o(i.HAL_TIM_Base_MspDeInit), (2 bytes).
    Removing stm32f4xx_hal_tim.o(i.HAL_TIM_Base_MspInit), (2 bytes).
    Removing stm32f4xx_hal_tim.o(i.HAL_TIM_Base_Start), (42 bytes).
    Removing stm32f4xx_hal_tim.o(i.HAL_TIM_Base_Start_DMA), (136 bytes).
    Removing stm32f4xx_hal_tim.o(i.HAL_TIM_Base_Start_IT), (42 bytes).
    Removing stm32f4xx_hal_tim.o(i.HAL_TIM_Base_Stop), (56 bytes).
    Removing stm32f4xx_hal_tim.o(i.HAL_TIM_Base_Stop_DMA), (70 bytes).
    Removing stm32f4xx_hal_tim.o(i.HAL_TIM_Base_Stop_IT), (56 bytes).
    Removing stm32f4xx_hal_tim.o(i.HAL_TIM_ConfigOCrefClear), (270 bytes).
    Removing stm32f4xx_hal_tim.o(i.HAL_TIM_ConfigTI1Input), (22 bytes).
    Removing stm32f4xx_hal_tim.o(i.HAL_TIM_DMABurst_ReadStart), (488 bytes).
    Removing stm32f4xx_hal_tim.o(i.HAL_TIM_DMABurst_ReadStop), (146 bytes).
    Removing stm32f4xx_hal_tim.o(i.HAL_TIM_DMABurst_WriteStart), (488 bytes).
    Removing stm32f4xx_hal_tim.o(i.HAL_TIM_DMABurst_WriteStop), (146 bytes).
    Removing stm32f4xx_hal_tim.o(i.HAL_TIM_Encoder_DeInit), (70 bytes).
    Removing stm32f4xx_hal_tim.o(i.HAL_TIM_Encoder_GetState), (8 bytes).
    Removing stm32f4xx_hal_tim.o(i.HAL_TIM_Encoder_Init), (174 bytes).
    Removing stm32f4xx_hal_tim.o(i.HAL_TIM_Encoder_MspDeInit), (2 bytes).
    Removing stm32f4xx_hal_tim.o(i.HAL_TIM_Encoder_MspInit), (2 bytes).
    Removing stm32f4xx_hal_tim.o(i.HAL_TIM_Encoder_Start), (78 bytes).
    Removing stm32f4xx_hal_tim.o(i.HAL_TIM_Encoder_Start_DMA), (380 bytes).
    Removing stm32f4xx_hal_tim.o(i.HAL_TIM_Encoder_Start_IT), (126 bytes).
    Removing stm32f4xx_hal_tim.o(i.HAL_TIM_Encoder_Stop), (104 bytes).
    Removing stm32f4xx_hal_tim.o(i.HAL_TIM_Encoder_Stop_DMA), (176 bytes).
    Removing stm32f4xx_hal_tim.o(i.HAL_TIM_Encoder_Stop_IT), (152 bytes).
    Removing stm32f4xx_hal_tim.o(i.HAL_TIM_ErrorCallback), (2 bytes).
    Removing stm32f4xx_hal_tim.o(i.HAL_TIM_GenerateEvent), (54 bytes).
    Removing stm32f4xx_hal_tim.o(i.HAL_TIM_IC_CaptureCallback), (2 bytes).
    Removing stm32f4xx_hal_tim.o(i.HAL_TIM_IC_CaptureHalfCpltCallback), (2 bytes).
    Removing stm32f4xx_hal_tim.o(i.HAL_TIM_IC_ConfigChannel), (224 bytes).
    Removing stm32f4xx_hal_tim.o(i.HAL_TIM_IC_DeInit), (70 bytes).
    Removing stm32f4xx_hal_tim.o(i.HAL_TIM_IC_GetState), (8 bytes).
    Removing stm32f4xx_hal_tim.o(i.HAL_TIM_IC_Init), (52 bytes).
    Removing stm32f4xx_hal_tim.o(i.HAL_TIM_IC_MspDeInit), (2 bytes).
    Removing stm32f4xx_hal_tim.o(i.HAL_TIM_IC_MspInit), (2 bytes).
    Removing stm32f4xx_hal_tim.o(i.HAL_TIM_IC_Start), (44 bytes).
    Removing stm32f4xx_hal_tim.o(i.HAL_TIM_IC_Start_DMA), (332 bytes).
    Removing stm32f4xx_hal_tim.o(i.HAL_TIM_IC_Start_IT), (120 bytes).
    Removing stm32f4xx_hal_tim.o(i.HAL_TIM_IC_Stop), (58 bytes).
    Removing stm32f4xx_hal_tim.o(i.HAL_TIM_IC_Stop_DMA), (164 bytes).
    Removing stm32f4xx_hal_tim.o(i.HAL_TIM_IC_Stop_IT), (134 bytes).
    Removing stm32f4xx_hal_tim.o(i.HAL_TIM_IRQHandler), (406 bytes).
    Removing stm32f4xx_hal_tim.o(i.HAL_TIM_OC_ConfigChannel), (116 bytes).
    Removing stm32f4xx_hal_tim.o(i.HAL_TIM_OC_DeInit), (70 bytes).
    Removing stm32f4xx_hal_tim.o(i.HAL_TIM_OC_DelayElapsedCallback), (2 bytes).
    Removing stm32f4xx_hal_tim.o(i.HAL_TIM_OC_GetState), (8 bytes).
    Removing stm32f4xx_hal_tim.o(i.HAL_TIM_OC_Init), (52 bytes).
    Removing stm32f4xx_hal_tim.o(i.HAL_TIM_OC_MspDeInit), (2 bytes).
    Removing stm32f4xx_hal_tim.o(i.HAL_TIM_OC_MspInit), (2 bytes).
    Removing stm32f4xx_hal_tim.o(i.HAL_TIM_OC_Start), (88 bytes).
    Removing stm32f4xx_hal_tim.o(i.HAL_TIM_OC_Start_DMA), (376 bytes).
    Removing stm32f4xx_hal_tim.o(i.HAL_TIM_OC_Start_IT), (164 bytes).
    Removing stm32f4xx_hal_tim.o(i.HAL_TIM_OC_Stop), (128 bytes).
    Removing stm32f4xx_hal_tim.o(i.HAL_TIM_OC_Stop_DMA), (236 bytes).
    Removing stm32f4xx_hal_tim.o(i.HAL_TIM_OC_Stop_IT), (204 bytes).
    Removing stm32f4xx_hal_tim.o(i.HAL_TIM_OnePulse_ConfigChannel), (286 bytes).
    Removing stm32f4xx_hal_tim.o(i.HAL_TIM_OnePulse_DeInit), (70 bytes).
    Removing stm32f4xx_hal_tim.o(i.HAL_TIM_OnePulse_GetState), (8 bytes).
    Removing stm32f4xx_hal_tim.o(i.HAL_TIM_OnePulse_Init), (76 bytes).
    Removing stm32f4xx_hal_tim.o(i.HAL_TIM_OnePulse_MspDeInit), (2 bytes).
    Removing stm32f4xx_hal_tim.o(i.HAL_TIM_OnePulse_MspInit), (2 bytes).
    Removing stm32f4xx_hal_tim.o(i.HAL_TIM_OnePulse_Start), (76 bytes).
    Removing stm32f4xx_hal_tim.o(i.HAL_TIM_OnePulse_Start_IT), (100 bytes).
    Removing stm32f4xx_hal_tim.o(i.HAL_TIM_OnePulse_Stop), (140 bytes).
    Removing stm32f4xx_hal_tim.o(i.HAL_TIM_OnePulse_Stop_IT), (164 bytes).
    Removing stm32f4xx_hal_tim.o(i.HAL_TIM_PWM_ConfigChannel), (264 bytes).
    Removing stm32f4xx_hal_tim.o(i.HAL_TIM_PWM_DeInit), (70 bytes).
    Removing stm32f4xx_hal_tim.o(i.HAL_TIM_PWM_GetState), (8 bytes).
    Removing stm32f4xx_hal_tim.o(i.HAL_TIM_PWM_Init), (52 bytes).
    Removing stm32f4xx_hal_tim.o(i.HAL_TIM_PWM_MspDeInit), (2 bytes).
    Removing stm32f4xx_hal_tim.o(i.HAL_TIM_PWM_MspInit), (2 bytes).
    Removing stm32f4xx_hal_tim.o(i.HAL_TIM_PWM_PulseFinishedCallback), (2 bytes).
    Removing stm32f4xx_hal_tim.o(i.HAL_TIM_PWM_PulseFinishedHalfCpltCallback), (2 bytes).
    Removing stm32f4xx_hal_tim.o(i.HAL_TIM_PWM_Start), (88 bytes).
    Removing stm32f4xx_hal_tim.o(i.HAL_TIM_PWM_Start_DMA), (376 bytes).
    Removing stm32f4xx_hal_tim.o(i.HAL_TIM_PWM_Start_IT), (164 bytes).
    Removing stm32f4xx_hal_tim.o(i.HAL_TIM_PWM_Stop), (136 bytes).
    Removing stm32f4xx_hal_tim.o(i.HAL_TIM_PWM_Stop_DMA), (236 bytes).
    Removing stm32f4xx_hal_tim.o(i.HAL_TIM_PWM_Stop_IT), (204 bytes).
    Removing stm32f4xx_hal_tim.o(i.HAL_TIM_PeriodElapsedCallback), (2 bytes).
    Removing stm32f4xx_hal_tim.o(i.HAL_TIM_PeriodElapsedHalfCpltCallback), (2 bytes).
    Removing stm32f4xx_hal_tim.o(i.HAL_TIM_ReadCapturedValue), (50 bytes).
    Removing stm32f4xx_hal_tim.o(i.HAL_TIM_SlaveConfigSynchro), (108 bytes).
    Removing stm32f4xx_hal_tim.o(i.HAL_TIM_SlaveConfigSynchro_IT), (108 bytes).
    Removing stm32f4xx_hal_tim.o(i.HAL_TIM_TriggerCallback), (2 bytes).
    Removing stm32f4xx_hal_tim.o(i.HAL_TIM_TriggerHalfCpltCallback), (2 bytes).
    Removing stm32f4xx_hal_tim.o(i.TIM_CCxChannelCmd), (34 bytes).
    Removing stm32f4xx_hal_tim.o(i.TIM_DMACaptureCplt), (70 bytes).
    Removing stm32f4xx_hal_tim.o(i.TIM_DMACaptureHalfCplt), (70 bytes).
    Removing stm32f4xx_hal_tim.o(i.TIM_DMADelayPulseCplt), (70 bytes).
    Removing stm32f4xx_hal_tim.o(i.TIM_DMADelayPulseHalfCplt), (70 bytes).
    Removing stm32f4xx_hal_tim.o(i.TIM_DMAError), (20 bytes).
    Removing stm32f4xx_hal_tim.o(i.TIM_DMAPeriodElapsedCplt), (20 bytes).
    Removing stm32f4xx_hal_tim.o(i.TIM_DMAPeriodElapsedHalfCplt), (20 bytes).
    Removing stm32f4xx_hal_tim.o(i.TIM_DMATriggerCplt), (20 bytes).
    Removing stm32f4xx_hal_tim.o(i.TIM_DMATriggerHalfCplt), (20 bytes).
    Removing stm32f4xx_hal_tim.o(i.TIM_OC1_SetConfig), (112 bytes).
    Removing stm32f4xx_hal_tim.o(i.TIM_OC2_SetConfig), (124 bytes).
    Removing stm32f4xx_hal_tim.o(i.TIM_OC3_SetConfig), (120 bytes).
    Removing stm32f4xx_hal_tim.o(i.TIM_OC4_SetConfig), (84 bytes).
    Removing stm32f4xx_hal_tim.o(i.TIM_SlaveTimer_SetConfig), (170 bytes).
    Removing stm32f4xx_hal_tim.o(i.TIM_TI1_SetConfig), (144 bytes).
    Removing stm32f4xx_hal_tim.o(i.TIM_TI2_SetConfig), (58 bytes).
    Removing stm32f4xx_hal_tim.o(i.TIM_TI3_SetConfig), (56 bytes).
    Removing stm32f4xx_hal_tim.o(i.TIM_TI4_SetConfig), (60 bytes).
    Removing stm32f4xx_hal_tim_ex.o(.rev16_text), (4 bytes).
    Removing stm32f4xx_hal_tim_ex.o(.revsh_text), (4 bytes).
    Removing stm32f4xx_hal_tim_ex.o(.rrx_text), (6 bytes).
    Removing stm32f4xx_hal_tim_ex.o(i.HAL_TIMEx_BreakCallback), (2 bytes).
    Removing stm32f4xx_hal_tim_ex.o(i.HAL_TIMEx_CommutCallback), (2 bytes).
    Removing stm32f4xx_hal_tim_ex.o(i.HAL_TIMEx_CommutHalfCpltCallback), (2 bytes).
    Removing stm32f4xx_hal_tim_ex.o(i.HAL_TIMEx_ConfigBreakDeadTime), (116 bytes).
    Removing stm32f4xx_hal_tim_ex.o(i.HAL_TIMEx_ConfigCommutEvent), (134 bytes).
    Removing stm32f4xx_hal_tim_ex.o(i.HAL_TIMEx_ConfigCommutEvent_DMA), (164 bytes).
    Removing stm32f4xx_hal_tim_ex.o(i.HAL_TIMEx_ConfigCommutEvent_IT), (134 bytes).
    Removing stm32f4xx_hal_tim_ex.o(i.HAL_TIMEx_HallSensor_DeInit), (70 bytes).
    Removing stm32f4xx_hal_tim_ex.o(i.HAL_TIMEx_HallSensor_GetState), (8 bytes).
    Removing stm32f4xx_hal_tim_ex.o(i.HAL_TIMEx_HallSensor_Init), (208 bytes).
    Removing stm32f4xx_hal_tim_ex.o(i.HAL_TIMEx_HallSensor_MspDeInit), (2 bytes).
    Removing stm32f4xx_hal_tim_ex.o(i.HAL_TIMEx_HallSensor_MspInit), (2 bytes).
    Removing stm32f4xx_hal_tim_ex.o(i.HAL_TIMEx_HallSensor_Start), (42 bytes).
    Removing stm32f4xx_hal_tim_ex.o(i.HAL_TIMEx_HallSensor_Start_DMA), (144 bytes).
    Removing stm32f4xx_hal_tim_ex.o(i.HAL_TIMEx_HallSensor_Start_IT), (54 bytes).
    Removing stm32f4xx_hal_tim_ex.o(i.HAL_TIMEx_HallSensor_Stop), (56 bytes).
    Removing stm32f4xx_hal_tim_ex.o(i.HAL_TIMEx_HallSensor_Stop_DMA), (74 bytes).
    Removing stm32f4xx_hal_tim_ex.o(i.HAL_TIMEx_HallSensor_Stop_IT), (68 bytes).
    Removing stm32f4xx_hal_tim_ex.o(i.HAL_TIMEx_OCN_Start), (56 bytes).
    Removing stm32f4xx_hal_tim_ex.o(i.HAL_TIMEx_OCN_Start_DMA), (288 bytes).
    Removing stm32f4xx_hal_tim_ex.o(i.HAL_TIMEx_OCN_Start_IT), (126 bytes).
    Removing stm32f4xx_hal_tim_ex.o(i.HAL_TIMEx_OCN_Stop), (96 bytes).
    Removing stm32f4xx_hal_tim_ex.o(i.HAL_TIMEx_OCN_Stop_DMA), (178 bytes).
    Removing stm32f4xx_hal_tim_ex.o(i.HAL_TIMEx_OCN_Stop_IT), (178 bytes).
    Removing stm32f4xx_hal_tim_ex.o(i.HAL_TIMEx_OnePulseN_Start), (32 bytes).
    Removing stm32f4xx_hal_tim_ex.o(i.HAL_TIMEx_OnePulseN_Start_IT), (56 bytes).
    Removing stm32f4xx_hal_tim_ex.o(i.HAL_TIMEx_OnePulseN_Stop), (96 bytes).
    Removing stm32f4xx_hal_tim_ex.o(i.HAL_TIMEx_OnePulseN_Stop_IT), (120 bytes).
    Removing stm32f4xx_hal_tim_ex.o(i.HAL_TIMEx_PWMN_Start), (56 bytes).
    Removing stm32f4xx_hal_tim_ex.o(i.HAL_TIMEx_PWMN_Start_DMA), (288 bytes).
    Removing stm32f4xx_hal_tim_ex.o(i.HAL_TIMEx_PWMN_Start_IT), (126 bytes).
    Removing stm32f4xx_hal_tim_ex.o(i.HAL_TIMEx_PWMN_Stop), (96 bytes).
    Removing stm32f4xx_hal_tim_ex.o(i.HAL_TIMEx_PWMN_Stop_DMA), (178 bytes).
    Removing stm32f4xx_hal_tim_ex.o(i.HAL_TIMEx_PWMN_Stop_IT), (178 bytes).
    Removing stm32f4xx_hal_tim_ex.o(i.HAL_TIMEx_RemapConfig), (42 bytes).
    Removing stm32f4xx_hal_tim_ex.o(i.TIMEx_DMACommutationCplt), (20 bytes).
    Removing stm32f4xx_hal_tim_ex.o(i.TIMEx_DMACommutationHalfCplt), (20 bytes).
    Removing stm32f4xx_hal_tim_ex.o(i.TIM_CCxNChannelCmd), (34 bytes).
    Removing stm32f4xx_ll_usart.o(.rev16_text), (4 bytes).
    Removing stm32f4xx_ll_usart.o(.revsh_text), (4 bytes).
    Removing stm32f4xx_ll_usart.o(.rrx_text), (6 bytes).
    Removing stm32f4xx_ll_usart.o(i.LL_APB1_GRP1_ForceReset), (16 bytes).
    Removing stm32f4xx_ll_usart.o(i.LL_APB1_GRP1_ReleaseReset), (16 bytes).
    Removing stm32f4xx_ll_usart.o(i.LL_APB2_GRP1_ForceReset), (16 bytes).
    Removing stm32f4xx_ll_usart.o(i.LL_APB2_GRP1_ReleaseReset), (16 bytes).
    Removing stm32f4xx_ll_usart.o(i.LL_USART_ClockInit), (66 bytes).
    Removing stm32f4xx_ll_usart.o(i.LL_USART_ClockStructInit), (12 bytes).
    Removing stm32f4xx_ll_usart.o(i.LL_USART_DeInit), (224 bytes).
    Removing stm32f4xx_ll_usart.o(i.LL_USART_StructInit), (26 bytes).
    Removing stm32f4xx_ll_usart.o(.constdata), (4 bytes).
    Removing stm32f4xx_ll_gpio.o(.rev16_text), (4 bytes).
    Removing stm32f4xx_ll_gpio.o(.revsh_text), (4 bytes).
    Removing stm32f4xx_ll_gpio.o(.rrx_text), (6 bytes).
    Removing stm32f4xx_ll_gpio.o(i.LL_AHB1_GRP1_ForceReset), (16 bytes).
    Removing stm32f4xx_ll_gpio.o(i.LL_AHB1_GRP1_ReleaseReset), (16 bytes).
    Removing stm32f4xx_ll_gpio.o(i.LL_GPIO_DeInit), (276 bytes).
    Removing stm32f4xx_ll_gpio.o(i.LL_GPIO_StructInit), (22 bytes).
    Removing stm32f4xx_ll_dma.o(.rev16_text), (4 bytes).
    Removing stm32f4xx_ll_dma.o(.revsh_text), (4 bytes).
    Removing stm32f4xx_ll_dma.o(.rrx_text), (6 bytes).
    Removing stm32f4xx_ll_dma.o(i.LL_AHB1_GRP1_ForceReset), (16 bytes).
    Removing stm32f4xx_ll_dma.o(i.LL_AHB1_GRP1_ReleaseReset), (16 bytes).
    Removing stm32f4xx_ll_dma.o(i.LL_DMA_DeInit), (484 bytes).
    Removing stm32f4xx_ll_dma.o(i.LL_DMA_Init), (216 bytes).
    Removing stm32f4xx_ll_dma.o(i.LL_DMA_SetChannelSelection), (28 bytes).
    Removing stm32f4xx_ll_dma.o(i.LL_DMA_StructInit), (34 bytes).
    Removing stm32f4xx_ll_dma.o(.constdata), (8 bytes).
    Removing system_stm32f4xx.o(.rev16_text), (4 bytes).
    Removing system_stm32f4xx.o(.revsh_text), (4 bytes).
    Removing system_stm32f4xx.o(.rrx_text), (6 bytes).
    Removing system_stm32f4xx.o(i.SystemCoreClockUpdate), (192 bytes).
    Removing dadd.o(.text), (334 bytes).
    Removing dmul.o(.text), (228 bytes).
    Removing ddiv.o(.text), (222 bytes).
    Removing dfixul.o(.text), (48 bytes).
    Removing cdrcmple.o(.text), (48 bytes).
    Removing depilogue.o(.text), (186 bytes).

621 unused section(s) (total 50650 bytes) removed from the image.

==============================================================================

Image Symbol Table

    Local Symbols

    Symbol Name                              Value     Ov Type        Size  Object(Section)

    ../Drivers/STM32F4xx_HAL_Driver/Src/stm32f4xx_hal.c 0x00000000   Number         0  stm32f4xx_hal.o ABSOLUTE
    ../Drivers/STM32F4xx_HAL_Driver/Src/stm32f4xx_hal_cortex.c 0x00000000   Number         0  stm32f4xx_hal_cortex.o ABSOLUTE
    ../Drivers/STM32F4xx_HAL_Driver/Src/stm32f4xx_hal_dma.c 0x00000000   Number         0  stm32f4xx_hal_dma.o ABSOLUTE
    ../Drivers/STM32F4xx_HAL_Driver/Src/stm32f4xx_hal_dma_ex.c 0x00000000   Number         0  stm32f4xx_hal_dma_ex.o ABSOLUTE
    ../Drivers/STM32F4xx_HAL_Driver/Src/stm32f4xx_hal_exti.c 0x00000000   Number         0  stm32f4xx_hal_exti.o ABSOLUTE
    ../Drivers/STM32F4xx_HAL_Driver/Src/stm32f4xx_hal_flash.c 0x00000000   Number         0  stm32f4xx_hal_flash.o ABSOLUTE
    ../Drivers/STM32F4xx_HAL_Driver/Src/stm32f4xx_hal_flash_ex.c 0x00000000   Number         0  stm32f4xx_hal_flash_ex.o ABSOLUTE
    ../Drivers/STM32F4xx_HAL_Driver/Src/stm32f4xx_hal_flash_ramfunc.c 0x00000000   Number         0  stm32f4xx_hal_flash_ramfunc.o ABSOLUTE
    ../Drivers/STM32F4xx_HAL_Driver/Src/stm32f4xx_hal_gpio.c 0x00000000   Number         0  stm32f4xx_hal_gpio.o ABSOLUTE
    ../Drivers/STM32F4xx_HAL_Driver/Src/stm32f4xx_hal_i2s.c 0x00000000   Number         0  stm32f4xx_hal_i2s.o ABSOLUTE
    ../Drivers/STM32F4xx_HAL_Driver/Src/stm32f4xx_hal_i2s_ex.c 0x00000000   Number         0  stm32f4xx_hal_i2s_ex.o ABSOLUTE
    ../Drivers/STM32F4xx_HAL_Driver/Src/stm32f4xx_hal_pwr.c 0x00000000   Number         0  stm32f4xx_hal_pwr.o ABSOLUTE
    ../Drivers/STM32F4xx_HAL_Driver/Src/stm32f4xx_hal_pwr_ex.c 0x00000000   Number         0  stm32f4xx_hal_pwr_ex.o ABSOLUTE
    ../Drivers/STM32F4xx_HAL_Driver/Src/stm32f4xx_hal_rcc.c 0x00000000   Number         0  stm32f4xx_hal_rcc.o ABSOLUTE
    ../Drivers/STM32F4xx_HAL_Driver/Src/stm32f4xx_hal_rcc_ex.c 0x00000000   Number         0  stm32f4xx_hal_rcc_ex.o ABSOLUTE
    ../Drivers/STM32F4xx_HAL_Driver/Src/stm32f4xx_hal_sai.c 0x00000000   Number         0  stm32f4xx_hal_sai.o ABSOLUTE
    ../Drivers/STM32F4xx_HAL_Driver/Src/stm32f4xx_hal_sai_ex.c 0x00000000   Number         0  stm32f4xx_hal_sai_ex.o ABSOLUTE
    ../Drivers/STM32F4xx_HAL_Driver/Src/stm32f4xx_hal_spi.c 0x00000000   Number         0  stm32f4xx_hal_spi.o ABSOLUTE
    ../Drivers/STM32F4xx_HAL_Driver/Src/stm32f4xx_hal_tim.c 0x00000000   Number         0  stm32f4xx_hal_tim.o ABSOLUTE
    ../Drivers/STM32F4xx_HAL_Driver/Src/stm32f4xx_hal_tim_ex.c 0x00000000   Number         0  stm32f4xx_hal_tim_ex.o ABSOLUTE
    ../Drivers/STM32F4xx_HAL_Driver/Src/stm32f4xx_ll_dma.c 0x00000000   Number         0  stm32f4xx_ll_dma.o ABSOLUTE
    ../Drivers/STM32F4xx_HAL_Driver/Src/stm32f4xx_ll_exti.c 0x00000000   Number         0  stm32f4xx_ll_exti.o ABSOLUTE
    ../Drivers/STM32F4xx_HAL_Driver/Src/stm32f4xx_ll_gpio.c 0x00000000   Number         0  stm32f4xx_ll_gpio.o ABSOLUTE
    ../Drivers/STM32F4xx_HAL_Driver/Src/stm32f4xx_ll_rcc.c 0x00000000   Number         0  stm32f4xx_ll_rcc.o ABSOLUTE
    ../Drivers/STM32F4xx_HAL_Driver/Src/stm32f4xx_ll_usart.c 0x00000000   Number         0  stm32f4xx_ll_usart.o ABSOLUTE
    ../Drivers/STM32F4xx_HAL_Driver/Src/stm32f4xx_ll_utils.c 0x00000000   Number         0  stm32f4xx_ll_utils.o ABSOLUTE
    ../Src/main.c                            0x00000000   Number         0  main.o ABSOLUTE
    ../Src/stm32f4xx_hal_msp.c               0x00000000   Number         0  stm32f4xx_hal_msp.o ABSOLUTE
    ../Src/stm32f4xx_it.c                    0x00000000   Number         0  stm32f4xx_it.o ABSOLUTE
    ../Src/system_stm32f4xx.c                0x00000000   Number         0  system_stm32f4xx.o ABSOLUTE
    ../clib/../cmprslib/zerorunl2.c          0x00000000   Number         0  __dczerorl2.o ABSOLUTE
    ../clib/microlib/division.c              0x00000000   Number         0  uidiv.o ABSOLUTE
    ../clib/microlib/division.c              0x00000000   Number         0  uldiv.o ABSOLUTE
    ../clib/microlib/init/entry.s            0x00000000   Number         0  entry.o ABSOLUTE
    ../clib/microlib/init/entry.s            0x00000000   Number         0  entry10a.o ABSOLUTE
    ../clib/microlib/init/entry.s            0x00000000   Number         0  entry11b.o ABSOLUTE
    ../clib/microlib/init/entry.s            0x00000000   Number         0  entry11a.o ABSOLUTE
    ../clib/microlib/init/entry.s            0x00000000   Number         0  entry10b.o ABSOLUTE
    ../clib/microlib/init/entry.s            0x00000000   Number         0  entry9b.o ABSOLUTE
    ../clib/microlib/init/entry.s            0x00000000   Number         0  entry8a.o ABSOLUTE
    ../clib/microlib/init/entry.s            0x00000000   Number         0  entry9a.o ABSOLUTE
    ../clib/microlib/init/entry.s            0x00000000   Number         0  entry8b.o ABSOLUTE
    ../clib/microlib/init/entry.s            0x00000000   Number         0  entry7b.o ABSOLUTE
    ../clib/microlib/init/entry.s            0x00000000   Number         0  entry7a.o ABSOLUTE
    ../clib/microlib/init/entry.s            0x00000000   Number         0  entry5.o ABSOLUTE
    ../clib/microlib/init/entry.s            0x00000000   Number         0  entry2.o ABSOLUTE
    ../clib/microlib/longlong.c              0x00000000   Number         0  llushr.o ABSOLUTE
    ../clib/microlib/longlong.c              0x00000000   Number         0  llshl.o ABSOLUTE
    ../clib/microlib/longlong.c              0x00000000   Number         0  llsshr.o ABSOLUTE
    ../clib/microlib/printf/printf.c         0x00000000   Number         0  printf5.o ABSOLUTE
    ../clib/microlib/printf/printf.c         0x00000000   Number         0  printf6.o ABSOLUTE
    ../clib/microlib/printf/printf.c         0x00000000   Number         0  printfb.o ABSOLUTE
    ../clib/microlib/printf/printf.c         0x00000000   Number         0  printf1.o ABSOLUTE
    ../clib/microlib/printf/printf.c         0x00000000   Number         0  printf0.o ABSOLUTE
    ../clib/microlib/printf/printf.c         0x00000000   Number         0  printf2.o ABSOLUTE
    ../clib/microlib/printf/printf.c         0x00000000   Number         0  printf3.o ABSOLUTE
    ../clib/microlib/printf/printf.c         0x00000000   Number         0  printf4.o ABSOLUTE
    ../clib/microlib/printf/printf.c         0x00000000   Number         0  printfa.o ABSOLUTE
    ../clib/microlib/printf/printf.c         0x00000000   Number         0  printf8.o ABSOLUTE
    ../clib/microlib/printf/printf.c         0x00000000   Number         0  printf7.o ABSOLUTE
    ../clib/microlib/printf/stubs.s          0x00000000   Number         0  stubs.o ABSOLUTE
    ../clib/microlib/stdio/fputc.c           0x00000000   Number         0  fputc.o ABSOLUTE
    ../clib/microlib/stdio/semi.s            0x00000000   Number         0  semi.o ABSOLUTE
    ../clib/microlib/stdio/streams.c         0x00000000   Number         0  stdout.o ABSOLUTE
    ../clib/microlib/string/memcmp.c         0x00000000   Number         0  memcmp.o ABSOLUTE
    ../clib/microlib/string/memcpy.c         0x00000000   Number         0  memmoveb.o ABSOLUTE
    ../clib/microlib/string/memcpy.c         0x00000000   Number         0  memcpyb.o ABSOLUTE
    ../clib/microlib/string/memcpy.c         0x00000000   Number         0  memmovea.o ABSOLUTE
    ../clib/microlib/string/memcpy.c         0x00000000   Number         0  memcpya.o ABSOLUTE
    ../clib/microlib/string/memset.c         0x00000000   Number         0  memseta.o ABSOLUTE
    ../clib/microlib/string/strcpy.c         0x00000000   Number         0  strcpy.o ABSOLUTE
    ../clib/microlib/stubs.s                 0x00000000   Number         0  iusefp.o ABSOLUTE
    ../clib/microlib/stubs.s                 0x00000000   Number         0  iusesemip.o ABSOLUTE
    ../fplib/microlib/fpadd.c                0x00000000   Number         0  dadd.o ABSOLUTE
    ../fplib/microlib/fpdiv.c                0x00000000   Number         0  ddiv.o ABSOLUTE
    ../fplib/microlib/fpepilogue.c           0x00000000   Number         0  depilogue.o ABSOLUTE
    ../fplib/microlib/fpfix.c                0x00000000   Number         0  dfixul.o ABSOLUTE
    ../fplib/microlib/fpmul.c                0x00000000   Number         0  dmul.o ABSOLUTE
    ..\Drivers\STM32F4xx_HAL_Driver\Src\stm32f4xx_hal.c 0x00000000   Number         0  stm32f4xx_hal.o ABSOLUTE
    ..\Drivers\STM32F4xx_HAL_Driver\Src\stm32f4xx_hal_cortex.c 0x00000000   Number         0  stm32f4xx_hal_cortex.o ABSOLUTE
    ..\Drivers\STM32F4xx_HAL_Driver\Src\stm32f4xx_hal_dma.c 0x00000000   Number         0  stm32f4xx_hal_dma.o ABSOLUTE
    ..\Drivers\STM32F4xx_HAL_Driver\Src\stm32f4xx_hal_dma_ex.c 0x00000000   Number         0  stm32f4xx_hal_dma_ex.o ABSOLUTE
    ..\Drivers\STM32F4xx_HAL_Driver\Src\stm32f4xx_hal_exti.c 0x00000000   Number         0  stm32f4xx_hal_exti.o ABSOLUTE
    ..\Drivers\STM32F4xx_HAL_Driver\Src\stm32f4xx_hal_flash.c 0x00000000   Number         0  stm32f4xx_hal_flash.o ABSOLUTE
    ..\Drivers\STM32F4xx_HAL_Driver\Src\stm32f4xx_hal_flash_ex.c 0x00000000   Number         0  stm32f4xx_hal_flash_ex.o ABSOLUTE
    ..\Drivers\STM32F4xx_HAL_Driver\Src\stm32f4xx_hal_flash_ramfunc.c 0x00000000   Number         0  stm32f4xx_hal_flash_ramfunc.o ABSOLUTE
    ..\Drivers\STM32F4xx_HAL_Driver\Src\stm32f4xx_hal_gpio.c 0x00000000   Number         0  stm32f4xx_hal_gpio.o ABSOLUTE
    ..\Drivers\STM32F4xx_HAL_Driver\Src\stm32f4xx_hal_i2s.c 0x00000000   Number         0  stm32f4xx_hal_i2s.o ABSOLUTE
    ..\Drivers\STM32F4xx_HAL_Driver\Src\stm32f4xx_hal_i2s_ex.c 0x00000000   Number         0  stm32f4xx_hal_i2s_ex.o ABSOLUTE
    ..\Drivers\STM32F4xx_HAL_Driver\Src\stm32f4xx_hal_pwr.c 0x00000000   Number         0  stm32f4xx_hal_pwr.o ABSOLUTE
    ..\Drivers\STM32F4xx_HAL_Driver\Src\stm32f4xx_hal_pwr_ex.c 0x00000000   Number         0  stm32f4xx_hal_pwr_ex.o ABSOLUTE
    ..\Drivers\STM32F4xx_HAL_Driver\Src\stm32f4xx_hal_rcc.c 0x00000000   Number         0  stm32f4xx_hal_rcc.o ABSOLUTE
    ..\Drivers\STM32F4xx_HAL_Driver\Src\stm32f4xx_hal_rcc_ex.c 0x00000000   Number         0  stm32f4xx_hal_rcc_ex.o ABSOLUTE
    ..\Drivers\STM32F4xx_HAL_Driver\Src\stm32f4xx_hal_sai.c 0x00000000   Number         0  stm32f4xx_hal_sai.o ABSOLUTE
    ..\Drivers\STM32F4xx_HAL_Driver\Src\stm32f4xx_hal_sai_ex.c 0x00000000   Number         0  stm32f4xx_hal_sai_ex.o ABSOLUTE
    ..\Drivers\STM32F4xx_HAL_Driver\Src\stm32f4xx_hal_spi.c 0x00000000   Number         0  stm32f4xx_hal_spi.o ABSOLUTE
    ..\Drivers\STM32F4xx_HAL_Driver\Src\stm32f4xx_hal_tim.c 0x00000000   Number         0  stm32f4xx_hal_tim.o ABSOLUTE
    ..\Drivers\STM32F4xx_HAL_Driver\Src\stm32f4xx_hal_tim_ex.c 0x00000000   Number         0  stm32f4xx_hal_tim_ex.o ABSOLUTE
    ..\Drivers\STM32F4xx_HAL_Driver\Src\stm32f4xx_ll_dma.c 0x00000000   Number         0  stm32f4xx_ll_dma.o ABSOLUTE
    ..\Drivers\STM32F4xx_HAL_Driver\Src\stm32f4xx_ll_exti.c 0x00000000   Number         0  stm32f4xx_ll_exti.o ABSOLUTE
    ..\Drivers\STM32F4xx_HAL_Driver\Src\stm32f4xx_ll_gpio.c 0x00000000   Number         0  stm32f4xx_ll_gpio.o ABSOLUTE
    ..\Drivers\STM32F4xx_HAL_Driver\Src\stm32f4xx_ll_rcc.c 0x00000000   Number         0  stm32f4xx_ll_rcc.o ABSOLUTE
    ..\Drivers\STM32F4xx_HAL_Driver\Src\stm32f4xx_ll_usart.c 0x00000000   Number         0  stm32f4xx_ll_usart.o ABSOLUTE
    ..\Drivers\STM32F4xx_HAL_Driver\Src\stm32f4xx_ll_utils.c 0x00000000   Number         0  stm32f4xx_ll_utils.o ABSOLUTE
    ..\Src\CRC-16_CCITT.c                    0x00000000   Number         0  crc-16_ccitt.o ABSOLUTE
    ..\Src\HDLC_Rx.c                         0x00000000   Number         0  hdlc_rx.o ABSOLUTE
    ..\Src\HDLC_Rx_low_level.c               0x00000000   Number         0  hdlc_rx_low_level.o ABSOLUTE
    ..\Src\HDLC_Tx.c                         0x00000000   Number         0  hdlc_tx.o ABSOLUTE
    ..\Src\HDLC_Tx_low_level.c               0x00000000   Number         0  hdlc_tx_low_level.o ABSOLUTE
    ..\Src\ST-BUS_SAI_in_out.c               0x00000000   Number         0  st-bus_sai_in_out.o ABSOLUTE
    ..\Src\audio_in_out.c                    0x00000000   Number         0  audio_in_out.o ABSOLUTE
    ..\Src\codec.c                           0x00000000   Number         0  codec.o ABSOLUTE
    ..\Src\g711.c                            0x00000000   Number         0  g711.o ABSOLUTE
    ..\Src\main.c                            0x00000000   Number         0  main.o ABSOLUTE
    ..\Src\mt9092_logic.c                    0x00000000   Number         0  mt9092_logic.o ABSOLUTE
    ..\Src\mt9092_registers.c                0x00000000   Number         0  mt9092_registers.o ABSOLUTE
    ..\Src\spi_interface.c                   0x00000000   Number         0  spi_interface.o ABSOLUTE
    ..\Src\stm32f4xx_hal_msp.c               0x00000000   Number         0  stm32f4xx_hal_msp.o ABSOLUTE
    ..\Src\stm32f4xx_it.c                    0x00000000   Number         0  stm32f4xx_it.o ABSOLUTE
    ..\Src\system_stm32f4xx.c                0x00000000   Number         0  system_stm32f4xx.o ABSOLUTE
    ..\Src\uart.c                            0x00000000   Number         0  uart.o ABSOLUTE
    ..\\Src\\HDLC_Rx.c                       0x00000000   Number         0  hdlc_rx.o ABSOLUTE
    ..\\Src\\HDLC_Rx_low_level.c             0x00000000   Number         0  hdlc_rx_low_level.o ABSOLUTE
    ..\\Src\\HDLC_Tx.c                       0x00000000   Number         0  hdlc_tx.o ABSOLUTE
    ..\\Src\\HDLC_Tx_low_level.c             0x00000000   Number         0  hdlc_tx_low_level.o ABSOLUTE
    ..\\Src\\ST-BUS_SAI_in_out.c             0x00000000   Number         0  st-bus_sai_in_out.o ABSOLUTE
    ..\\Src\\audio_in_out.c                  0x00000000   Number         0  audio_in_out.o ABSOLUTE
    ..\\Src\\codec.c                         0x00000000   Number         0  codec.o ABSOLUTE
    ..\\Src\\g711.c                          0x00000000   Number         0  g711.o ABSOLUTE
    ..\\Src\\mt9092_logic.c                  0x00000000   Number         0  mt9092_logic.o ABSOLUTE
    ..\\Src\\spi_interface.c                 0x00000000   Number         0  spi_interface.o ABSOLUTE
    ..\\Src\\uart.c                          0x00000000   Number         0  uart.o ABSOLUTE
    cdrcmple.s                               0x00000000   Number         0  cdrcmple.o ABSOLUTE
    dc.s                                     0x00000000   Number         0  dc.o ABSOLUTE
    handlers.s                               0x00000000   Number         0  handlers.o ABSOLUTE
    init.s                                   0x00000000   Number         0  init.o ABSOLUTE
    startup_stm32f429xx.s                    0x00000000   Number         0  startup_stm32f429xx.o ABSOLUTE
    RESET                                    0x08000000   Section      428  startup_stm32f429xx.o(RESET)
    .ARM.Collect$$$$00000000                 0x080001ac   Section        0  entry.o(.ARM.Collect$$$$00000000)
    .ARM.Collect$$$$00000001                 0x080001ac   Section        4  entry2.o(.ARM.Collect$$$$00000001)
    .ARM.Collect$$$$00000004                 0x080001b0   Section        4  entry5.o(.ARM.Collect$$$$00000004)
    .ARM.Collect$$$$00000008                 0x080001b4   Section        0  entry7b.o(.ARM.Collect$$$$00000008)
    .ARM.Collect$$$$0000000A                 0x080001b4   Section        0  entry8b.o(.ARM.Collect$$$$0000000A)
    .ARM.Collect$$$$0000000B                 0x080001b4   Section        8  entry9a.o(.ARM.Collect$$$$0000000B)
    .ARM.Collect$$$$0000000D                 0x080001bc   Section        0  entry10a.o(.ARM.Collect$$$$0000000D)
    .ARM.Collect$$$$0000000F                 0x080001bc   Section        0  entry11a.o(.ARM.Collect$$$$0000000F)
    .ARM.Collect$$$$00002712                 0x080001bc   Section        4  entry2.o(.ARM.Collect$$$$00002712)
    __lit__00000000                          0x080001bc   Data           4  entry2.o(.ARM.Collect$$$$00002712)
    .text                                    0x080001c0   Section       36  startup_stm32f429xx.o(.text)
    $v0                                      0x080001c0   Number         0  startup_stm32f429xx.o(.text)
    .text                                    0x080001e4   Section        0  uldiv.o(.text)
    .text                                    0x08000246   Section        0  memmovea.o(.text)
    .text                                    0x08000286   Section        0  memseta.o(.text)
    .text                                    0x080002aa   Section        0  memcmp.o(.text)
    .text                                    0x080002c4   Section        0  strcpy.o(.text)
    .text                                    0x080002d6   Section        0  llshl.o(.text)
    .text                                    0x080002f4   Section        0  llushr.o(.text)
    .text                                    0x08000314   Section       36  init.o(.text)
    .text                                    0x08000338   Section        0  __dczerorl2.o(.text)
    i.AudioInOutInit                         0x08000390   Section        0  audio_in_out.o(i.AudioInOutInit)
    i.AudioInPop                             0x080004ec   Section        0  audio_in_out.o(i.AudioInPop)
    i.AudioInit                              0x08000550   Section        0  g711.o(i.AudioInit)
    i.AudioOutPush                           0x08000554   Section        0  audio_in_out.o(i.AudioOutPush)
    i.AudioSamleFromADC                      0x080005b4   Section        0  g711.o(i.AudioSamleFromADC)
    i.AudioSamleToDAC                        0x080005c4   Section        0  g711.o(i.AudioSamleToDAC)
    i.BitRingInit                            0x080006a4   Section        0  hdlc_rx_low_level.o(i.BitRingInit)
    i.BitRingProcessBit                      0x080006ec   Section        0  hdlc_rx_low_level.o(i.BitRingProcessBit)
    i.BusFault_Handler                       0x08000870   Section        0  stm32f4xx_it.o(i.BusFault_Handler)
    i.Crc16                                  0x08000874   Section        0  crc-16_ccitt.o(i.Crc16)
    i.DMA1_Stream5_IRQHandler                0x080008c4   Section        0  stm32f4xx_it.o(i.DMA1_Stream5_IRQHandler)
    i.DMA2_Stream4_IRQHandler                0x080008d4   Section        0  stm32f4xx_it.o(i.DMA2_Stream4_IRQHandler)
    i.DMA_CalcBaseAndBitshift                0x080008e4   Section        0  stm32f4xx_hal_dma.o(i.DMA_CalcBaseAndBitshift)
    DMA_CalcBaseAndBitshift                  0x080008e5   Thumb Code    46  stm32f4xx_hal_dma.o(i.DMA_CalcBaseAndBitshift)
    i.DMA_CheckFifoParam                     0x08000918   Section        0  stm32f4xx_hal_dma.o(i.DMA_CheckFifoParam)
    DMA_CheckFifoParam                       0x08000919   Thumb Code   170  stm32f4xx_hal_dma.o(i.DMA_CheckFifoParam)
    i.DMA_SetConfig                          0x080009c2   Section        0  stm32f4xx_hal_dma.o(i.DMA_SetConfig)
    DMA_SetConfig                            0x080009c3   Thumb Code    44  stm32f4xx_hal_dma.o(i.DMA_SetConfig)
    i.DV_port_input_Init                     0x080009ee   Section        0  st-bus_sai_in_out.o(i.DV_port_input_Init)
    i.DebugMon_Handler                       0x080009fa   Section        0  stm32f4xx_it.o(i.DebugMon_Handler)
    i.EXTI15_10_IRQHandler                   0x080009fc   Section        0  stm32f4xx_it.o(i.EXTI15_10_IRQHandler)
    i.Error_Handler                          0x08000a04   Section        0  main.o(i.Error_Handler)
    i.HAL_DMA_Abort                          0x08000a06   Section        0  stm32f4xx_hal_dma.o(i.HAL_DMA_Abort)
    i.HAL_DMA_Abort_IT                       0x08000ab0   Section        0  stm32f4xx_hal_dma.o(i.HAL_DMA_Abort_IT)
    i.HAL_DMA_IRQHandler                     0x08000ad8   Section        0  stm32f4xx_hal_dma.o(i.HAL_DMA_IRQHandler)
    i.HAL_DMA_Init                           0x08000d18   Section        0  stm32f4xx_hal_dma.o(i.HAL_DMA_Init)
    i.HAL_DMA_Start_IT                       0x08000e04   Section        0  stm32f4xx_hal_dma.o(i.HAL_DMA_Start_IT)
    i.HAL_GPIO_Init                          0x08000e98   Section        0  stm32f4xx_hal_gpio.o(i.HAL_GPIO_Init)
    i.HAL_GPIO_ReadPin                       0x080010b4   Section        0  stm32f4xx_hal_gpio.o(i.HAL_GPIO_ReadPin)
    i.HAL_GPIO_TogglePin                     0x080010c4   Section        0  stm32f4xx_hal_gpio.o(i.HAL_GPIO_TogglePin)
    i.HAL_GPIO_WritePin                      0x080010d6   Section        0  stm32f4xx_hal_gpio.o(i.HAL_GPIO_WritePin)
    i.HAL_GetTick                            0x080010e4   Section        0  stm32f4xx_hal.o(i.HAL_GetTick)
    i.HAL_I2SEx_FullDuplex_IRQHandler        0x080010f0   Section        0  stm32f4xx_hal_i2s_ex.o(i.HAL_I2SEx_FullDuplex_IRQHandler)
    i.HAL_I2SEx_TransmitReceive_DMA          0x08001334   Section        0  stm32f4xx_hal_i2s_ex.o(i.HAL_I2SEx_TransmitReceive_DMA)
    i.HAL_I2SEx_TxRxCpltAltCallback          0x080015b0   Section        0  audio_in_out.o(i.HAL_I2SEx_TxRxCpltAltCallback)
    i.HAL_I2SEx_TxRxCpltCallback             0x08001638   Section        0  stm32f4xx_hal_i2s_ex.o(i.HAL_I2SEx_TxRxCpltCallback)
    i.HAL_I2SEx_TxRxHalfCpltCallback         0x0800163c   Section        0  audio_in_out.o(i.HAL_I2SEx_TxRxHalfCpltCallback)
    i.HAL_I2S_ErrorCallback                  0x080016d4   Section        0  audio_in_out.o(i.HAL_I2S_ErrorCallback)
    i.HAL_I2S_Init                           0x08001700   Section        0  stm32f4xx_hal_i2s.o(i.HAL_I2S_Init)
    i.HAL_I2S_MspInit                        0x080018c0   Section        0  stm32f4xx_hal_msp.o(i.HAL_I2S_MspInit)
    i.HAL_I2S_RxCpltCallback                 0x08001a38   Section        0  stm32f4xx_hal_i2s.o(i.HAL_I2S_RxCpltCallback)
    i.HAL_I2S_TxCpltCallback                 0x08001a3a   Section        0  stm32f4xx_hal_i2s.o(i.HAL_I2S_TxCpltCallback)
    i.HAL_IncTick                            0x08001a3c   Section        0  stm32f4xx_hal.o(i.HAL_IncTick)
    i.HAL_Init                               0x08001a54   Section        0  stm32f4xx_hal.o(i.HAL_Init)
    i.HAL_InitTick                           0x08001a90   Section        0  stm32f4xx_hal.o(i.HAL_InitTick)
    i.HAL_MspInit                            0x08001adc   Section        0  stm32f4xx_hal_msp.o(i.HAL_MspInit)
    i.HAL_NVIC_DisableIRQ                    0x08001b24   Section        0  stm32f4xx_hal_cortex.o(i.HAL_NVIC_DisableIRQ)
    i.HAL_NVIC_EnableIRQ                     0x08001b68   Section        0  stm32f4xx_hal_cortex.o(i.HAL_NVIC_EnableIRQ)
    i.HAL_NVIC_SetPriority                   0x08001b88   Section        0  stm32f4xx_hal_cortex.o(i.HAL_NVIC_SetPriority)
    i.HAL_NVIC_SetPriorityGrouping           0x08001c04   Section        0  stm32f4xx_hal_cortex.o(i.HAL_NVIC_SetPriorityGrouping)
    i.HAL_PWREx_EnableOverDrive              0x08001c2c   Section        0  stm32f4xx_hal_pwr_ex.o(i.HAL_PWREx_EnableOverDrive)
    i.HAL_RCCEx_GetPeriphCLKFreq             0x08001cb8   Section        0  stm32f4xx_hal_rcc_ex.o(i.HAL_RCCEx_GetPeriphCLKFreq)
    i.HAL_RCCEx_PeriphCLKConfig              0x08001d48   Section        0  stm32f4xx_hal_rcc_ex.o(i.HAL_RCCEx_PeriphCLKConfig)
    i.HAL_RCC_ClockConfig                    0x0800204c   Section        0  stm32f4xx_hal_rcc.o(i.HAL_RCC_ClockConfig)
    i.HAL_RCC_GetSysClockFreq                0x080021d0   Section        0  stm32f4xx_hal_rcc.o(i.HAL_RCC_GetSysClockFreq)
    i.HAL_RCC_OscConfig                      0x08002280   Section        0  stm32f4xx_hal_rcc.o(i.HAL_RCC_OscConfig)
    i.HAL_SAI_Abort                          0x08002708   Section        0  stm32f4xx_hal_sai.o(i.HAL_SAI_Abort)
    i.HAL_SAI_ErrorCallback                  0x080027c4   Section        0  st-bus_sai_in_out.o(i.HAL_SAI_ErrorCallback)
    i.HAL_SAI_GetError                       0x08002808   Section        0  stm32f4xx_hal_sai.o(i.HAL_SAI_GetError)
    i.HAL_SAI_Init                           0x08002810   Section        0  stm32f4xx_hal_sai.o(i.HAL_SAI_Init)
    i.HAL_SAI_MspInit                        0x080029b0   Section        0  stm32f4xx_hal_msp.o(i.HAL_SAI_MspInit)
    i.HAL_SAI_Receive_DMA                    0x08002b1c   Section        0  stm32f4xx_hal_sai.o(i.HAL_SAI_Receive_DMA)
    i.HAL_SAI_RxCpltCallback                 0x08002bec   Section        0  st-bus_sai_in_out.o(i.HAL_SAI_RxCpltCallback)
    i.HAL_SAI_RxHalfCpltCallback             0x08002da4   Section        0  st-bus_sai_in_out.o(i.HAL_SAI_RxHalfCpltCallback)
    i.HAL_SAI_Transmit_DMA                   0x08002da8   Section        0  stm32f4xx_hal_sai.o(i.HAL_SAI_Transmit_DMA)
    i.HAL_SAI_TxCpltCallback                 0x08002e78   Section        0  st-bus_sai_in_out.o(i.HAL_SAI_TxCpltCallback)
    i.HAL_SAI_TxHalfCpltCallback             0x08002e7a   Section        0  st-bus_sai_in_out.o(i.HAL_SAI_TxHalfCpltCallback)
    i.HAL_SPI_ErrorCallback                  0x08002e7c   Section        0  spi_interface.o(i.HAL_SPI_ErrorCallback)
    i.HAL_SPI_IRQHandler                     0x08002ee4   Section        0  stm32f4xx_hal_spi.o(i.HAL_SPI_IRQHandler)
    i.HAL_SPI_Init                           0x08003040   Section        0  stm32f4xx_hal_spi.o(i.HAL_SPI_Init)
    i.HAL_SPI_MspInit                        0x080030cc   Section        0  stm32f4xx_hal_msp.o(i.HAL_SPI_MspInit)
    i.HAL_SPI_Receive                        0x08003250   Section        0  stm32f4xx_hal_spi.o(i.HAL_SPI_Receive)
    i.HAL_SPI_RxCpltCallback                 0x080033b4   Section        0  stm32f4xx_hal_spi.o(i.HAL_SPI_RxCpltCallback)
    i.HAL_SPI_Transmit                       0x080033b6   Section        0  stm32f4xx_hal_spi.o(i.HAL_SPI_Transmit)
    i.HAL_SPI_TransmitReceive                0x08003558   Section        0  stm32f4xx_hal_spi.o(i.HAL_SPI_TransmitReceive)
    i.HAL_SPI_TransmitReceive_IT             0x08003784   Section        0  stm32f4xx_hal_spi.o(i.HAL_SPI_TransmitReceive_IT)
    i.HAL_SPI_TxRxCpltCallback               0x08003848   Section        0  stm32f4xx_hal_spi.o(i.HAL_SPI_TxRxCpltCallback)
    i.HAL_SYSTICK_Config                     0x0800384a   Section        0  stm32f4xx_hal_cortex.o(i.HAL_SYSTICK_Config)
    i.HAL_TIMEx_MasterConfigSynchronization  0x08003880   Section        0  stm32f4xx_hal_tim_ex.o(i.HAL_TIMEx_MasterConfigSynchronization)
    i.HAL_TIM_Base_Init                      0x08003934   Section        0  stm32f4xx_hal_tim.o(i.HAL_TIM_Base_Init)
    i.HAL_TIM_Base_MspInit                   0x08003968   Section        0  stm32f4xx_hal_msp.o(i.HAL_TIM_Base_MspInit)
    i.HAL_TIM_ConfigClockSource              0x0800399c   Section        0  stm32f4xx_hal_tim.o(i.HAL_TIM_ConfigClockSource)
    i.HardFault_Handler                      0x08003aa4   Section        0  stm32f4xx_it.o(i.HardFault_Handler)
    i.HdlcBitStreamGetBit                    0x08003ad0   Section        0  hdlc_tx_low_level.o(i.HdlcBitStreamGetBit)
    i.HexToChar                              0x08003b38   Section        0  uart.o(i.HexToChar)
    i.I2SEx_RxISR_I2S                        0x08003b7c   Section        0  stm32f4xx_hal_i2s_ex.o(i.I2SEx_RxISR_I2S)
    I2SEx_RxISR_I2S                          0x08003b7d   Thumb Code    58  stm32f4xx_hal_i2s_ex.o(i.I2SEx_RxISR_I2S)
    i.I2SEx_RxISR_I2SExt                     0x08003bb8   Section        0  stm32f4xx_hal_i2s_ex.o(i.I2SEx_RxISR_I2SExt)
    I2SEx_RxISR_I2SExt                       0x08003bb9   Thumb Code   100  stm32f4xx_hal_i2s_ex.o(i.I2SEx_RxISR_I2SExt)
    i.I2SEx_TxISR_I2S                        0x08003c24   Section        0  stm32f4xx_hal_i2s_ex.o(i.I2SEx_TxISR_I2S)
    I2SEx_TxISR_I2S                          0x08003c25   Thumb Code    56  stm32f4xx_hal_i2s_ex.o(i.I2SEx_TxISR_I2S)
    i.I2SEx_TxISR_I2SExt                     0x08003c5c   Section        0  stm32f4xx_hal_i2s_ex.o(i.I2SEx_TxISR_I2SExt)
    I2SEx_TxISR_I2SExt                       0x08003c5d   Thumb Code    98  stm32f4xx_hal_i2s_ex.o(i.I2SEx_TxISR_I2SExt)
    i.I2SEx_TxRxDMACplt                      0x08003cc8   Section        0  stm32f4xx_hal_i2s_ex.o(i.I2SEx_TxRxDMACplt)
    I2SEx_TxRxDMACplt                        0x08003cc9   Thumb Code   222  stm32f4xx_hal_i2s_ex.o(i.I2SEx_TxRxDMACplt)
    i.I2SEx_TxRxDMACpltAlt                   0x08003db0   Section        0  audio_in_out.o(i.I2SEx_TxRxDMACpltAlt)
    i.I2SEx_TxRxDMAError                     0x08003dc4   Section        0  stm32f4xx_hal_i2s_ex.o(i.I2SEx_TxRxDMAError)
    I2SEx_TxRxDMAError                       0x08003dc5   Thumb Code    86  stm32f4xx_hal_i2s_ex.o(i.I2SEx_TxRxDMAError)
    i.I2SEx_TxRxDMAHalfCplt                  0x08003e24   Section        0  stm32f4xx_hal_i2s_ex.o(i.I2SEx_TxRxDMAHalfCplt)
    I2SEx_TxRxDMAHalfCplt                    0x08003e25   Thumb Code    14  stm32f4xx_hal_i2s_ex.o(i.I2SEx_TxRxDMAHalfCplt)
    i.I2S_IRQHandler                         0x08003e32   Section        0  stm32f4xx_hal_i2s.o(i.I2S_IRQHandler)
    I2S_IRQHandler                           0x08003e33   Thumb Code   220  stm32f4xx_hal_i2s.o(i.I2S_IRQHandler)
    i.I2S_Receive_IT                         0x08003f0e   Section        0  stm32f4xx_hal_i2s.o(i.I2S_Receive_IT)
    I2S_Receive_IT                           0x08003f0f   Thumb Code    54  stm32f4xx_hal_i2s.o(i.I2S_Receive_IT)
    i.I2S_Transmit_IT                        0x08003f44   Section        0  stm32f4xx_hal_i2s.o(i.I2S_Transmit_IT)
    I2S_Transmit_IT                          0x08003f45   Thumb Code    54  stm32f4xx_hal_i2s.o(i.I2S_Transmit_IT)
    i.Inc                                    0x08003f7a   Section        0  hdlc_rx_low_level.o(i.Inc)
    i.LL_GPIO_Init                           0x08003f8a   Section        0  stm32f4xx_ll_gpio.o(i.LL_GPIO_Init)
    i.LL_RCC_GetSystemClocksFreq             0x080040c2   Section        0  stm32f4xx_ll_rcc.o(i.LL_RCC_GetSystemClocksFreq)
    i.LL_RCC_PLL_GetMainSource               0x080040e8   Section        0  stm32f4xx_ll_rcc.o(i.LL_RCC_PLL_GetMainSource)
    LL_RCC_PLL_GetMainSource                 0x080040e9   Thumb Code    10  stm32f4xx_ll_rcc.o(i.LL_RCC_PLL_GetMainSource)
    i.LL_RCC_PLL_GetN                        0x080040f8   Section        0  stm32f4xx_ll_rcc.o(i.LL_RCC_PLL_GetN)
    LL_RCC_PLL_GetN                          0x080040f9   Thumb Code    10  stm32f4xx_ll_rcc.o(i.LL_RCC_PLL_GetN)
    i.LL_USART_Init                          0x08004108   Section        0  stm32f4xx_ll_usart.o(i.LL_USART_Init)
    i.LL_USART_IsEnabled                     0x080041e8   Section        0  stm32f4xx_ll_usart.o(i.LL_USART_IsEnabled)
    LL_USART_IsEnabled                       0x080041e9   Thumb Code    10  stm32f4xx_ll_usart.o(i.LL_USART_IsEnabled)
    i.LL_USART_SetBaudRate                   0x080041f2   Section        0  stm32f4xx_ll_usart.o(i.LL_USART_SetBaudRate)
    LL_USART_SetBaudRate                     0x080041f3   Thumb Code   440  stm32f4xx_ll_usart.o(i.LL_USART_SetBaudRate)
    i.MX_DMA_Init                            0x080043ac   Section        0  main.o(i.MX_DMA_Init)
    MX_DMA_Init                              0x080043ad   Thumb Code    98  main.o(i.MX_DMA_Init)
    i.MX_GPIO_Init                           0x08004414   Section        0  main.o(i.MX_GPIO_Init)
    MX_GPIO_Init                             0x08004415   Thumb Code   344  main.o(i.MX_GPIO_Init)
    i.MX_I2S3_Init                           0x08004580   Section        0  main.o(i.MX_I2S3_Init)
    MX_I2S3_Init                             0x08004581   Thumb Code    50  main.o(i.MX_I2S3_Init)
    i.MX_SAI1_Init                           0x080045bc   Section        0  main.o(i.MX_SAI1_Init)
    MX_SAI1_Init                             0x080045bd   Thumb Code   190  main.o(i.MX_SAI1_Init)
    i.MX_SPI1_Init                           0x08004688   Section        0  main.o(i.MX_SPI1_Init)
    MX_SPI1_Init                             0x08004689   Thumb Code    60  main.o(i.MX_SPI1_Init)
    i.MX_SPI2_Init                           0x080046cc   Section        0  main.o(i.MX_SPI2_Init)
    MX_SPI2_Init                             0x080046cd   Thumb Code    60  main.o(i.MX_SPI2_Init)
    i.MX_SPI4_Init                           0x08004710   Section        0  main.o(i.MX_SPI4_Init)
    MX_SPI4_Init                             0x08004711   Thumb Code    62  main.o(i.MX_SPI4_Init)
    i.MX_TIM4_Init                           0x08004758   Section        0  main.o(i.MX_TIM4_Init)
    MX_TIM4_Init                             0x08004759   Thumb Code   102  main.o(i.MX_TIM4_Init)
    i.MX_USART1_UART_Init                    0x080047c8   Section        0  main.o(i.MX_USART1_UART_Init)
    MX_USART1_UART_Init                      0x080047c9   Thumb Code   346  main.o(i.MX_USART1_UART_Init)
    i.MemManage_Handler                      0x08004938   Section        0  stm32f4xx_it.o(i.MemManage_Handler)
    i.NMI_Handler                            0x0800493c   Section        0  stm32f4xx_it.o(i.NMI_Handler)
    i.PendSV_Handler                         0x0800493e   Section        0  stm32f4xx_it.o(i.PendSV_Handler)
    i.RCC_GetHCLKClockFreq                   0x08004940   Section        0  stm32f4xx_ll_rcc.o(i.RCC_GetHCLKClockFreq)
    i.RCC_GetPCLK1ClockFreq                  0x08004960   Section        0  stm32f4xx_ll_rcc.o(i.RCC_GetPCLK1ClockFreq)
    i.RCC_GetPCLK2ClockFreq                  0x08004984   Section        0  stm32f4xx_ll_rcc.o(i.RCC_GetPCLK2ClockFreq)
    i.RCC_GetSystemClockFreq                 0x080049a8   Section        0  stm32f4xx_ll_rcc.o(i.RCC_GetSystemClockFreq)
    i.RCC_PLL_GetFreqDomain_SYS              0x080049ec   Section        0  stm32f4xx_ll_rcc.o(i.RCC_PLL_GetFreqDomain_SYS)
    i.SAI_BlockSynchroConfig                 0x08004a58   Section        0  stm32f4xx_hal_sai_ex.o(i.SAI_BlockSynchroConfig)
    i.SAI_DMAError                           0x08004a84   Section        0  stm32f4xx_hal_sai.o(i.SAI_DMAError)
    SAI_DMAError                             0x08004a85   Thumb Code    72  stm32f4xx_hal_sai.o(i.SAI_DMAError)
    i.SAI_DMARxCplt                          0x08004acc   Section        0  stm32f4xx_hal_sai.o(i.SAI_DMARxCplt)
    SAI_DMARxCplt                            0x08004acd   Thumb Code    64  stm32f4xx_hal_sai.o(i.SAI_DMARxCplt)
    i.SAI_DMARxHalfCplt                      0x08004b0c   Section        0  stm32f4xx_hal_sai.o(i.SAI_DMARxHalfCplt)
    SAI_DMARxHalfCplt                        0x08004b0d   Thumb Code    14  stm32f4xx_hal_sai.o(i.SAI_DMARxHalfCplt)
    i.SAI_DMATxCplt                          0x08004b1a   Section        0  stm32f4xx_hal_sai.o(i.SAI_DMATxCplt)
    SAI_DMATxCplt                            0x08004b1b   Thumb Code    64  stm32f4xx_hal_sai.o(i.SAI_DMATxCplt)
    i.SAI_DMATxHalfCplt                      0x08004b5a   Section        0  stm32f4xx_hal_sai.o(i.SAI_DMATxHalfCplt)
    SAI_DMATxHalfCplt                        0x08004b5b   Thumb Code    14  stm32f4xx_hal_sai.o(i.SAI_DMATxHalfCplt)
    i.SAI_DMA_Init                           0x08004b68   Section        0  st-bus_sai_in_out.o(i.SAI_DMA_Init)
    i.SAI_Disable                            0x08004ba4   Section        0  stm32f4xx_hal_sai.o(i.SAI_Disable)
    SAI_Disable                              0x08004ba5   Thumb Code    80  stm32f4xx_hal_sai.o(i.SAI_Disable)
    i.SAI_GetInputClock                      0x08004bf8   Section        0  stm32f4xx_hal_sai_ex.o(i.SAI_GetInputClock)
    i.SAI_InterruptFlag                      0x08004ce0   Section        0  stm32f4xx_hal_sai.o(i.SAI_InterruptFlag)
    SAI_InterruptFlag                        0x08004ce1   Thumb Code    58  stm32f4xx_hal_sai.o(i.SAI_InterruptFlag)
    i.SAI_reset                              0x08004d1c   Section        0  st-bus_sai_in_out.o(i.SAI_reset)
    i.SPI2_IRQHandler                        0x08004d38   Section        0  stm32f4xx_it.o(i.SPI2_IRQHandler)
    i.SPI_2linesRxISR_16BIT                  0x08004d48   Section        0  stm32f4xx_hal_spi.o(i.SPI_2linesRxISR_16BIT)
    SPI_2linesRxISR_16BIT                    0x08004d49   Thumb Code    52  stm32f4xx_hal_spi.o(i.SPI_2linesRxISR_16BIT)
    i.SPI_2linesRxISR_8BIT                   0x08004d7c   Section        0  stm32f4xx_hal_spi.o(i.SPI_2linesRxISR_8BIT)
    SPI_2linesRxISR_8BIT                     0x08004d7d   Thumb Code    52  stm32f4xx_hal_spi.o(i.SPI_2linesRxISR_8BIT)
    i.SPI_2linesRxISR_8BIT_Fast              0x08004db0   Section        0  spi_interface.o(i.SPI_2linesRxISR_8BIT_Fast)
    i.SPI_2linesTxISR_16BIT                  0x08005078   Section        0  stm32f4xx_hal_spi.o(i.SPI_2linesTxISR_16BIT)
    SPI_2linesTxISR_16BIT                    0x08005079   Thumb Code    52  stm32f4xx_hal_spi.o(i.SPI_2linesTxISR_16BIT)
    i.SPI_2linesTxISR_8BIT                   0x080050ac   Section        0  stm32f4xx_hal_spi.o(i.SPI_2linesTxISR_8BIT)
    SPI_2linesTxISR_8BIT                     0x080050ad   Thumb Code    52  stm32f4xx_hal_spi.o(i.SPI_2linesTxISR_8BIT)
    i.SPI_2linesTxISR_8BIT_Fast              0x080050e0   Section        0  spi_interface.o(i.SPI_2linesTxISR_8BIT_Fast)
    i.SPI_CloseRxTx_ISR                      0x080050e8   Section        0  stm32f4xx_hal_spi.o(i.SPI_CloseRxTx_ISR)
    SPI_CloseRxTx_ISR                        0x080050e9   Thumb Code   182  stm32f4xx_hal_spi.o(i.SPI_CloseRxTx_ISR)
    i.SPI_DMAAbortOnError                    0x080051a4   Section        0  stm32f4xx_hal_spi.o(i.SPI_DMAAbortOnError)
    SPI_DMAAbortOnError                      0x080051a5   Thumb Code    20  stm32f4xx_hal_spi.o(i.SPI_DMAAbortOnError)
    i.SPI_EndRxTransaction                   0x080051b8   Section        0  stm32f4xx_hal_spi.o(i.SPI_EndRxTransaction)
    SPI_EndRxTransaction                     0x080051b9   Thumb Code   148  stm32f4xx_hal_spi.o(i.SPI_EndRxTransaction)
    i.SPI_EndRxTxTransaction                 0x0800524c   Section        0  stm32f4xx_hal_spi.o(i.SPI_EndRxTxTransaction)
    SPI_EndRxTxTransaction                   0x0800524d   Thumb Code   100  stm32f4xx_hal_spi.o(i.SPI_EndRxTxTransaction)
    i.SPI_WaitFlagStateUntilTimeout          0x080052b8   Section        0  stm32f4xx_hal_spi.o(i.SPI_WaitFlagStateUntilTimeout)
    SPI_WaitFlagStateUntilTimeout            0x080052b9   Thumb Code   168  stm32f4xx_hal_spi.o(i.SPI_WaitFlagStateUntilTimeout)
    i.SVC_Handler                            0x08005360   Section        0  stm32f4xx_it.o(i.SVC_Handler)
    i.SysTick_Handler                        0x08005362   Section        0  stm32f4xx_it.o(i.SysTick_Handler)
    i.SystemClock_Config                     0x08005370   Section        0  main.o(i.SystemClock_Config)
    i.SystemInit                             0x08005470   Section        0  system_stm32f4xx.o(i.SystemInit)
    i.TIM_Base_SetConfig                     0x0800548c   Section        0  stm32f4xx_hal_tim.o(i.TIM_Base_SetConfig)
    i.TIM_ETR_SetConfig                      0x08005564   Section        0  stm32f4xx_hal_tim.o(i.TIM_ETR_SetConfig)
    i.TIM_ITRx_SetConfig                     0x0800557a   Section        0  stm32f4xx_hal_tim.o(i.TIM_ITRx_SetConfig)
    TIM_ITRx_SetConfig                       0x0800557b   Thumb Code    18  stm32f4xx_hal_tim.o(i.TIM_ITRx_SetConfig)
    i.TIM_TI1_ConfigInputStage               0x0800558c   Section        0  stm32f4xx_hal_tim.o(i.TIM_TI1_ConfigInputStage)
    TIM_TI1_ConfigInputStage                 0x0800558d   Thumb Code    38  stm32f4xx_hal_tim.o(i.TIM_TI1_ConfigInputStage)
    i.TIM_TI2_ConfigInputStage               0x080055b2   Section        0  stm32f4xx_hal_tim.o(i.TIM_TI2_ConfigInputStage)
    TIM_TI2_ConfigInputStage                 0x080055b3   Thumb Code    40  stm32f4xx_hal_tim.o(i.TIM_TI2_ConfigInputStage)
    i.USART1_IRQHandler                      0x080055da   Section        0  stm32f4xx_it.o(i.USART1_IRQHandler)
    i.UsageFault_Handler                     0x080055e2   Section        0  stm32f4xx_it.o(i.UsageFault_Handler)
    i.__0sprintf$5                           0x080055e8   Section        0  printf5.o(i.__0sprintf$5)
    i.__NVIC_GetPriorityGrouping             0x08005610   Section        0  stm32f4xx_hal_cortex.o(i.__NVIC_GetPriorityGrouping)
    __NVIC_GetPriorityGrouping               0x08005611   Thumb Code    10  stm32f4xx_hal_cortex.o(i.__NVIC_GetPriorityGrouping)
    i.__NVIC_SetPriority                     0x08005620   Section        0  stm32f4xx_hal_cortex.o(i.__NVIC_SetPriority)
    __NVIC_SetPriority                       0x08005621   Thumb Code    32  stm32f4xx_hal_cortex.o(i.__NVIC_SetPriority)
    i.__scatterload_copy                     0x08005648   Section       14  handlers.o(i.__scatterload_copy)
    i.__scatterload_null                     0x08005656   Section        2  handlers.o(i.__scatterload_null)
    i.__scatterload_zeroinit                 0x08005658   Section       14  handlers.o(i.__scatterload_zeroinit)
    i._printf_core                           0x08005668   Section        0  printf5.o(i._printf_core)
    _printf_core                             0x08005669   Thumb Code   658  printf5.o(i._printf_core)
    i._sputc                                 0x08005928   Section        0  printf5.o(i._sputc)
    _sputc                                   0x08005929   Thumb Code    10  printf5.o(i._sputc)
    i.addByteToBitStream                     0x08005934   Section        0  hdlc_tx_low_level.o(i.addByteToBitStream)
    i.addFlagToBitStream                     0x080059a8   Section        0  hdlc_tx_low_level.o(i.addFlagToBitStream)
    i.alaw2linear                            0x080059dc   Section        0  g711.o(i.alaw2linear)
    i.blink                                  0x08005a18   Section        0  uart.o(i.blink)
    i.codecInit                              0x08005a24   Section        0  codec.o(i.codecInit)
    i.createHdlcBitStream                    0x08005be8   Section        0  hdlc_tx_low_level.o(i.createHdlcBitStream)
    i.doCsTimeout                            0x08005c60   Section        0  spi_interface.o(i.doCsTimeout)
    i.doMt9092Logic                          0x08005cf4   Section        0  mt9092_logic.o(i.doMt9092Logic)
    i.headsetSpeakerOff                      0x08005d88   Section        0  codec.o(i.headsetSpeakerOff)
    i.headsetSpeakerOn                       0x08005dd4   Section        0  codec.o(i.headsetSpeakerOn)
    i.isHdlcFifoEmpty                        0x08005e20   Section        0  hdlc_tx.o(i.isHdlcFifoEmpty)
    i.lineOutSpeakerOff                      0x08005e3c   Section        0  codec.o(i.lineOutSpeakerOff)
    i.lineOutSpeakerOn                       0x08005e88   Section        0  codec.o(i.lineOutSpeakerOn)
    i.linear2alaw                            0x08005ed4   Section        0  g711.o(i.linear2alaw)
    i.main                                   0x08005f2c   Section        0  main.o(i.main)
    i.micOff                                 0x08005fa4   Section        0  codec.o(i.micOff)
    i.micOn                                  0x08005fd4   Section        0  codec.o(i.micOn)
    i.mt9092IrqOff                           0x08006000   Section        0  mt9092_logic.o(i.mt9092IrqOff)
    i.mt9092IrqOn                            0x08006024   Section        0  mt9092_logic.o(i.mt9092IrqOn)
    i.mt9092LogicInit                        0x08006048   Section        0  mt9092_logic.o(i.mt9092LogicInit)
    i.mt9092ProcessReadCommand               0x08006050   Section        0  mt9092_logic.o(i.mt9092ProcessReadCommand)
    i.mt9092ProcessWriteCommand              0x08006150   Section        0  mt9092_logic.o(i.mt9092ProcessWriteCommand)
    i.mt9092RegistersInit                    0x080062b8   Section        0  mt9092_registers.o(i.mt9092RegistersInit)
    i.mt9092Reset                            0x08006318   Section        0  mt9092_logic.o(i.mt9092Reset)
    i.nCS_IRQHandler                         0x08006338   Section        0  spi_interface.o(i.nCS_IRQHandler)
    i.processHdlcFrame                       0x08006370   Section        0  hdlc_rx_low_level.o(i.processHdlcFrame)
    i.processHdlcTelegram                    0x08006558   Section        0  hdlc_rx.o(i.processHdlcTelegram)
    i.readFromPosition                       0x08006674   Section        0  hdlc_rx_low_level.o(i.readFromPosition)
    i.readHdlcRxFifo                         0x080066a8   Section        0  hdlc_rx.o(i.readHdlcRxFifo)
    i.readReg                                0x080067a0   Section        0  codec.o(i.readReg)
    readReg                                  0x080067a1   Thumb Code    72  codec.o(i.readReg)
    i.reflect                                0x080067f0   Section        0  crc-16_ccitt.o(i.reflect)
    i.resetHdlcRxFifo                        0x08006818   Section        0  hdlc_rx.o(i.resetHdlcRxFifo)
    i.resetHdlcTxFifo                        0x08006840   Section        0  hdlc_tx.o(i.resetHdlcTxFifo)
    i.search                                 0x08006868   Section        0  g711.o(i.search)
    search                                   0x08006869   Thumb Code    30  g711.o(i.search)
    i.selectMic                              0x08006888   Section        0  codec.o(i.selectMic)
    i.spiLedRefresh                          0x08006914   Section        0  spi_interface.o(i.spiLedRefresh)
    i.spiLedService                          0x08006934   Section        0  spi_interface.o(i.spiLedService)
    i.spiSetErrLed                           0x08006970   Section        0  spi_interface.o(i.spiSetErrLed)
    i.spi_begin_restart                      0x08006994   Section        0  spi_interface.o(i.spi_begin_restart)
    i.spi_disable                            0x080069d4   Section        0  spi_interface.o(i.spi_disable)
    i.spi_enable                             0x080069f4   Section        0  spi_interface.o(i.spi_enable)
    i.spi_end_restart                        0x08006a44   Section        0  spi_interface.o(i.spi_end_restart)
    i.spi_interface_Init                     0x08006a74   Section        0  spi_interface.o(i.spi_interface_Init)
    i.startHdlcTransmition                   0x08006b08   Section        0  hdlc_tx.o(i.startHdlcTransmition)
    i.truncValue                             0x08006bc0   Section        0  hdlc_rx_low_level.o(i.truncValue)
    i.uartISR                                0x08006bc8   Section        0  uart.o(i.uartISR)
    i.uartPutchar                            0x08006ccc   Section        0  uart.o(i.uartPutchar)
    i.uartPuts                               0x08006d04   Section        0  uart.o(i.uartPuts)
    i.uartPutsN                              0x08006d1a   Section        0  uart.o(i.uartPutsN)
    i.uartReceiveStop                        0x08006d34   Section        0  uart.o(i.uartReceiveStop)
    i.writeHdlcTxFifo                        0x08006d4c   Section        0  hdlc_tx.o(i.writeHdlcTxFifo)
    i.writeReg                               0x08006e48   Section        0  codec.o(i.writeReg)
    writeReg                                 0x08006e49   Thumb Code    58  codec.o(i.writeReg)
    .constdata                               0x08006e8c   Section     2484  g711.o(.constdata)
    aRCC_PLLSAIDIVRPrescTable                0x08006e8c   Data           4  g711.o(.constdata)
    STREAM_OFFSET_TAB                        0x08006e90   Data           8  g711.o(.constdata)
    .constdata                               0x08007840   Section       36  hdlc_rx_low_level.o(.constdata)
    aRCC_PLLSAIDIVRPrescTable                0x08007840   Data           4  hdlc_rx_low_level.o(.constdata)
    STREAM_OFFSET_TAB                        0x08007844   Data           8  hdlc_rx_low_level.o(.constdata)
    flag_pattern                             0x0800784c   Data           8  hdlc_rx_low_level.o(.constdata)
    idle_pattern                             0x08007854   Data           8  hdlc_rx_low_level.o(.constdata)
    abort_pattern                            0x0800785c   Data           8  hdlc_rx_low_level.o(.constdata)
    .constdata                               0x08007864   Section        8  stm32f4xx_hal_dma.o(.constdata)
    flagBitshiftOffset                       0x08007864   Data           8  stm32f4xx_hal_dma.o(.constdata)
    .constdata                               0x0800786c   Section       24  system_stm32f4xx.o(.constdata)
    .ARM.__AT_0x20000000                     0x20000000   Section        4  main.o(.ARM.__AT_0x20000000)
    .data                                    0x20000004   Section        8  g711.o(.data)
    idx                                      0x20000004   Data           2  g711.o(.data)
    swap                                     0x20000008   Data           4  g711.o(.data)
    .data                                    0x2000000c   Section       18  hdlc_rx_low_level.o(.data)
    current_index                            0x2000000c   Data           2  hdlc_rx_low_level.o(.data)
    flag_string                              0x2000000e   Data           8  hdlc_rx_low_level.o(.data)
    start_flag_index                         0x20000016   Data           2  hdlc_rx_low_level.o(.data)
    start_flag_received                      0x20000018   Data           1  hdlc_rx_low_level.o(.data)
    flag_hdlc_frame_received                 0x20000019   Data           1  hdlc_rx_low_level.o(.data)
    num_bits_in_frame                        0x2000001a   Data           2  hdlc_rx_low_level.o(.data)
    idle_state_counter                       0x2000001c   Data           2  hdlc_rx_low_level.o(.data)
    .data                                    0x2000001e   Section        7  hdlc_tx_low_level.o(.data)
    .data                                    0x20000025   Section        5  mt9092_logic.o(.data)
    .data                                    0x2000002a   Section        1  mt9092_registers.o(.data)
    .data                                    0x2000002c   Section       34  spi_interface.o(.data)
    reg_addr                                 0x2000004d   Data           1  spi_interface.o(.data)
    .data                                    0x2000004e   Section       11  st-bus_sai_in_out.o(.data)
    prev_in_c_channel                        0x20000056   Data           1  st-bus_sai_in_out.o(.data)
    prev_out_c_channel                       0x20000057   Data           1  st-bus_sai_in_out.o(.data)
    prev_sync_bit                            0x20000058   Data           1  st-bus_sai_in_out.o(.data)
    .data                                    0x2000005a   Section        2  uart.o(.data)
    blink_counter                            0x2000005a   Data           2  uart.o(.data)
    .data                                    0x2000005c   Section      206  audio_in_out.o(.data)
    i                                        0x20000128   Data           2  audio_in_out.o(.data)
    .data                                    0x2000012c   Section        4  stm32f4xx_hal_msp.o(.data)
    SAI1_client                              0x2000012c   Data           4  stm32f4xx_hal_msp.o(.data)
    .data                                    0x20000130   Section        9  stm32f4xx_hal.o(.data)
    .data                                    0x2000013c   Section        4  system_stm32f4xx.o(.data)
    .bss                                     0x20000140   Section       36  hdlc_rx.o(.bss)
    .bss                                     0x20000164   Section     2240  hdlc_rx_low_level.o(.bss)
    bit_ring                                 0x20000164   Data        1024  hdlc_rx_low_level.o(.bss)
    hdlc_frame_bit_sequence                  0x20000564   Data        1024  hdlc_rx_low_level.o(.bss)
    hdlc_frame_bytes                         0x20000964   Data         128  hdlc_rx_low_level.o(.bss)
    telegram_string                          0x200009e4   Data          64  hdlc_rx_low_level.o(.bss)
    .bss                                     0x20000a24   Section      100  hdlc_tx.o(.bss)
    .bss                                     0x20000a88   Section      512  hdlc_tx_low_level.o(.bss)
    .bss                                     0x20000c88   Section       64  mt9092_registers.o(.bss)
    .bss                                     0x20000cc8   Section       64  spi_interface.o(.bss)
    str                                      0x20000cc8   Data          64  spi_interface.o(.bss)
    .bss                                     0x20000d08   Section       64  st-bus_sai_in_out.o(.bss)
    str                                      0x20000d08   Data          64  st-bus_sai_in_out.o(.bss)
    .bss                                     0x20000d48   Section     1160  uart.o(.bss)
    .bss                                     0x200011d0   Section      520  audio_in_out.o(.bss)
    .bss                                     0x200013d8   Section     1056  main.o(.bss)
    STACK                                    0x200017f8   Section     4096  startup_stm32f429xx.o(STACK)

    Global Symbols

    Symbol Name                              Value     Ov Type        Size  Object(Section)

    BuildAttributes$$THM_ISAv4$E$P$D$K$B$S$7EM$VFPi3$EXTD16$VFPS$VFMA$PE$A:L22UL41UL21$X:L11$S22US41US21$IEEE1$IW$USESV6$~STKCKD$USESV7$~SHL$OSPACE$ROPI$EBA8$MICROLIB$REQ8$PRES8$EABIv2 0x00000000   Number         0  anon$$obj.o ABSOLUTE
    __ARM_use_no_argv                        0x00000000   Number         0  main.o ABSOLUTE
    _printf_a                                0x00000000   Number         0  stubs.o ABSOLUTE
    _printf_c                                0x00000000   Number         0  stubs.o ABSOLUTE
    _printf_charcount                        0x00000000   Number         0  stubs.o ABSOLUTE
    _printf_d                                0x00000000   Number         0  stubs.o ABSOLUTE
    _printf_e                                0x00000000   Number         0  stubs.o ABSOLUTE
    _printf_f                                0x00000000   Number         0  stubs.o ABSOLUTE
    _printf_flags                            0x00000000   Number         0  stubs.o ABSOLUTE
    _printf_fp_dec                           0x00000000   Number         0  stubs.o ABSOLUTE
    _printf_fp_hex                           0x00000000   Number         0  stubs.o ABSOLUTE
    _printf_g                                0x00000000   Number         0  stubs.o ABSOLUTE
    _printf_i                                0x00000000   Number         0  stubs.o ABSOLUTE
    _printf_int_dec                          0x00000000   Number         0  stubs.o ABSOLUTE
    _printf_l                                0x00000000   Number         0  stubs.o ABSOLUTE
    _printf_lc                               0x00000000   Number         0  stubs.o ABSOLUTE
    _printf_ll                               0x00000000   Number         0  stubs.o ABSOLUTE
    _printf_lld                              0x00000000   Number         0  stubs.o ABSOLUTE
    _printf_lli                              0x00000000   Number         0  stubs.o ABSOLUTE
    _printf_llo                              0x00000000   Number         0  stubs.o ABSOLUTE
    _printf_llu                              0x00000000   Number         0  stubs.o ABSOLUTE
    _printf_llx                              0x00000000   Number         0  stubs.o ABSOLUTE
    _printf_longlong_dec                     0x00000000   Number         0  stubs.o ABSOLUTE
    _printf_longlong_hex                     0x00000000   Number         0  stubs.o ABSOLUTE
    _printf_longlong_oct                     0x00000000   Number         0  stubs.o ABSOLUTE
    _printf_ls                               0x00000000   Number         0  stubs.o ABSOLUTE
    _printf_mbtowc                           0x00000000   Number         0  stubs.o ABSOLUTE
    _printf_n                                0x00000000   Number         0  stubs.o ABSOLUTE
    _printf_o                                0x00000000   Number         0  stubs.o ABSOLUTE
    _printf_p                                0x00000000   Number         0  stubs.o ABSOLUTE
    _printf_percent                          0x00000000   Number         0  stubs.o ABSOLUTE
    _printf_pre_padding                      0x00000000   Number         0  stubs.o ABSOLUTE
    _printf_return_value                     0x00000000   Number         0  stubs.o ABSOLUTE
    _printf_s                                0x00000000   Number         0  stubs.o ABSOLUTE
    _printf_sizespec                         0x00000000   Number         0  stubs.o ABSOLUTE
    _printf_str                              0x00000000   Number         0  stubs.o ABSOLUTE
    _printf_truncate_signed                  0x00000000   Number         0  stubs.o ABSOLUTE
    _printf_truncate_unsigned                0x00000000   Number         0  stubs.o ABSOLUTE
    _printf_u                                0x00000000   Number         0  stubs.o ABSOLUTE
    _printf_wc                               0x00000000   Number         0  stubs.o ABSOLUTE
    _printf_wctomb                           0x00000000   Number         0  stubs.o ABSOLUTE
    _printf_widthprec                        0x00000000   Number         0  stubs.o ABSOLUTE
    _printf_x                                0x00000000   Number         0  stubs.o ABSOLUTE
    __cpp_initialize__aeabi_                  - Undefined Weak Reference
    __cxa_finalize                            - Undefined Weak Reference
    _clock_init                               - Undefined Weak Reference
    _microlib_exit                            - Undefined Weak Reference
    __Vectors_Size                           0x000001ac   Number         0  startup_stm32f429xx.o ABSOLUTE
    __Vectors                                0x08000000   Data           4  startup_stm32f429xx.o(RESET)
    __Vectors_End                            0x080001ac   Data           0  startup_stm32f429xx.o(RESET)
    __main                                   0x080001ad   Thumb Code     0  entry.o(.ARM.Collect$$$$00000000)
    _main_stk                                0x080001ad   Thumb Code     0  entry2.o(.ARM.Collect$$$$00000001)
    _main_scatterload                        0x080001b1   Thumb Code     0  entry5.o(.ARM.Collect$$$$00000004)
    __main_after_scatterload                 0x080001b5   Thumb Code     0  entry5.o(.ARM.Collect$$$$00000004)
    _main_clock                              0x080001b5   Thumb Code     0  entry7b.o(.ARM.Collect$$$$00000008)
    _main_cpp_init                           0x080001b5   Thumb Code     0  entry8b.o(.ARM.Collect$$$$0000000A)
    _main_init                               0x080001b5   Thumb Code     0  entry9a.o(.ARM.Collect$$$$0000000B)
    __rt_final_cpp                           0x080001bd   Thumb Code     0  entry10a.o(.ARM.Collect$$$$0000000D)
    __rt_final_exit                          0x080001bd   Thumb Code     0  entry11a.o(.ARM.Collect$$$$0000000F)
    Reset_Handler                            0x080001c1   Thumb Code     8  startup_stm32f429xx.o(.text)
    ADC_IRQHandler                           0x080001db   Thumb Code     0  startup_stm32f429xx.o(.text)
    CAN1_RX0_IRQHandler                      0x080001db   Thumb Code     0  startup_stm32f429xx.o(.text)
    CAN1_RX1_IRQHandler                      0x080001db   Thumb Code     0  startup_stm32f429xx.o(.text)
    CAN1_SCE_IRQHandler                      0x080001db   Thumb Code     0  startup_stm32f429xx.o(.text)
    CAN1_TX_IRQHandler                       0x080001db   Thumb Code     0  startup_stm32f429xx.o(.text)
    CAN2_RX0_IRQHandler                      0x080001db   Thumb Code     0  startup_stm32f429xx.o(.text)
    CAN2_RX1_IRQHandler                      0x080001db   Thumb Code     0  startup_stm32f429xx.o(.text)
    CAN2_SCE_IRQHandler                      0x080001db   Thumb Code     0  startup_stm32f429xx.o(.text)
    CAN2_TX_IRQHandler                       0x080001db   Thumb Code     0  startup_stm32f429xx.o(.text)
    DCMI_IRQHandler                          0x080001db   Thumb Code     0  startup_stm32f429xx.o(.text)
    DMA1_Stream0_IRQHandler                  0x080001db   Thumb Code     0  startup_stm32f429xx.o(.text)
    DMA1_Stream1_IRQHandler                  0x080001db   Thumb Code     0  startup_stm32f429xx.o(.text)
    DMA1_Stream2_IRQHandler                  0x080001db   Thumb Code     0  startup_stm32f429xx.o(.text)
    DMA1_Stream3_IRQHandler                  0x080001db   Thumb Code     0  startup_stm32f429xx.o(.text)
    DMA1_Stream4_IRQHandler                  0x080001db   Thumb Code     0  startup_stm32f429xx.o(.text)
    DMA1_Stream6_IRQHandler                  0x080001db   Thumb Code     0  startup_stm32f429xx.o(.text)
    DMA1_Stream7_IRQHandler                  0x080001db   Thumb Code     0  startup_stm32f429xx.o(.text)
    DMA2D_IRQHandler                         0x080001db   Thumb Code     0  startup_stm32f429xx.o(.text)
    DMA2_Stream0_IRQHandler                  0x080001db   Thumb Code     0  startup_stm32f429xx.o(.text)
    DMA2_Stream1_IRQHandler                  0x080001db   Thumb Code     0  startup_stm32f429xx.o(.text)
    DMA2_Stream2_IRQHandler                  0x080001db   Thumb Code     0  startup_stm32f429xx.o(.text)
    DMA2_Stream3_IRQHandler                  0x080001db   Thumb Code     0  startup_stm32f429xx.o(.text)
    DMA2_Stream5_IRQHandler                  0x080001db   Thumb Code     0  startup_stm32f429xx.o(.text)
    DMA2_Stream6_IRQHandler                  0x080001db   Thumb Code     0  startup_stm32f429xx.o(.text)
    DMA2_Stream7_IRQHandler                  0x080001db   Thumb Code     0  startup_stm32f429xx.o(.text)
    ETH_IRQHandler                           0x080001db   Thumb Code     0  startup_stm32f429xx.o(.text)
    ETH_WKUP_IRQHandler                      0x080001db   Thumb Code     0  startup_stm32f429xx.o(.text)
    EXTI0_IRQHandler                         0x080001db   Thumb Code     0  startup_stm32f429xx.o(.text)
    EXTI1_IRQHandler                         0x080001db   Thumb Code     0  startup_stm32f429xx.o(.text)
    EXTI2_IRQHandler                         0x080001db   Thumb Code     0  startup_stm32f429xx.o(.text)
    EXTI3_IRQHandler                         0x080001db   Thumb Code     0  startup_stm32f429xx.o(.text)
    EXTI4_IRQHandler                         0x080001db   Thumb Code     0  startup_stm32f429xx.o(.text)
    EXTI9_5_IRQHandler                       0x080001db   Thumb Code     0  startup_stm32f429xx.o(.text)
    FLASH_IRQHandler                         0x080001db   Thumb Code     0  startup_stm32f429xx.o(.text)
    FMC_IRQHandler                           0x080001db   Thumb Code     0  startup_stm32f429xx.o(.text)
    FPU_IRQHandler                           0x080001db   Thumb Code     0  startup_stm32f429xx.o(.text)
    HASH_RNG_IRQHandler                      0x080001db   Thumb Code     0  startup_stm32f429xx.o(.text)
    I2C1_ER_IRQHandler                       0x080001db   Thumb Code     0  startup_stm32f429xx.o(.text)
    I2C1_EV_IRQHandler                       0x080001db   Thumb Code     0  startup_stm32f429xx.o(.text)
    I2C2_ER_IRQHandler                       0x080001db   Thumb Code     0  startup_stm32f429xx.o(.text)
    I2C2_EV_IRQHandler                       0x080001db   Thumb Code     0  startup_stm32f429xx.o(.text)
    I2C3_ER_IRQHandler                       0x080001db   Thumb Code     0  startup_stm32f429xx.o(.text)
    I2C3_EV_IRQHandler                       0x080001db   Thumb Code     0  startup_stm32f429xx.o(.text)
    LTDC_ER_IRQHandler                       0x080001db   Thumb Code     0  startup_stm32f429xx.o(.text)
    LTDC_IRQHandler                          0x080001db   Thumb Code     0  startup_stm32f429xx.o(.text)
    OTG_FS_IRQHandler                        0x080001db   Thumb Code     0  startup_stm32f429xx.o(.text)
    OTG_FS_WKUP_IRQHandler                   0x080001db   Thumb Code     0  startup_stm32f429xx.o(.text)
    OTG_HS_EP1_IN_IRQHandler                 0x080001db   Thumb Code     0  startup_stm32f429xx.o(.text)
    OTG_HS_EP1_OUT_IRQHandler                0x080001db   Thumb Code     0  startup_stm32f429xx.o(.text)
    OTG_HS_IRQHandler                        0x080001db   Thumb Code     0  startup_stm32f429xx.o(.text)
    OTG_HS_WKUP_IRQHandler                   0x080001db   Thumb Code     0  startup_stm32f429xx.o(.text)
    PVD_IRQHandler                           0x080001db   Thumb Code     0  startup_stm32f429xx.o(.text)
    RCC_IRQHandler                           0x080001db   Thumb Code     0  startup_stm32f429xx.o(.text)
    RTC_Alarm_IRQHandler                     0x080001db   Thumb Code     0  startup_stm32f429xx.o(.text)
    RTC_WKUP_IRQHandler                      0x080001db   Thumb Code     0  startup_stm32f429xx.o(.text)
    SAI1_IRQHandler                          0x080001db   Thumb Code     0  startup_stm32f429xx.o(.text)
    SDIO_IRQHandler                          0x080001db   Thumb Code     0  startup_stm32f429xx.o(.text)
    SPI1_IRQHandler                          0x080001db   Thumb Code     0  startup_stm32f429xx.o(.text)
    SPI3_IRQHandler                          0x080001db   Thumb Code     0  startup_stm32f429xx.o(.text)
    SPI4_IRQHandler                          0x080001db   Thumb Code     0  startup_stm32f429xx.o(.text)
    SPI5_IRQHandler                          0x080001db   Thumb Code     0  startup_stm32f429xx.o(.text)
    SPI6_IRQHandler                          0x080001db   Thumb Code     0  startup_stm32f429xx.o(.text)
    TAMP_STAMP_IRQHandler                    0x080001db   Thumb Code     0  startup_stm32f429xx.o(.text)
    TIM1_BRK_TIM9_IRQHandler                 0x080001db   Thumb Code     0  startup_stm32f429xx.o(.text)
    TIM1_CC_IRQHandler                       0x080001db   Thumb Code     0  startup_stm32f429xx.o(.text)
    TIM1_TRG_COM_TIM11_IRQHandler            0x080001db   Thumb Code     0  startup_stm32f429xx.o(.text)
    TIM1_UP_TIM10_IRQHandler                 0x080001db   Thumb Code     0  startup_stm32f429xx.o(.text)
    TIM2_IRQHandler                          0x080001db   Thumb Code     0  startup_stm32f429xx.o(.text)
    TIM3_IRQHandler                          0x080001db   Thumb Code     0  startup_stm32f429xx.o(.text)
    TIM4_IRQHandler                          0x080001db   Thumb Code     0  startup_stm32f429xx.o(.text)
    TIM5_IRQHandler                          0x080001db   Thumb Code     0  startup_stm32f429xx.o(.text)
    TIM6_DAC_IRQHandler                      0x080001db   Thumb Code     0  startup_stm32f429xx.o(.text)
    TIM7_IRQHandler                          0x080001db   Thumb Code     0  startup_stm32f429xx.o(.text)
    TIM8_BRK_TIM12_IRQHandler                0x080001db   Thumb Code     0  startup_stm32f429xx.o(.text)
    TIM8_CC_IRQHandler                       0x080001db   Thumb Code     0  startup_stm32f429xx.o(.text)
    TIM8_TRG_COM_TIM14_IRQHandler            0x080001db   Thumb Code     0  startup_stm32f429xx.o(.text)
    TIM8_UP_TIM13_IRQHandler                 0x080001db   Thumb Code     0  startup_stm32f429xx.o(.text)
    UART4_IRQHandler                         0x080001db   Thumb Code     0  startup_stm32f429xx.o(.text)
    UART5_IRQHandler                         0x080001db   Thumb Code     0  startup_stm32f429xx.o(.text)
    UART7_IRQHandler                         0x080001db   Thumb Code     0  startup_stm32f429xx.o(.text)
    UART8_IRQHandler                         0x080001db   Thumb Code     0  startup_stm32f429xx.o(.text)
    USART2_IRQHandler                        0x080001db   Thumb Code     0  startup_stm32f429xx.o(.text)
    USART3_IRQHandler                        0x080001db   Thumb Code     0  startup_stm32f429xx.o(.text)
    USART6_IRQHandler                        0x080001db   Thumb Code     0  startup_stm32f429xx.o(.text)
    WWDG_IRQHandler                          0x080001db   Thumb Code     0  startup_stm32f429xx.o(.text)
    __aeabi_uldivmod                         0x080001e5   Thumb Code    98  uldiv.o(.text)
    ___aeabi_memcpy8$move                    0x08000247   Thumb Code     0  memmovea.o(.text)
    __aeabi_memcpy                           0x08000247   Thumb Code    64  memmovea.o(.text)
    __aeabi_memcpy4                          0x08000247   Thumb Code     0  memmovea.o(.text)
    __aeabi_memmove                          0x08000247   Thumb Code     0  memmovea.o(.text)
    __aeabi_memmove4                         0x08000247   Thumb Code     0  memmovea.o(.text)
    __aeabi_memmove8                         0x08000247   Thumb Code     0  memmovea.o(.text)
    __aeabi_memset                           0x08000287   Thumb Code    14  memseta.o(.text)
    __aeabi_memset4                          0x08000287   Thumb Code     0  memseta.o(.text)
    __aeabi_memset8                          0x08000287   Thumb Code     0  memseta.o(.text)
    __aeabi_memclr                           0x08000295   Thumb Code     4  memseta.o(.text)
    __aeabi_memclr4                          0x08000295   Thumb Code     0  memseta.o(.text)
    __aeabi_memclr8                          0x08000295   Thumb Code     0  memseta.o(.text)
    _memset$wrapper                          0x08000299   Thumb Code    18  memseta.o(.text)
    memcmp                                   0x080002ab   Thumb Code    26  memcmp.o(.text)
    strcpy                                   0x080002c5   Thumb Code    18  strcpy.o(.text)
    __aeabi_llsl                             0x080002d7   Thumb Code    30  llshl.o(.text)
    _ll_shift_l                              0x080002d7   Thumb Code     0  llshl.o(.text)
    __aeabi_llsr                             0x080002f5   Thumb Code    32  llushr.o(.text)
    _ll_ushift_r                             0x080002f5   Thumb Code     0  llushr.o(.text)
    __scatterload                            0x08000315   Thumb Code    28  init.o(.text)
    __scatterload_rt2                        0x08000315   Thumb Code     0  init.o(.text)
    __decompress                             0x08000339   Thumb Code     0  __dczerorl2.o(.text)
    __decompress1                            0x08000339   Thumb Code    86  __dczerorl2.o(.text)
    AudioInOutInit                           0x08000391   Thumb Code   244  audio_in_out.o(i.AudioInOutInit)
    AudioInPop                               0x080004ed   Thumb Code    58  audio_in_out.o(i.AudioInPop)
    AudioInit                                0x08000551   Thumb Code     2  g711.o(i.AudioInit)
    AudioOutPush                             0x08000555   Thumb Code    60  audio_in_out.o(i.AudioOutPush)
    AudioSamleFromADC                        0x080005b5   Thumb Code    14  g711.o(i.AudioSamleFromADC)
    AudioSamleToDAC                          0x080005c5   Thumb Code   206  g711.o(i.AudioSamleToDAC)
    BitRingInit                              0x080006a5   Thumb Code    34  hdlc_rx_low_level.o(i.BitRingInit)
    BitRingProcessBit                        0x080006ed   Thumb Code   334  hdlc_rx_low_level.o(i.BitRingProcessBit)
    BusFault_Handler                         0x08000871   Thumb Code     4  stm32f4xx_it.o(i.BusFault_Handler)
    Crc16                                    0x08000875   Thumb Code    80  crc-16_ccitt.o(i.Crc16)
    DMA1_Stream5_IRQHandler                  0x080008c5   Thumb Code    10  stm32f4xx_it.o(i.DMA1_Stream5_IRQHandler)
    DMA2_Stream4_IRQHandler                  0x080008d5   Thumb Code    10  stm32f4xx_it.o(i.DMA2_Stream4_IRQHandler)
    DV_port_input_Init                       0x080009ef   Thumb Code    12  st-bus_sai_in_out.o(i.DV_port_input_Init)
    DebugMon_Handler                         0x080009fb   Thumb Code     2  stm32f4xx_it.o(i.DebugMon_Handler)
    EXTI15_10_IRQHandler                     0x080009fd   Thumb Code     8  stm32f4xx_it.o(i.EXTI15_10_IRQHandler)
    Error_Handler                            0x08000a05   Thumb Code     2  main.o(i.Error_Handler)
    HAL_DMA_Abort                            0x08000a07   Thumb Code   170  stm32f4xx_hal_dma.o(i.HAL_DMA_Abort)
    HAL_DMA_Abort_IT                         0x08000ab1   Thumb Code    40  stm32f4xx_hal_dma.o(i.HAL_DMA_Abort_IT)
    HAL_DMA_IRQHandler                       0x08000ad9   Thumb Code   570  stm32f4xx_hal_dma.o(i.HAL_DMA_IRQHandler)
    HAL_DMA_Init                             0x08000d19   Thumb Code   232  stm32f4xx_hal_dma.o(i.HAL_DMA_Init)
    HAL_DMA_Start_IT                         0x08000e05   Thumb Code   146  stm32f4xx_hal_dma.o(i.HAL_DMA_Start_IT)
    HAL_GPIO_Init                            0x08000e99   Thumb Code   486  stm32f4xx_hal_gpio.o(i.HAL_GPIO_Init)
    HAL_GPIO_ReadPin                         0x080010b5   Thumb Code    16  stm32f4xx_hal_gpio.o(i.HAL_GPIO_ReadPin)
    HAL_GPIO_TogglePin                       0x080010c5   Thumb Code    18  stm32f4xx_hal_gpio.o(i.HAL_GPIO_TogglePin)
    HAL_GPIO_WritePin                        0x080010d7   Thumb Code    12  stm32f4xx_hal_gpio.o(i.HAL_GPIO_WritePin)
    HAL_GetTick                              0x080010e5   Thumb Code     6  stm32f4xx_hal.o(i.HAL_GetTick)
    HAL_I2SEx_FullDuplex_IRQHandler          0x080010f1   Thumb Code   572  stm32f4xx_hal_i2s_ex.o(i.HAL_I2SEx_FullDuplex_IRQHandler)
    HAL_I2SEx_TransmitReceive_DMA            0x08001335   Thumb Code   614  stm32f4xx_hal_i2s_ex.o(i.HAL_I2SEx_TransmitReceive_DMA)
    HAL_I2SEx_TxRxCpltAltCallback            0x080015b1   Thumb Code    82  audio_in_out.o(i.HAL_I2SEx_TxRxCpltAltCallback)
    HAL_I2SEx_TxRxCpltCallback               0x08001639   Thumb Code     2  stm32f4xx_hal_i2s_ex.o(i.HAL_I2SEx_TxRxCpltCallback)
    HAL_I2SEx_TxRxHalfCpltCallback           0x0800163d   Thumb Code    94  audio_in_out.o(i.HAL_I2SEx_TxRxHalfCpltCallback)
    HAL_I2S_ErrorCallback                    0x080016d5   Thumb Code    12  audio_in_out.o(i.HAL_I2S_ErrorCallback)
    HAL_I2S_Init                             0x08001701   Thumb Code   432  stm32f4xx_hal_i2s.o(i.HAL_I2S_Init)
    HAL_I2S_MspInit                          0x080018c1   Thumb Code   346  stm32f4xx_hal_msp.o(i.HAL_I2S_MspInit)
    HAL_I2S_RxCpltCallback                   0x08001a39   Thumb Code     2  stm32f4xx_hal_i2s.o(i.HAL_I2S_RxCpltCallback)
    HAL_I2S_TxCpltCallback                   0x08001a3b   Thumb Code     2  stm32f4xx_hal_i2s.o(i.HAL_I2S_TxCpltCallback)
    HAL_IncTick                              0x08001a3d   Thumb Code    16  stm32f4xx_hal.o(i.HAL_IncTick)
    HAL_Init                                 0x08001a55   Thumb Code    54  stm32f4xx_hal.o(i.HAL_Init)
    HAL_InitTick                             0x08001a91   Thumb Code    64  stm32f4xx_hal.o(i.HAL_InitTick)
    HAL_MspInit                              0x08001add   Thumb Code    68  stm32f4xx_hal_msp.o(i.HAL_MspInit)
    HAL_NVIC_DisableIRQ                      0x08001b25   Thumb Code    62  stm32f4xx_hal_cortex.o(i.HAL_NVIC_DisableIRQ)
    HAL_NVIC_EnableIRQ                       0x08001b69   Thumb Code    32  stm32f4xx_hal_cortex.o(i.HAL_NVIC_EnableIRQ)
    HAL_NVIC_SetPriority                     0x08001b89   Thumb Code   124  stm32f4xx_hal_cortex.o(i.HAL_NVIC_SetPriority)
    HAL_NVIC_SetPriorityGrouping             0x08001c05   Thumb Code    32  stm32f4xx_hal_cortex.o(i.HAL_NVIC_SetPriorityGrouping)
    HAL_PWREx_EnableOverDrive                0x08001c2d   Thumb Code   128  stm32f4xx_hal_pwr_ex.o(i.HAL_PWREx_EnableOverDrive)
    HAL_RCCEx_GetPeriphCLKFreq               0x08001cb9   Thumb Code   126  stm32f4xx_hal_rcc_ex.o(i.HAL_RCCEx_GetPeriphCLKFreq)
    HAL_RCCEx_PeriphCLKConfig                0x08001d49   Thumb Code   746  stm32f4xx_hal_rcc_ex.o(i.HAL_RCCEx_PeriphCLKConfig)
    HAL_RCC_ClockConfig                      0x0800204d   Thumb Code   368  stm32f4xx_hal_rcc.o(i.HAL_RCC_ClockConfig)
    HAL_RCC_GetSysClockFreq                  0x080021d1   Thumb Code   162  stm32f4xx_hal_rcc.o(i.HAL_RCC_GetSysClockFreq)
    HAL_RCC_OscConfig                        0x08002281   Thumb Code  1152  stm32f4xx_hal_rcc.o(i.HAL_RCC_OscConfig)
    HAL_SAI_Abort                            0x08002709   Thumb Code   188  stm32f4xx_hal_sai.o(i.HAL_SAI_Abort)
    HAL_SAI_ErrorCallback                    0x080027c5   Thumb Code    42  st-bus_sai_in_out.o(i.HAL_SAI_ErrorCallback)
    HAL_SAI_GetError                         0x08002809   Thumb Code     8  stm32f4xx_hal_sai.o(i.HAL_SAI_GetError)
    HAL_SAI_Init                             0x08002811   Thumb Code   406  stm32f4xx_hal_sai.o(i.HAL_SAI_Init)
    HAL_SAI_MspInit                          0x080029b1   Thumb Code   334  stm32f4xx_hal_msp.o(i.HAL_SAI_MspInit)
    HAL_SAI_Receive_DMA                      0x08002b1d   Thumb Code   194  stm32f4xx_hal_sai.o(i.HAL_SAI_Receive_DMA)
    HAL_SAI_RxCpltCallback                   0x08002bed   Thumb Code   372  st-bus_sai_in_out.o(i.HAL_SAI_RxCpltCallback)
    HAL_SAI_RxHalfCpltCallback               0x08002da5   Thumb Code     2  st-bus_sai_in_out.o(i.HAL_SAI_RxHalfCpltCallback)
    HAL_SAI_Transmit_DMA                     0x08002da9   Thumb Code   194  stm32f4xx_hal_sai.o(i.HAL_SAI_Transmit_DMA)
    HAL_SAI_TxCpltCallback                   0x08002e79   Thumb Code     2  st-bus_sai_in_out.o(i.HAL_SAI_TxCpltCallback)
    HAL_SAI_TxHalfCpltCallback               0x08002e7b   Thumb Code     2  st-bus_sai_in_out.o(i.HAL_SAI_TxHalfCpltCallback)
    HAL_SPI_ErrorCallback                    0x08002e7d   Thumb Code    62  spi_interface.o(i.HAL_SPI_ErrorCallback)
    HAL_SPI_IRQHandler                       0x08002ee5   Thumb Code   342  stm32f4xx_hal_spi.o(i.HAL_SPI_IRQHandler)
    HAL_SPI_Init                             0x08003041   Thumb Code   140  stm32f4xx_hal_spi.o(i.HAL_SPI_Init)
    HAL_SPI_MspInit                          0x080030cd   Thumb Code   358  stm32f4xx_hal_msp.o(i.HAL_SPI_MspInit)
    HAL_SPI_Receive                          0x08003251   Thumb Code   356  stm32f4xx_hal_spi.o(i.HAL_SPI_Receive)
    HAL_SPI_RxCpltCallback                   0x080033b5   Thumb Code     2  stm32f4xx_hal_spi.o(i.HAL_SPI_RxCpltCallback)
    HAL_SPI_Transmit                         0x080033b7   Thumb Code   418  stm32f4xx_hal_spi.o(i.HAL_SPI_Transmit)
    HAL_SPI_TransmitReceive                  0x08003559   Thumb Code   554  stm32f4xx_hal_spi.o(i.HAL_SPI_TransmitReceive)
    HAL_SPI_TransmitReceive_IT               0x08003785   Thumb Code   178  stm32f4xx_hal_spi.o(i.HAL_SPI_TransmitReceive_IT)
    HAL_SPI_TxRxCpltCallback                 0x08003849   Thumb Code     2  stm32f4xx_hal_spi.o(i.HAL_SPI_TxRxCpltCallback)
    HAL_SYSTICK_Config                       0x0800384b   Thumb Code    52  stm32f4xx_hal_cortex.o(i.HAL_SYSTICK_Config)
    HAL_TIMEx_MasterConfigSynchronization    0x08003881   Thumb Code   150  stm32f4xx_hal_tim_ex.o(i.HAL_TIMEx_MasterConfigSynchronization)
    HAL_TIM_Base_Init                        0x08003935   Thumb Code    52  stm32f4xx_hal_tim.o(i.HAL_TIM_Base_Init)
    HAL_TIM_Base_MspInit                     0x08003969   Thumb Code    44  stm32f4xx_hal_msp.o(i.HAL_TIM_Base_MspInit)
    HAL_TIM_ConfigClockSource                0x0800399d   Thumb Code   264  stm32f4xx_hal_tim.o(i.HAL_TIM_ConfigClockSource)
    HardFault_Handler                        0x08003aa5   Thumb Code    34  stm32f4xx_it.o(i.HardFault_Handler)
    HdlcBitStreamGetBit                      0x08003ad1   Thumb Code    78  hdlc_tx_low_level.o(i.HdlcBitStreamGetBit)
    HexToChar                                0x08003b39   Thumb Code    46  uart.o(i.HexToChar)
    I2SEx_TxRxDMACpltAlt                     0x08003db1   Thumb Code    20  audio_in_out.o(i.I2SEx_TxRxDMACpltAlt)
    Inc                                      0x08003f7b   Thumb Code    16  hdlc_rx_low_level.o(i.Inc)
    LL_GPIO_Init                             0x08003f8b   Thumb Code   312  stm32f4xx_ll_gpio.o(i.LL_GPIO_Init)
    LL_RCC_GetSystemClocksFreq               0x080040c3   Thumb Code    36  stm32f4xx_ll_rcc.o(i.LL_RCC_GetSystemClocksFreq)
    LL_USART_Init                            0x08004109   Thumb Code   190  stm32f4xx_ll_usart.o(i.LL_USART_Init)
    MemManage_Handler                        0x08004939   Thumb Code     4  stm32f4xx_it.o(i.MemManage_Handler)
    NMI_Handler                              0x0800493d   Thumb Code     2  stm32f4xx_it.o(i.NMI_Handler)
    PendSV_Handler                           0x0800493f   Thumb Code     2  stm32f4xx_it.o(i.PendSV_Handler)
    RCC_GetHCLKClockFreq                     0x08004941   Thumb Code    24  stm32f4xx_ll_rcc.o(i.RCC_GetHCLKClockFreq)
    RCC_GetPCLK1ClockFreq                    0x08004961   Thumb Code    26  stm32f4xx_ll_rcc.o(i.RCC_GetPCLK1ClockFreq)
    RCC_GetPCLK2ClockFreq                    0x08004985   Thumb Code    26  stm32f4xx_ll_rcc.o(i.RCC_GetPCLK2ClockFreq)
    RCC_GetSystemClockFreq                   0x080049a9   Thumb Code    54  stm32f4xx_ll_rcc.o(i.RCC_GetSystemClockFreq)
    RCC_PLL_GetFreqDomain_SYS                0x080049ed   Thumb Code    94  stm32f4xx_ll_rcc.o(i.RCC_PLL_GetFreqDomain_SYS)
    SAI_BlockSynchroConfig                   0x08004a59   Thumb Code    40  stm32f4xx_hal_sai_ex.o(i.SAI_BlockSynchroConfig)
    SAI_DMA_Init                             0x08004b69   Thumb Code    30  st-bus_sai_in_out.o(i.SAI_DMA_Init)
    SAI_GetInputClock                        0x08004bf9   Thumb Code   206  stm32f4xx_hal_sai_ex.o(i.SAI_GetInputClock)
    SAI_reset                                0x08004d1d   Thumb Code    20  st-bus_sai_in_out.o(i.SAI_reset)
    SPI2_IRQHandler                          0x08004d39   Thumb Code    10  stm32f4xx_it.o(i.SPI2_IRQHandler)
    SPI_2linesRxISR_8BIT_Fast                0x08004db1   Thumb Code   608  spi_interface.o(i.SPI_2linesRxISR_8BIT_Fast)
    SPI_2linesTxISR_8BIT_Fast                0x080050e1   Thumb Code     8  spi_interface.o(i.SPI_2linesTxISR_8BIT_Fast)
    SVC_Handler                              0x08005361   Thumb Code     2  stm32f4xx_it.o(i.SVC_Handler)
    SysTick_Handler                          0x08005363   Thumb Code    12  stm32f4xx_it.o(i.SysTick_Handler)
    SystemClock_Config                       0x08005371   Thumb Code   246  main.o(i.SystemClock_Config)
    SystemInit                               0x08005471   Thumb Code    24  system_stm32f4xx.o(i.SystemInit)
    TIM_Base_SetConfig                       0x0800548d   Thumb Code   170  stm32f4xx_hal_tim.o(i.TIM_Base_SetConfig)
    TIM_ETR_SetConfig                        0x08005565   Thumb Code    22  stm32f4xx_hal_tim.o(i.TIM_ETR_SetConfig)
    USART1_IRQHandler                        0x080055db   Thumb Code     8  stm32f4xx_it.o(i.USART1_IRQHandler)
    UsageFault_Handler                       0x080055e3   Thumb Code     4  stm32f4xx_it.o(i.UsageFault_Handler)
    __0sprintf$5                             0x080055e9   Thumb Code    34  printf5.o(i.__0sprintf$5)
    __1sprintf$5                             0x080055e9   Thumb Code     0  printf5.o(i.__0sprintf$5)
    __2sprintf                               0x080055e9   Thumb Code     0  printf5.o(i.__0sprintf$5)
    __scatterload_copy                       0x08005649   Thumb Code    14  handlers.o(i.__scatterload_copy)
    __scatterload_null                       0x08005657   Thumb Code     2  handlers.o(i.__scatterload_null)
    __scatterload_zeroinit                   0x08005659   Thumb Code    14  handlers.o(i.__scatterload_zeroinit)
    addByteToBitStream                       0x08005935   Thumb Code   104  hdlc_tx_low_level.o(i.addByteToBitStream)
    addFlagToBitStream                       0x080059a9   Thumb Code    42  hdlc_tx_low_level.o(i.addFlagToBitStream)
    alaw2linear                              0x080059dd   Thumb Code    58  g711.o(i.alaw2linear)
    blink                                    0x08005a19   Thumb Code     8  uart.o(i.blink)
    codecInit                                0x08005a25   Thumb Code   452  codec.o(i.codecInit)
    createHdlcBitStream                      0x08005be9   Thumb Code   104  hdlc_tx_low_level.o(i.createHdlcBitStream)
    doCsTimeout                              0x08005c61   Thumb Code    96  spi_interface.o(i.doCsTimeout)
    doMt9092Logic                            0x08005cf5   Thumb Code   132  mt9092_logic.o(i.doMt9092Logic)
    headsetSpeakerOff                        0x08005d89   Thumb Code    54  codec.o(i.headsetSpeakerOff)
    headsetSpeakerOn                         0x08005dd5   Thumb Code    54  codec.o(i.headsetSpeakerOn)
    isHdlcFifoEmpty                          0x08005e21   Thumb Code    24  hdlc_tx.o(i.isHdlcFifoEmpty)
    lineOutSpeakerOff                        0x08005e3d   Thumb Code    54  codec.o(i.lineOutSpeakerOff)
    lineOutSpeakerOn                         0x08005e89   Thumb Code    54  codec.o(i.lineOutSpeakerOn)
    linear2alaw                              0x08005ed5   Thumb Code    84  g711.o(i.linear2alaw)
    main                                     0x08005f2d   Thumb Code    90  main.o(i.main)
    micOff                                   0x08005fa5   Thumb Code    36  codec.o(i.micOff)
    micOn                                    0x08005fd5   Thumb Code    36  codec.o(i.micOn)
    mt9092IrqOff                             0x08006001   Thumb Code    26  mt9092_logic.o(i.mt9092IrqOff)
    mt9092IrqOn                              0x08006025   Thumb Code    28  mt9092_logic.o(i.mt9092IrqOn)
    mt9092LogicInit                          0x08006049   Thumb Code     8  mt9092_logic.o(i.mt9092LogicInit)
    mt9092ProcessReadCommand                 0x08006051   Thumb Code   158  mt9092_logic.o(i.mt9092ProcessReadCommand)
    mt9092ProcessWriteCommand                0x08006151   Thumb Code   240  mt9092_logic.o(i.mt9092ProcessWriteCommand)
    mt9092RegistersInit                      0x080062b9   Thumb Code    86  mt9092_registers.o(i.mt9092RegistersInit)
    mt9092Reset                              0x08006319   Thumb Code    26  mt9092_logic.o(i.mt9092Reset)
    nCS_IRQHandler                           0x08006339   Thumb Code    44  spi_interface.o(i.nCS_IRQHandler)
    processHdlcFrame                         0x08006371   Thumb Code   404  hdlc_rx_low_level.o(i.processHdlcFrame)
    processHdlcTelegram                      0x08006559   Thumb Code   240  hdlc_rx.o(i.processHdlcTelegram)
    readFromPosition                         0x08006675   Thumb Code    46  hdlc_rx_low_level.o(i.readFromPosition)
    readHdlcRxFifo                           0x080066a9   Thumb Code   234  hdlc_rx.o(i.readHdlcRxFifo)
    reflect                                  0x080067f1   Thumb Code    38  crc-16_ccitt.o(i.reflect)
    resetHdlcRxFifo                          0x08006819   Thumb Code    32  hdlc_rx.o(i.resetHdlcRxFifo)
    resetHdlcTxFifo                          0x08006841   Thumb Code    32  hdlc_tx.o(i.resetHdlcTxFifo)
    selectMic                                0x08006889   Thumb Code    96  codec.o(i.selectMic)
    spiLedRefresh                            0x08006915   Thumb Code    24  spi_interface.o(i.spiLedRefresh)
    spiLedService                            0x08006935   Thumb Code    48  spi_interface.o(i.spiLedService)
    spiSetErrLed                             0x08006971   Thumb Code    26  spi_interface.o(i.spiSetErrLed)
    spi_begin_restart                        0x08006995   Thumb Code    32  spi_interface.o(i.spi_begin_restart)
    spi_disable                              0x080069d5   Thumb Code    24  spi_interface.o(i.spi_disable)
    spi_enable                               0x080069f5   Thumb Code    64  spi_interface.o(i.spi_enable)
    spi_end_restart                          0x08006a45   Thumb Code    22  spi_interface.o(i.spi_end_restart)
    spi_interface_Init                       0x08006a75   Thumb Code   110  spi_interface.o(i.spi_interface_Init)
    startHdlcTransmition                     0x08006b09   Thumb Code   150  hdlc_tx.o(i.startHdlcTransmition)
    truncValue                               0x08006bc1   Thumb Code     8  hdlc_rx_low_level.o(i.truncValue)
    uartISR                                  0x08006bc9   Thumb Code   248  uart.o(i.uartISR)
    uartPutchar                              0x08006ccd   Thumb Code    46  uart.o(i.uartPutchar)
    uartPuts                                 0x08006d05   Thumb Code    22  uart.o(i.uartPuts)
    uartPutsN                                0x08006d1b   Thumb Code    26  uart.o(i.uartPutsN)
    uartReceiveStop                          0x08006d35   Thumb Code    18  uart.o(i.uartReceiveStop)
    writeHdlcTxFifo                          0x08006d4d   Thumb Code   208  hdlc_tx.o(i.writeHdlcTxFifo)
    SineRef                                  0x08006e98   Data        2048  g711.o(.constdata)
    seg_end                                  0x08007698   Data          16  g711.o(.constdata)
    _u2a                                     0x080076a8   Data         128  g711.o(.constdata)
    _a2u                                     0x08007728   Data         128  g711.o(.constdata)
    AHBPrescTable                            0x0800786c   Data          16  system_stm32f4xx.o(.constdata)
    APBPrescTable                            0x0800787c   Data           8  system_stm32f4xx.o(.constdata)
    Region$$Table$$Base                      0x08007884   Number         0  anon$$obj.o(Region$$Table)
    Region$$Table$$Limit                     0x080078a4   Number         0  anon$$obj.o(Region$$Table)
    dummy                                    0x20000000   Data           4  main.o(.ARM.__AT_0x20000000)
    bit_stream_length                        0x2000001e   Data           2  hdlc_tx_low_level.o(.data)
    current_bit                              0x20000020   Data           2  hdlc_tx_low_level.o(.data)
    ones_counter                             0x20000022   Data           2  hdlc_tx_low_level.o(.data)
    flag_HDLC_bitstream_ready                0x20000024   Data           1  hdlc_tx_low_level.o(.data)
    rx_fifo_treshold                         0x20000025   Data           1  mt9092_logic.o(.data)
    tx_fifo_treshold                         0x20000026   Data           1  mt9092_logic.o(.data)
    flag_start_hdlc_transmission             0x20000027   Data           1  mt9092_logic.o(.data)
    flag_reset                               0x20000028   Data           1  mt9092_logic.o(.data)
    flag_new_TRANSDUCER_CONTROL_REGISTER     0x20000029   Data           1  mt9092_logic.o(.data)
    C_channel_out                            0x2000002a   Data           1  mt9092_registers.o(.data)
    spi_in_buf                               0x2000002c   Data           2  spi_interface.o(.data)
    dbg_spi_in_buf                           0x2000002e   Data           2  spi_interface.o(.data)
    spi_out_buf                              0x20000030   Data           2  spi_interface.o(.data)
    spi_dummy_out                            0x20000032   Data           2  spi_interface.o(.data)
    spi_dummy_in                             0x20000034   Data           2  spi_interface.o(.data)
    spi_dummy_out2                           0x20000036   Data           2  spi_interface.o(.data)
    spi_dummy_in2                            0x20000038   Data           2  spi_interface.o(.data)
    cs_timeout                               0x2000003a   Data           1  spi_interface.o(.data)
    flag_spi_read                            0x2000003b   Data           1  spi_interface.o(.data)
    spi_led_timer                            0x2000003c   Data           4  spi_interface.o(.data)
    err_led_timer                            0x20000040   Data           4  spi_interface.o(.data)
    flag_spi_restart                         0x20000044   Data           1  spi_interface.o(.data)
    spi_restart_timer                        0x20000048   Data           4  spi_interface.o(.data)
    spi_rec_state                            0x2000004c   Data           1  spi_interface.o(.data)
    SAI_DMA_input_buffer                     0x2000004e   Data           4  st-bus_sai_in_out.o(.data)
    SAI_DMA_output_buffer                    0x20000052   Data           4  st-bus_sai_in_out.o(.data)
    sinebuf1                                 0x2000005c   Data         192  audio_in_out.o(.data)
    audio_out_DMA_Buffer                     0x2000011c   Data           4  audio_in_out.o(.data)
    audio_in_DMA_Buffer                      0x20000120   Data           4  audio_in_out.o(.data)
    audio_out_sample                         0x20000124   Data           2  audio_in_out.o(.data)
    flag_audio_OK                            0x20000126   Data           1  audio_in_out.o(.data)
    uwTick                                   0x20000130   Data           4  stm32f4xx_hal.o(.data)
    uwTickPrio                               0x20000134   Data           4  stm32f4xx_hal.o(.data)
    uwTickFreq                               0x20000138   Data           1  stm32f4xx_hal.o(.data)
    SystemCoreClock                          0x2000013c   Data           4  system_stm32f4xx.o(.data)
    rx_fifo                                  0x20000140   Data          36  hdlc_rx.o(.bss)
    tx_fifo                                  0x20000a24   Data          36  hdlc_tx.o(.bss)
    hdlc_packet_data                         0x20000a48   Data          32  hdlc_tx.o(.bss)
    delayed_hdlc_packet_data                 0x20000a68   Data          32  hdlc_tx.o(.bss)
    tx_hdlc_packet_bit_stream                0x20000a88   Data         512  hdlc_tx_low_level.o(.bss)
    mt9092_reg                               0x20000c88   Data          64  mt9092_registers.o(.bss)
    uart_tx_fifo                             0x20000d48   Data        1028  uart.o(.bss)
    uart_rx_fifo                             0x2000114c   Data         132  uart.o(.bss)
    audio_out_fifo                           0x200011d0   Data         260  audio_in_out.o(.bss)
    audio_in_fifo                            0x200012d4   Data         260  audio_in_out.o(.bss)
    hi2s3                                    0x200013d8   Data          72  main.o(.bss)
    hdma_spi3_tx                             0x20001420   Data          96  main.o(.bss)
    hdma_i2s3_ext_rx                         0x20001480   Data          96  main.o(.bss)
    hsai_BlockA1                             0x200014e0   Data         136  main.o(.bss)
    hsai_BlockB1                             0x20001568   Data         136  main.o(.bss)
    hdma_sai1_b                              0x200015f0   Data          96  main.o(.bss)
    hdma_sai1_a                              0x20001650   Data          96  main.o(.bss)
    hspi1                                    0x200016b0   Data          88  main.o(.bss)
    hspi2                                    0x20001708   Data          88  main.o(.bss)
    hspi4                                    0x20001760   Data          88  main.o(.bss)
    htim4                                    0x200017b8   Data          64  main.o(.bss)
    __initial_sp                             0x200027f8   Data           0  startup_stm32f429xx.o(STACK)



==============================================================================

Memory Map of the image

  Image Entry point : 0x080001ad

  Load Region LR_IROM1 (Base: 0x08000000, Size: 0x000079e4, Max: 0x00100000, ABSOLUTE, COMPRESSED[0x00007948])

    Execution Region ER_IROM1 (Exec base: 0x08000000, Load base: 0x08000000, Size: 0x000078a4, Max: 0x00100000, ABSOLUTE)

    Exec Addr    Load Addr    Size         Type   Attr      Idx    E Section Name        Object

    0x08000000   0x08000000   0x000001ac   Data   RO            3    RESET               startup_stm32f429xx.o
    0x080001ac   0x080001ac   0x00000000   Code   RO         5086  * .ARM.Collect$$$$00000000  mc_w.l(entry.o)
    0x080001ac   0x080001ac   0x00000004   Code   RO         5366    .ARM.Collect$$$$00000001  mc_w.l(entry2.o)
    0x080001b0   0x080001b0   0x00000004   Code   RO         5369    .ARM.Collect$$$$00000004  mc_w.l(entry5.o)
    0x080001b4   0x080001b4   0x00000000   Code   RO         5371    .ARM.Collect$$$$00000008  mc_w.l(entry7b.o)
    0x080001b4   0x080001b4   0x00000000   Code   RO         5373    .ARM.Collect$$$$0000000A  mc_w.l(entry8b.o)
    0x080001b4   0x080001b4   0x00000008   Code   RO         5374    .ARM.Collect$$$$0000000B  mc_w.l(entry9a.o)
    0x080001bc   0x080001bc   0x00000000   Code   RO         5376    .ARM.Collect$$$$0000000D  mc_w.l(entry10a.o)
    0x080001bc   0x080001bc   0x00000000   Code   RO         5378    .ARM.Collect$$$$0000000F  mc_w.l(entry11a.o)
    0x080001bc   0x080001bc   0x00000004   Code   RO         5367    .ARM.Collect$$$$00002712  mc_w.l(entry2.o)
    0x080001c0   0x080001c0   0x00000024   Code   RO            4    .text               startup_stm32f429xx.o
    0x080001e4   0x080001e4   0x00000062   Code   RO         5089    .text               mc_w.l(uldiv.o)
    0x08000246   0x08000246   0x00000040   Code   RO         5093    .text               mc_w.l(memmovea.o)
    0x08000286   0x08000286   0x00000024   Code   RO         5095    .text               mc_w.l(memseta.o)
    0x080002aa   0x080002aa   0x0000001a   Code   RO         5097    .text               mc_w.l(memcmp.o)
    0x080002c4   0x080002c4   0x00000012   Code   RO         5099    .text               mc_w.l(strcpy.o)
    0x080002d6   0x080002d6   0x0000001e   Code   RO         5385    .text               mc_w.l(llshl.o)
    0x080002f4   0x080002f4   0x00000020   Code   RO         5387    .text               mc_w.l(llushr.o)
    0x08000314   0x08000314   0x00000024   Code   RO         5400    .text               mc_w.l(init.o)
    0x08000338   0x08000338   0x00000056   Code   RO         5416    .text               mc_w.l(__dczerorl2.o)
    0x0800038e   0x0800038e   0x00000002   PAD
    0x08000390   0x08000390   0x0000015c   Code   RO         1034    i.AudioInOutInit    audio_in_out.o
    0x080004ec   0x080004ec   0x00000064   Code   RO         1035    i.AudioInPop        audio_in_out.o
    0x08000550   0x08000550   0x00000002   Code   RO           35    i.AudioInit         g711.o
    0x08000552   0x08000552   0x00000002   PAD
    0x08000554   0x08000554   0x00000060   Code   RO         1036    i.AudioOutPush      audio_in_out.o
    0x080005b4   0x080005b4   0x0000000e   Code   RO           36    i.AudioSamleFromADC  g711.o
    0x080005c2   0x080005c2   0x00000002   PAD
    0x080005c4   0x080005c4   0x000000e0   Code   RO           37    i.AudioSamleToDAC   g711.o
    0x080006a4   0x080006a4   0x00000048   Code   RO          348    i.BitRingInit       hdlc_rx_low_level.o
    0x080006ec   0x080006ec   0x00000184   Code   RO          349    i.BitRingProcessBit  hdlc_rx_low_level.o
    0x08000870   0x08000870   0x00000004   Code   RO         1229    i.BusFault_Handler  stm32f4xx_it.o
    0x08000874   0x08000874   0x00000050   Code   RO           10    i.Crc16             crc-16_ccitt.o
    0x080008c4   0x080008c4   0x00000010   Code   RO         1230    i.DMA1_Stream5_IRQHandler  stm32f4xx_it.o
    0x080008d4   0x080008d4   0x00000010   Code   RO         1231    i.DMA2_Stream4_IRQHandler  stm32f4xx_it.o
    0x080008e4   0x080008e4   0x00000034   Code   RO         2257    i.DMA_CalcBaseAndBitshift  stm32f4xx_hal_dma.o
    0x08000918   0x08000918   0x000000aa   Code   RO         2258    i.DMA_CheckFifoParam  stm32f4xx_hal_dma.o
    0x080009c2   0x080009c2   0x0000002c   Code   RO         2259    i.DMA_SetConfig     stm32f4xx_hal_dma.o
    0x080009ee   0x080009ee   0x0000000c   Code   RO          748    i.DV_port_input_Init  st-bus_sai_in_out.o
    0x080009fa   0x080009fa   0x00000002   Code   RO         1232    i.DebugMon_Handler  stm32f4xx_it.o
    0x080009fc   0x080009fc   0x00000008   Code   RO         1233    i.EXTI15_10_IRQHandler  stm32f4xx_it.o
    0x08000a04   0x08000a04   0x00000002   Code   RO         1110    i.Error_Handler     main.o
    0x08000a06   0x08000a06   0x000000aa   Code   RO         2260    i.HAL_DMA_Abort     stm32f4xx_hal_dma.o
    0x08000ab0   0x08000ab0   0x00000028   Code   RO         2261    i.HAL_DMA_Abort_IT  stm32f4xx_hal_dma.o
    0x08000ad8   0x08000ad8   0x00000240   Code   RO         2265    i.HAL_DMA_IRQHandler  stm32f4xx_hal_dma.o
    0x08000d18   0x08000d18   0x000000ec   Code   RO         2266    i.HAL_DMA_Init      stm32f4xx_hal_dma.o
    0x08000e04   0x08000e04   0x00000092   Code   RO         2270    i.HAL_DMA_Start_IT  stm32f4xx_hal_dma.o
    0x08000e96   0x08000e96   0x00000002   PAD
    0x08000e98   0x08000e98   0x0000021c   Code   RO         2153    i.HAL_GPIO_Init     stm32f4xx_hal_gpio.o
    0x080010b4   0x080010b4   0x00000010   Code   RO         2155    i.HAL_GPIO_ReadPin  stm32f4xx_hal_gpio.o
    0x080010c4   0x080010c4   0x00000012   Code   RO         2156    i.HAL_GPIO_TogglePin  stm32f4xx_hal_gpio.o
    0x080010d6   0x080010d6   0x0000000c   Code   RO         2157    i.HAL_GPIO_WritePin  stm32f4xx_hal_gpio.o
    0x080010e2   0x080010e2   0x00000002   PAD
    0x080010e4   0x080010e4   0x0000000c   Code   RO         2710    i.HAL_GetTick       stm32f4xx_hal.o
    0x080010f0   0x080010f0   0x00000244   Code   RO         1602    i.HAL_I2SEx_FullDuplex_IRQHandler  stm32f4xx_hal_i2s_ex.o
    0x08001334   0x08001334   0x0000027c   Code   RO         1604    i.HAL_I2SEx_TransmitReceive_DMA  stm32f4xx_hal_i2s_ex.o
    0x080015b0   0x080015b0   0x00000088   Code   RO         1037    i.HAL_I2SEx_TxRxCpltAltCallback  audio_in_out.o
    0x08001638   0x08001638   0x00000002   Code   RO         1606    i.HAL_I2SEx_TxRxCpltCallback  stm32f4xx_hal_i2s_ex.o
    0x0800163a   0x0800163a   0x00000002   PAD
    0x0800163c   0x0800163c   0x00000098   Code   RO         1038    i.HAL_I2SEx_TxRxHalfCpltCallback  audio_in_out.o
    0x080016d4   0x080016d4   0x0000002c   Code   RO         1039    i.HAL_I2S_ErrorCallback  audio_in_out.o
    0x08001700   0x08001700   0x000001c0   Code   RO         1421    i.HAL_I2S_Init      stm32f4xx_hal_i2s.o
    0x080018c0   0x080018c0   0x00000178   Code   RO         1338    i.HAL_I2S_MspInit   stm32f4xx_hal_msp.o
    0x08001a38   0x08001a38   0x00000002   Code   RO         1427    i.HAL_I2S_RxCpltCallback  stm32f4xx_hal_i2s.o
    0x08001a3a   0x08001a3a   0x00000002   Code   RO         1432    i.HAL_I2S_TxCpltCallback  stm32f4xx_hal_i2s.o
    0x08001a3c   0x08001a3c   0x00000018   Code   RO         2716    i.HAL_IncTick       stm32f4xx_hal.o
    0x08001a54   0x08001a54   0x0000003c   Code   RO         2717    i.HAL_Init          stm32f4xx_hal.o
    0x08001a90   0x08001a90   0x0000004c   Code   RO         2718    i.HAL_InitTick      stm32f4xx_hal.o
    0x08001adc   0x08001adc   0x00000048   Code   RO         1339    i.HAL_MspInit       stm32f4xx_hal_msp.o
    0x08001b24   0x08001b24   0x00000044   Code   RO         2559    i.HAL_NVIC_DisableIRQ  stm32f4xx_hal_cortex.o
    0x08001b68   0x08001b68   0x00000020   Code   RO         2560    i.HAL_NVIC_EnableIRQ  stm32f4xx_hal_cortex.o
    0x08001b88   0x08001b88   0x0000007c   Code   RO         2566    i.HAL_NVIC_SetPriority  stm32f4xx_hal_cortex.o
    0x08001c04   0x08001c04   0x00000028   Code   RO         2567    i.HAL_NVIC_SetPriorityGrouping  stm32f4xx_hal_cortex.o
    0x08001c2c   0x08001c2c   0x0000008c   Code   RO         2489    i.HAL_PWREx_EnableOverDrive  stm32f4xx_hal_pwr_ex.o
    0x08001cb8   0x08001cb8   0x00000090   Code   RO         1803    i.HAL_RCCEx_GetPeriphCLKFreq  stm32f4xx_hal_rcc_ex.o
    0x08001d48   0x08001d48   0x00000304   Code   RO         1804    i.HAL_RCCEx_PeriphCLKConfig  stm32f4xx_hal_rcc_ex.o
    0x0800204c   0x0800204c   0x00000184   Code   RO         1697    i.HAL_RCC_ClockConfig  stm32f4xx_hal_rcc.o
    0x080021d0   0x080021d0   0x000000b0   Code   RO         1706    i.HAL_RCC_GetSysClockFreq  stm32f4xx_hal_rcc.o
    0x08002280   0x08002280   0x00000488   Code   RO         1709    i.HAL_RCC_OscConfig  stm32f4xx_hal_rcc.o
    0x08002708   0x08002708   0x000000bc   Code   RO         3302    i.HAL_SAI_Abort     stm32f4xx_hal_sai.o
    0x080027c4   0x080027c4   0x00000044   Code   RO          749    i.HAL_SAI_ErrorCallback  st-bus_sai_in_out.o
    0x08002808   0x08002808   0x00000008   Code   RO         3312    i.HAL_SAI_GetError  stm32f4xx_hal_sai.o
    0x08002810   0x08002810   0x000001a0   Code   RO         3315    i.HAL_SAI_Init      stm32f4xx_hal_sai.o
    0x080029b0   0x080029b0   0x0000016c   Code   RO         1341    i.HAL_SAI_MspInit   stm32f4xx_hal_msp.o
    0x08002b1c   0x08002b1c   0x000000d0   Code   RO         3320    i.HAL_SAI_Receive_DMA  stm32f4xx_hal_sai.o
    0x08002bec   0x08002bec   0x000001b8   Code   RO          750    i.HAL_SAI_RxCpltCallback  st-bus_sai_in_out.o
    0x08002da4   0x08002da4   0x00000002   Code   RO          751    i.HAL_SAI_RxHalfCpltCallback  st-bus_sai_in_out.o
    0x08002da6   0x08002da6   0x00000002   PAD
    0x08002da8   0x08002da8   0x000000d0   Code   RO         3325    i.HAL_SAI_Transmit_DMA  stm32f4xx_hal_sai.o
    0x08002e78   0x08002e78   0x00000002   Code   RO          752    i.HAL_SAI_TxCpltCallback  st-bus_sai_in_out.o
    0x08002e7a   0x08002e7a   0x00000002   Code   RO          753    i.HAL_SAI_TxHalfCpltCallback  st-bus_sai_in_out.o
    0x08002e7c   0x08002e7c   0x00000068   Code   RO          628    i.HAL_SPI_ErrorCallback  spi_interface.o
    0x08002ee4   0x08002ee4   0x0000015c   Code   RO         3607    i.HAL_SPI_IRQHandler  stm32f4xx_hal_spi.o
    0x08003040   0x08003040   0x0000008c   Code   RO         3608    i.HAL_SPI_Init      stm32f4xx_hal_spi.o
    0x080030cc   0x080030cc   0x00000184   Code   RO         1343    i.HAL_SPI_MspInit   stm32f4xx_hal_msp.o
    0x08003250   0x08003250   0x00000164   Code   RO         3611    i.HAL_SPI_Receive   stm32f4xx_hal_spi.o
    0x080033b4   0x080033b4   0x00000002   Code   RO         3614    i.HAL_SPI_RxCpltCallback  stm32f4xx_hal_spi.o
    0x080033b6   0x080033b6   0x000001a2   Code   RO         3616    i.HAL_SPI_Transmit  stm32f4xx_hal_spi.o
    0x08003558   0x08003558   0x0000022a   Code   RO         3617    i.HAL_SPI_TransmitReceive  stm32f4xx_hal_spi.o
    0x08003782   0x08003782   0x00000002   PAD
    0x08003784   0x08003784   0x000000c4   Code   RO         3619    i.HAL_SPI_TransmitReceive_IT  stm32f4xx_hal_spi.o
    0x08003848   0x08003848   0x00000002   Code   RO         3624    i.HAL_SPI_TxRxCpltCallback  stm32f4xx_hal_spi.o
    0x0800384a   0x0800384a   0x00000034   Code   RO         2571    i.HAL_SYSTICK_Config  stm32f4xx_hal_cortex.o
    0x0800387e   0x0800387e   0x00000002   PAD
    0x08003880   0x08003880   0x000000b4   Code   RO         4625    i.HAL_TIMEx_MasterConfigSynchronization  stm32f4xx_hal_tim_ex.o
    0x08003934   0x08003934   0x00000034   Code   RO         3921    i.HAL_TIM_Base_Init  stm32f4xx_hal_tim.o
    0x08003968   0x08003968   0x00000034   Code   RO         1345    i.HAL_TIM_Base_MspInit  stm32f4xx_hal_msp.o
    0x0800399c   0x0800399c   0x00000108   Code   RO         3930    i.HAL_TIM_ConfigClockSource  stm32f4xx_hal_tim.o
    0x08003aa4   0x08003aa4   0x0000002c   Code   RO         1234    i.HardFault_Handler  stm32f4xx_it.o
    0x08003ad0   0x08003ad0   0x00000068   Code   RO          485    i.HdlcBitStreamGetBit  hdlc_tx_low_level.o
    0x08003b38   0x08003b38   0x00000044   Code   RO          821    i.HexToChar         uart.o
    0x08003b7c   0x08003b7c   0x0000003a   Code   RO         1609    i.I2SEx_RxISR_I2S   stm32f4xx_hal_i2s_ex.o
    0x08003bb6   0x08003bb6   0x00000002   PAD
    0x08003bb8   0x08003bb8   0x0000006c   Code   RO         1610    i.I2SEx_RxISR_I2SExt  stm32f4xx_hal_i2s_ex.o
    0x08003c24   0x08003c24   0x00000038   Code   RO         1611    i.I2SEx_TxISR_I2S   stm32f4xx_hal_i2s_ex.o
    0x08003c5c   0x08003c5c   0x0000006c   Code   RO         1612    i.I2SEx_TxISR_I2SExt  stm32f4xx_hal_i2s_ex.o
    0x08003cc8   0x08003cc8   0x000000e8   Code   RO         1613    i.I2SEx_TxRxDMACplt  stm32f4xx_hal_i2s_ex.o
    0x08003db0   0x08003db0   0x00000014   Code   RO         1040    i.I2SEx_TxRxDMACpltAlt  audio_in_out.o
    0x08003dc4   0x08003dc4   0x00000060   Code   RO         1614    i.I2SEx_TxRxDMAError  stm32f4xx_hal_i2s_ex.o
    0x08003e24   0x08003e24   0x0000000e   Code   RO         1615    i.I2SEx_TxRxDMAHalfCplt  stm32f4xx_hal_i2s_ex.o
    0x08003e32   0x08003e32   0x000000dc   Code   RO         1439    i.I2S_IRQHandler    stm32f4xx_hal_i2s.o
    0x08003f0e   0x08003f0e   0x00000036   Code   RO         1440    i.I2S_Receive_IT    stm32f4xx_hal_i2s.o
    0x08003f44   0x08003f44   0x00000036   Code   RO         1441    i.I2S_Transmit_IT   stm32f4xx_hal_i2s.o
    0x08003f7a   0x08003f7a   0x00000010   Code   RO          351    i.Inc               hdlc_rx_low_level.o
    0x08003f8a   0x08003f8a   0x00000138   Code   RO         4947    i.LL_GPIO_Init      stm32f4xx_ll_gpio.o
    0x080040c2   0x080040c2   0x00000024   Code   RO         2971    i.LL_RCC_GetSystemClocksFreq  stm32f4xx_ll_rcc.o
    0x080040e6   0x080040e6   0x00000002   PAD
    0x080040e8   0x080040e8   0x00000010   Code   RO         2977    i.LL_RCC_PLL_GetMainSource  stm32f4xx_ll_rcc.o
    0x080040f8   0x080040f8   0x00000010   Code   RO         2978    i.LL_RCC_PLL_GetN   stm32f4xx_ll_rcc.o
    0x08004108   0x08004108   0x000000e0   Code   RO         4865    i.LL_USART_Init     stm32f4xx_ll_usart.o
    0x080041e8   0x080041e8   0x0000000a   Code   RO         4866    i.LL_USART_IsEnabled  stm32f4xx_ll_usart.o
    0x080041f2   0x080041f2   0x000001b8   Code   RO         4867    i.LL_USART_SetBaudRate  stm32f4xx_ll_usart.o
    0x080043aa   0x080043aa   0x00000002   PAD
    0x080043ac   0x080043ac   0x00000068   Code   RO         1111    i.MX_DMA_Init       main.o
    0x08004414   0x08004414   0x0000016c   Code   RO         1112    i.MX_GPIO_Init      main.o
    0x08004580   0x08004580   0x0000003c   Code   RO         1113    i.MX_I2S3_Init      main.o
    0x080045bc   0x080045bc   0x000000cc   Code   RO         1114    i.MX_SAI1_Init      main.o
    0x08004688   0x08004688   0x00000044   Code   RO         1115    i.MX_SPI1_Init      main.o
    0x080046cc   0x080046cc   0x00000044   Code   RO         1116    i.MX_SPI2_Init      main.o
    0x08004710   0x08004710   0x00000048   Code   RO         1117    i.MX_SPI4_Init      main.o
    0x08004758   0x08004758   0x00000070   Code   RO         1118    i.MX_TIM4_Init      main.o
    0x080047c8   0x080047c8   0x00000170   Code   RO         1119    i.MX_USART1_UART_Init  main.o
    0x08004938   0x08004938   0x00000004   Code   RO         1235    i.MemManage_Handler  stm32f4xx_it.o
    0x0800493c   0x0800493c   0x00000002   Code   RO         1236    i.NMI_Handler       stm32f4xx_it.o
    0x0800493e   0x0800493e   0x00000002   Code   RO         1237    i.PendSV_Handler    stm32f4xx_it.o
    0x08004940   0x08004940   0x00000020   Code   RO         2980    i.RCC_GetHCLKClockFreq  stm32f4xx_ll_rcc.o
    0x08004960   0x08004960   0x00000024   Code   RO         2981    i.RCC_GetPCLK1ClockFreq  stm32f4xx_ll_rcc.o
    0x08004984   0x08004984   0x00000024   Code   RO         2982    i.RCC_GetPCLK2ClockFreq  stm32f4xx_ll_rcc.o
    0x080049a8   0x080049a8   0x00000044   Code   RO         2983    i.RCC_GetSystemClockFreq  stm32f4xx_ll_rcc.o
    0x080049ec   0x080049ec   0x0000006c   Code   RO         2989    i.RCC_PLL_GetFreqDomain_SYS  stm32f4xx_ll_rcc.o
    0x08004a58   0x08004a58   0x0000002c   Code   RO         3567    i.SAI_BlockSynchroConfig  stm32f4xx_hal_sai_ex.o
    0x08004a84   0x08004a84   0x00000048   Code   RO         3330    i.SAI_DMAError      stm32f4xx_hal_sai.o
    0x08004acc   0x08004acc   0x00000040   Code   RO         3331    i.SAI_DMARxCplt     stm32f4xx_hal_sai.o
    0x08004b0c   0x08004b0c   0x0000000e   Code   RO         3332    i.SAI_DMARxHalfCplt  stm32f4xx_hal_sai.o
    0x08004b1a   0x08004b1a   0x00000040   Code   RO         3333    i.SAI_DMATxCplt     stm32f4xx_hal_sai.o
    0x08004b5a   0x08004b5a   0x0000000e   Code   RO         3334    i.SAI_DMATxHalfCplt  stm32f4xx_hal_sai.o
    0x08004b68   0x08004b68   0x0000003c   Code   RO          754    i.SAI_DMA_Init      st-bus_sai_in_out.o
    0x08004ba4   0x08004ba4   0x00000054   Code   RO         3335    i.SAI_Disable       stm32f4xx_hal_sai.o
    0x08004bf8   0x08004bf8   0x000000e8   Code   RO         3568    i.SAI_GetInputClock  stm32f4xx_hal_sai_ex.o
    0x08004ce0   0x08004ce0   0x0000003a   Code   RO         3339    i.SAI_InterruptFlag  stm32f4xx_hal_sai.o
    0x08004d1a   0x08004d1a   0x00000002   PAD
    0x08004d1c   0x08004d1c   0x0000001c   Code   RO          755    i.SAI_reset         st-bus_sai_in_out.o
    0x08004d38   0x08004d38   0x00000010   Code   RO         1238    i.SPI2_IRQHandler   stm32f4xx_it.o
    0x08004d48   0x08004d48   0x00000034   Code   RO         3626    i.SPI_2linesRxISR_16BIT  stm32f4xx_hal_spi.o
    0x08004d7c   0x08004d7c   0x00000034   Code   RO         3627    i.SPI_2linesRxISR_8BIT  stm32f4xx_hal_spi.o
    0x08004db0   0x08004db0   0x000002c8   Code   RO          629    i.SPI_2linesRxISR_8BIT_Fast  spi_interface.o
    0x08005078   0x08005078   0x00000034   Code   RO         3628    i.SPI_2linesTxISR_16BIT  stm32f4xx_hal_spi.o
    0x080050ac   0x080050ac   0x00000034   Code   RO         3629    i.SPI_2linesTxISR_8BIT  stm32f4xx_hal_spi.o
    0x080050e0   0x080050e0   0x00000008   Code   RO          630    i.SPI_2linesTxISR_8BIT_Fast  spi_interface.o
    0x080050e8   0x080050e8   0x000000bc   Code   RO         3632    i.SPI_CloseRxTx_ISR  stm32f4xx_hal_spi.o
    0x080051a4   0x080051a4   0x00000014   Code   RO         3635    i.SPI_DMAAbortOnError  stm32f4xx_hal_spi.o
    0x080051b8   0x080051b8   0x00000094   Code   RO         3645    i.SPI_EndRxTransaction  stm32f4xx_hal_spi.o
    0x0800524c   0x0800524c   0x0000006c   Code   RO         3646    i.SPI_EndRxTxTransaction  stm32f4xx_hal_spi.o
    0x080052b8   0x080052b8   0x000000a8   Code   RO         3651    i.SPI_WaitFlagStateUntilTimeout  stm32f4xx_hal_spi.o
    0x08005360   0x08005360   0x00000002   Code   RO         1239    i.SVC_Handler       stm32f4xx_it.o
    0x08005362   0x08005362   0x0000000c   Code   RO         1240    i.SysTick_Handler   stm32f4xx_it.o
    0x0800536e   0x0800536e   0x00000002   PAD
    0x08005370   0x08005370   0x00000100   Code   RO         1120    i.SystemClock_Config  main.o
    0x08005470   0x08005470   0x0000001c   Code   RO         5053    i.SystemInit        system_stm32f4xx.o
    0x0800548c   0x0800548c   0x000000d8   Code   RO         4009    i.TIM_Base_SetConfig  stm32f4xx_hal_tim.o
    0x08005564   0x08005564   0x00000016   Code   RO         4020    i.TIM_ETR_SetConfig  stm32f4xx_hal_tim.o
    0x0800557a   0x0800557a   0x00000012   Code   RO         4021    i.TIM_ITRx_SetConfig  stm32f4xx_hal_tim.o
    0x0800558c   0x0800558c   0x00000026   Code   RO         4027    i.TIM_TI1_ConfigInputStage  stm32f4xx_hal_tim.o
    0x080055b2   0x080055b2   0x00000028   Code   RO         4029    i.TIM_TI2_ConfigInputStage  stm32f4xx_hal_tim.o
    0x080055da   0x080055da   0x00000008   Code   RO         1241    i.USART1_IRQHandler  stm32f4xx_it.o
    0x080055e2   0x080055e2   0x00000004   Code   RO         1242    i.UsageFault_Handler  stm32f4xx_it.o
    0x080055e6   0x080055e6   0x00000002   PAD
    0x080055e8   0x080055e8   0x00000028   Code   RO         5240    i.__0sprintf$5      mc_w.l(printf5.o)
    0x08005610   0x08005610   0x00000010   Code   RO         2573    i.__NVIC_GetPriorityGrouping  stm32f4xx_hal_cortex.o
    0x08005620   0x08005620   0x00000028   Code   RO         2574    i.__NVIC_SetPriority  stm32f4xx_hal_cortex.o
    0x08005648   0x08005648   0x0000000e   Code   RO         5410    i.__scatterload_copy  mc_w.l(handlers.o)
    0x08005656   0x08005656   0x00000002   Code   RO         5411    i.__scatterload_null  mc_w.l(handlers.o)
    0x08005658   0x08005658   0x0000000e   Code   RO         5412    i.__scatterload_zeroinit  mc_w.l(handlers.o)
    0x08005666   0x08005666   0x00000002   PAD
    0x08005668   0x08005668   0x000002c0   Code   RO         5245    i._printf_core      mc_w.l(printf5.o)
    0x08005928   0x08005928   0x0000000a   Code   RO         5247    i._sputc            mc_w.l(printf5.o)
    0x08005932   0x08005932   0x00000002   PAD
    0x08005934   0x08005934   0x00000074   Code   RO          486    i.addByteToBitStream  hdlc_tx_low_level.o
    0x080059a8   0x080059a8   0x00000034   Code   RO          487    i.addFlagToBitStream  hdlc_tx_low_level.o
    0x080059dc   0x080059dc   0x0000003a   Code   RO           41    i.alaw2linear       g711.o
    0x08005a16   0x08005a16   0x00000002   PAD
    0x08005a18   0x08005a18   0x0000000c   Code   RO          822    i.blink             uart.o
    0x08005a24   0x08005a24   0x000001c4   Code   RO          929    i.codecInit         codec.o
    0x08005be8   0x08005be8   0x00000078   Code   RO          488    i.createHdlcBitStream  hdlc_tx_low_level.o
    0x08005c60   0x08005c60   0x00000094   Code   RO          631    i.doCsTimeout       spi_interface.o
    0x08005cf4   0x08005cf4   0x00000094   Code   RO          535    i.doMt9092Logic     mt9092_logic.o
    0x08005d88   0x08005d88   0x0000004c   Code   RO          931    i.headsetSpeakerOff  codec.o
    0x08005dd4   0x08005dd4   0x0000004c   Code   RO          932    i.headsetSpeakerOn  codec.o
    0x08005e20   0x08005e20   0x0000001c   Code   RO          431    i.isHdlcFifoEmpty   hdlc_tx.o
    0x08005e3c   0x08005e3c   0x0000004c   Code   RO          933    i.lineOutSpeakerOff  codec.o
    0x08005e88   0x08005e88   0x0000004c   Code   RO          934    i.lineOutSpeakerOn  codec.o
    0x08005ed4   0x08005ed4   0x00000058   Code   RO           43    i.linear2alaw       g711.o
    0x08005f2c   0x08005f2c   0x00000078   Code   RO         1121    i.main              main.o
    0x08005fa4   0x08005fa4   0x00000030   Code   RO          935    i.micOff            codec.o
    0x08005fd4   0x08005fd4   0x0000002c   Code   RO          936    i.micOn             codec.o
    0x08006000   0x08006000   0x00000024   Code   RO          536    i.mt9092IrqOff      mt9092_logic.o
    0x08006024   0x08006024   0x00000024   Code   RO          537    i.mt9092IrqOn       mt9092_logic.o
    0x08006048   0x08006048   0x00000008   Code   RO          538    i.mt9092LogicInit   mt9092_logic.o
    0x08006050   0x08006050   0x00000100   Code   RO          539    i.mt9092ProcessReadCommand  mt9092_logic.o
    0x08006150   0x08006150   0x00000168   Code   RO          540    i.mt9092ProcessWriteCommand  mt9092_logic.o
    0x080062b8   0x080062b8   0x00000060   Code   RO          605    i.mt9092RegistersInit  mt9092_registers.o
    0x08006318   0x08006318   0x00000020   Code   RO          541    i.mt9092Reset       mt9092_logic.o
    0x08006338   0x08006338   0x00000038   Code   RO          632    i.nCS_IRQHandler    spi_interface.o
    0x08006370   0x08006370   0x000001e8   Code   RO          353    i.processHdlcFrame  hdlc_rx_low_level.o
    0x08006558   0x08006558   0x0000011c   Code   RO          295    i.processHdlcTelegram  hdlc_rx.o
    0x08006674   0x08006674   0x00000034   Code   RO          354    i.readFromPosition  hdlc_rx_low_level.o
    0x080066a8   0x080066a8   0x000000f8   Code   RO          296    i.readHdlcRxFifo    hdlc_rx.o
    0x080067a0   0x080067a0   0x00000050   Code   RO          937    i.readReg           codec.o
    0x080067f0   0x080067f0   0x00000026   Code   RO           11    i.reflect           crc-16_ccitt.o
    0x08006816   0x08006816   0x00000002   PAD
    0x08006818   0x08006818   0x00000028   Code   RO          297    i.resetHdlcRxFifo   hdlc_rx.o
    0x08006840   0x08006840   0x00000028   Code   RO          432    i.resetHdlcTxFifo   hdlc_tx.o
    0x08006868   0x08006868   0x0000001e   Code   RO           45    i.search            g711.o
    0x08006886   0x08006886   0x00000002   PAD
    0x08006888   0x08006888   0x0000008c   Code   RO          940    i.selectMic         codec.o
    0x08006914   0x08006914   0x00000020   Code   RO          633    i.spiLedRefresh     spi_interface.o
    0x08006934   0x08006934   0x0000003c   Code   RO          634    i.spiLedService     spi_interface.o
    0x08006970   0x08006970   0x00000024   Code   RO          635    i.spiSetErrLed      spi_interface.o
    0x08006994   0x08006994   0x00000040   Code   RO          636    i.spi_begin_restart  spi_interface.o
    0x080069d4   0x080069d4   0x00000020   Code   RO          637    i.spi_disable       spi_interface.o
    0x080069f4   0x080069f4   0x00000050   Code   RO          638    i.spi_enable        spi_interface.o
    0x08006a44   0x08006a44   0x00000030   Code   RO          639    i.spi_end_restart   spi_interface.o
    0x08006a74   0x08006a74   0x00000094   Code   RO          640    i.spi_interface_Init  spi_interface.o
    0x08006b08   0x08006b08   0x000000b8   Code   RO          433    i.startHdlcTransmition  hdlc_tx.o
    0x08006bc0   0x08006bc0   0x00000008   Code   RO          355    i.truncValue        hdlc_rx_low_level.o
    0x08006bc8   0x08006bc8   0x00000104   Code   RO          826    i.uartISR           uart.o
    0x08006ccc   0x08006ccc   0x00000038   Code   RO          827    i.uartPutchar       uart.o
    0x08006d04   0x08006d04   0x00000016   Code   RO          828    i.uartPuts          uart.o
    0x08006d1a   0x08006d1a   0x0000001a   Code   RO          830    i.uartPutsN         uart.o
    0x08006d34   0x08006d34   0x00000018   Code   RO          832    i.uartReceiveStop   uart.o
    0x08006d4c   0x08006d4c   0x000000fc   Code   RO          434    i.writeHdlcTxFifo   hdlc_tx.o
    0x08006e48   0x08006e48   0x00000044   Code   RO          942    i.writeReg          codec.o
    0x08006e8c   0x08006e8c   0x000009b4   Data   RO           49    .constdata          g711.o
    0x08007840   0x08007840   0x00000024   Data   RO          357    .constdata          hdlc_rx_low_level.o
    0x08007864   0x08007864   0x00000008   Data   RO         2272    .constdata          stm32f4xx_hal_dma.o
    0x0800786c   0x0800786c   0x00000018   Data   RO         5054    .constdata          system_stm32f4xx.o
    0x08007884   0x08007884   0x00000020   Data   RO         5408    Region$$Table       anon$$obj.o


    Execution Region RW_IRAM2 (Exec base: 0x10000000, Load base: 0x08007948, Size: 0x00000000, Max: 0x00010000, ABSOLUTE)

    **** No section assigned to this execution region ****


    Execution Region RW_IRAM1 (Exec base: 0x20000000, Load base: 0x080078a4, Size: 0x000027f8, Max: 0x00030000, ABSOLUTE, COMPRESSED[0x000000a4])

    Exec Addr    Load Addr    Size         Type   Attr      Idx    E Section Name        Object

    0x20000000   COMPRESSED   0x00000004   Data   RW         1122    .ARM.__AT_0x20000000  main.o
    0x20000004   COMPRESSED   0x00000008   Data   RW           50    .data               g711.o
    0x2000000c   COMPRESSED   0x00000012   Data   RW          358    .data               hdlc_rx_low_level.o
    0x2000001e   COMPRESSED   0x00000007   Data   RW          491    .data               hdlc_tx_low_level.o
    0x20000025   COMPRESSED   0x00000005   Data   RW          543    .data               mt9092_logic.o
    0x2000002a   COMPRESSED   0x00000001   Data   RW          607    .data               mt9092_registers.o
    0x2000002b   COMPRESSED   0x00000001   PAD
    0x2000002c   COMPRESSED   0x00000022   Data   RW          643    .data               spi_interface.o
    0x2000004e   COMPRESSED   0x0000000b   Data   RW          758    .data               st-bus_sai_in_out.o
    0x20000059   COMPRESSED   0x00000001   PAD
    0x2000005a   COMPRESSED   0x00000002   Data   RW          836    .data               uart.o
    0x2000005c   COMPRESSED   0x000000ce   Data   RW         1043    .data               audio_in_out.o
    0x2000012a   COMPRESSED   0x00000002   PAD
    0x2000012c   COMPRESSED   0x00000004   Data   RW         1347    .data               stm32f4xx_hal_msp.o
    0x20000130   COMPRESSED   0x00000009   Data   RW         2724    .data               stm32f4xx_hal.o
    0x20000139   COMPRESSED   0x00000003   PAD
    0x2000013c   COMPRESSED   0x00000004   Data   RW         5055    .data               system_stm32f4xx.o
    0x20000140        -       0x00000024   Zero   RW          298    .bss                hdlc_rx.o
    0x20000164        -       0x000008c0   Zero   RW          356    .bss                hdlc_rx_low_level.o
    0x20000a24        -       0x00000064   Zero   RW          435    .bss                hdlc_tx.o
    0x20000a88        -       0x00000200   Zero   RW          489    .bss                hdlc_tx_low_level.o
    0x20000c88        -       0x00000040   Zero   RW          606    .bss                mt9092_registers.o
    0x20000cc8        -       0x00000040   Zero   RW          641    .bss                spi_interface.o
    0x20000d08        -       0x00000040   Zero   RW          756    .bss                st-bus_sai_in_out.o
    0x20000d48        -       0x00000488   Zero   RW          833    .bss                uart.o
    0x200011d0        -       0x00000208   Zero   RW         1041    .bss                audio_in_out.o
    0x200013d8        -       0x00000420   Zero   RW         1123    .bss                main.o
    0x200017f8        -       0x00001000   Zero   RW            1    STACK               startup_stm32f429xx.o


==============================================================================

Image component sizes


      Code (inc. data)   RO Data    RW Data    ZI Data      Debug   Object Name

       896        326          0        206        520      35788   audio_in_out.o
      1136        170          0          0          0       5359   codec.o
       118          0          0          0          0       2854   crc-16_ccitt.o
       416         22       2484          8          0     830313   g711.o
       572         66          0          0         36       2587   hdlc_rx.o
      1024        182         36         18       2240       5527   hdlc_rx_low_level.o
       504         90          0          0        100       3426   hdlc_tx.o
       392         64          0          7        512       3651   hdlc_tx_low_level.o
      1798        148          0          4       1056      57549   main.o
       876        258          0          5          0       4949   mt9092_logic.o
        96         10          0          1         64       1161   mt9092_registers.o
      1528        360          0         34         64       9104   spi_interface.o
       614        132          0         11         64       5853   st-bus_sai_in_out.o
        36          8        428          0       4096        856   startup_stm32f429xx.o
       172         32          0          9          0       9033   stm32f4xx_hal.o
       372         28          0          0          0      35357   stm32f4xx_hal_cortex.o
      1434         16          8          0          0       7206   stm32f4xx_hal_dma.o
       586         54          0          0          0       3716   stm32f4xx_hal_gpio.o
       780         16          0          0          0       4813   stm32f4xx_hal_i2s.o
      1890         68          0          0          0       8099   stm32f4xx_hal_i2s_ex.o
      1252        102          0          4          0       4755   stm32f4xx_hal_msp.o
       140         12          0          0          0       1320   stm32f4xx_hal_pwr_ex.o
      1724         58          0          0          0       3964   stm32f4xx_hal_rcc.o
       916         44          0          0          0       2453   stm32f4xx_hal_rcc_ex.o
      1398         42          0          0          0       9175   stm32f4xx_hal_sai.o
       276         30          0          0          0       1873   stm32f4xx_hal_sai_ex.o
      2856         38          0          0          0      15104   stm32f4xx_hal_spi.o
       650         46          0          0          0       5797   stm32f4xx_hal_tim.o
       180         30          0          0          0       1376   stm32f4xx_hal_tim_ex.o
       140         28          0          0          0       7396   stm32f4xx_it.o
       312          0          0          0          0       7383   stm32f4xx_ll_gpio.o
       348         68          0          0          0      43949   stm32f4xx_ll_rcc.o
       674         34          0          0          0      16740   stm32f4xx_ll_usart.o
        28          4         24          4          0       1191   system_stm32f4xx.o
       468         54          0          2       1160      17793   uart.o

    ----------------------------------------------------------------------
     26636       2640       3012        320       9912    1177470   Object Totals
         0          0         32          0          0          0   (incl. Generated)
        34          0          0          7          0          0   (incl. Padding)

    ----------------------------------------------------------------------

      Code (inc. data)   RO Data    RW Data    ZI Data      Debug   Library Member Name

        86          0          0          0          0          0   __dczerorl2.o
         0          0          0          0          0          0   entry.o
         0          0          0          0          0          0   entry10a.o
         0          0          0          0          0          0   entry11a.o
         8          4          0          0          0          0   entry2.o
         4          0          0          0          0          0   entry5.o
         0          0          0          0          0          0   entry7b.o
         0          0          0          0          0          0   entry8b.o
         8          4          0          0          0          0   entry9a.o
        30          0          0          0          0          0   handlers.o
        36          8          0          0          0         68   init.o
        30          0          0          0          0         68   llshl.o
        32          0          0          0          0         68   llushr.o
        26          0          0          0          0         80   memcmp.o
        64          0          0          0          0         76   memmovea.o
        36          0          0          0          0        108   memseta.o
       754         52          0          0          0        252   printf5.o
        18          0          0          0          0         68   strcpy.o
        98          0          0          0          0         92   uldiv.o

    ----------------------------------------------------------------------
      1236         68          0          0          0        880   Library Totals
         6          0          0          0          0          0   (incl. Padding)

    ----------------------------------------------------------------------

      Code (inc. data)   RO Data    RW Data    ZI Data      Debug   Library Name

      1230         68          0          0          0        880   mc_w.l

    ----------------------------------------------------------------------
      1236         68          0          0          0        880   Library Totals

    ----------------------------------------------------------------------

==============================================================================


      Code (inc. data)   RO Data    RW Data    ZI Data      Debug   

     27872       2708       3012        320       9912    1158318   Grand Totals
     27872       2708       3012        164       9912    1158318   ELF Image Totals (compressed)
     27872       2708       3012        164          0          0   ROM Totals

==============================================================================

    Total RO  Size (Code + RO Data)                30884 (  30.16kB)
    Total RW  Size (RW Data + ZI Data)             10232 (   9.99kB)
    Total ROM Size (Code + RO Data + RW Data)      31048 (  30.32kB)

==============================================================================

